 Exile

 Timestamp is 34c54b31 (Tue Jan 20 18:11:13 1998)

 Preferred load address is 00400000

 Start         Length     Name                   Class
 0001:00000000 0008a9caH .text                   CODE
 0001:0008a9d0 000014e5H .text$x                 CODE
 0002:00000000 00003c84H .rdata                  DATA
 0002:00003c88 00001910H .xdata$x                DATA
 0002:00005598 00000000H .edata                  DATA
 0003:00000000 00000004H .CRT$XCA                DATA
 0003:00000004 000001dcH .CRT$XCU                DATA
 0003:000001e0 00000004H .CRT$XCZ                DATA
 0003:000001e4 00000004H .CRT$XIA                DATA
 0003:000001e8 00000004H .CRT$XIZ                DATA
 0003:000001f0 000096e1H .data                   DATA
 0003:000098d8 0b19bae8H .bss                    DATA
 0004:00000000 000000a0H .idata$2                DATA
 0004:000000a0 00000014H .idata$3                DATA
 0004:000000b4 000002acH .idata$4                DATA
 0004:00000360 000002acH .idata$5                DATA
 0004:0000060c 0000091aH .idata$6                DATA
 0005:00000000 000001f0H .rsrc$01                DATA
 0005:000001f0 00001c78H .rsrc$02                DATA

  Address         Publics by Value              Rva+Base     Lib:Object

 0001:00000020       ??_H@YGXPAXIHP6EX0@Z@Z     00401020 f i 3dimage.obj
 0001:00000080       ??0T3DImagery@@QAE@H@Z     00401080 f   3dimage.obj
 0001:00000100       ??_GT3DImagery@@UAEPAXI@Z  00401100 f i 3dimage.obj
 0001:00000100       ??_ET3DImagery@@UAEPAXI@Z  00401100 f i 3dimage.obj
 0001:00000130       ??1T3DImagery@@UAE@XZ      00401130 f   3dimage.obj
 0001:00000190       ?InitializeMesh@T3DImagery@@QAEHPAUS3DImageryBody@@@Z 00401190 f   3dimage.obj
 0001:000008f0       ?DrawUnlit@TObjectImagery@@UAEXPAVTObjectInstance@@PAVTSurface@@@Z 004018f0 f i 3dimage.obj
 0001:00000900       ?DrawLit@TObjectImagery@@UAEXPAVTObjectInstance@@PAVTSurface@@@Z 00401900 f i 3dimage.obj
 0001:00000910       ?DrawSelected@TObjectImagery@@UAEXPAVTObjectInstance@@PAVTSurface@@@Z 00401910 f i 3dimage.obj
 0001:00000920       ?DrawLight@TObjectImagery@@UAEXPAVTObjectInstance@@PAVTSurface@@@Z 00401920 f i 3dimage.obj
 0001:00000930       ?DrawInvItem@TObjectImagery@@UAEXPAVTObjectInstance@@HH@Z 00401930 f i 3dimage.obj
 0001:00000940       ?SaveHeader@TObjectImagery@@UAEXXZ 00401940 f i 3dimage.obj
 0001:00000960       ?ClearMesh@T3DImagery@@QAEXXZ 00401960 f   3dimage.obj
 0001:00000af0       ?NumStates@TObjectImagery@@UAEHXZ 00401af0 f i 3dimage.obj
 0001:00000b10       ?SetHeaderDirty@TObjectImagery@@UAEXH@Z 00401b10 f i 3dimage.obj
 0001:00000b30       ?GetHeaderDirty@TObjectImagery@@UAEHXZ 00401b30 f i 3dimage.obj
 0001:00000b50       ?SetBodyDirty@TObjectImagery@@UAEXH@Z 00401b50 f i 3dimage.obj
 0001:00000b70       ?GetBodyDirty@TObjectImagery@@UAEHXZ 00401b70 f i 3dimage.obj
 0001:00000b90       ?GetWalkMap@TObjectImagery@@UAEPAEH@Z 00401b90 f i 3dimage.obj
 0001:00000c00       ?GetRegX@TObjectImagery@@UAEHH@Z 00401c00 f i 3dimage.obj
 0001:00000c50       ?GetRegY@TObjectImagery@@UAEHH@Z 00401c50 f i 3dimage.obj
 0001:00000ca0       ?GetRegZ@TObjectImagery@@UAEHH@Z 00401ca0 f i 3dimage.obj
 0001:00000cf0       ?SetReg@TObjectImagery@@UAEXHHHH@Z 00401cf0 f i 3dimage.obj
 0001:00000d70       ?GetAnimRegX@TObjectImagery@@UAEHH@Z 00401d70 f i 3dimage.obj
 0001:00000dc0       ?GetAnimRegY@TObjectImagery@@UAEHH@Z 00401dc0 f i 3dimage.obj
 0001:00000e10       ?GetAnimRegZ@TObjectImagery@@UAEHH@Z 00401e10 f i 3dimage.obj
 0001:00000e60       ?NumVerts@T3DImagery@@QAEHXZ 00401e60 f   3dimage.obj
 0001:00000e80       ?SetAnimReg@TObjectImagery@@UAEXHHHH@Z 00401e80 f i 3dimage.obj
 0001:00000f00       ?GetVerts@T3DImagery@@QAEXPAXHHW4_D3DVERTEXTYPE@@HH@Z 00401f00 f   3dimage.obj
 0001:000010e0       ?GetFlags@TObjectImagery@@UAEHH@Z 004020e0 f i 3dimage.obj
 0001:00001100       ?GetAniFlags@TObjectImagery@@UAEHH@Z 00402100 f i 3dimage.obj
 0001:00001130       ?GetAniLength@TObjectImagery@@UAEHH@Z 00402130 f i 3dimage.obj
 0001:00001160       ?GetInvAniFlags@TObjectImagery@@UAEHH@Z 00402160 f i 3dimage.obj
 0001:00001190       ?GetInvAniLength@TObjectImagery@@UAEHH@Z 00402190 f i 3dimage.obj
 0001:000011c0       ?GetWidth@TObjectImagery@@UAEHH@Z 004021c0 f i 3dimage.obj
 0001:00001210       ?GetHeight@TObjectImagery@@UAEHH@Z 00402210 f i 3dimage.obj
 0001:00001260       ?SetWidthHeight@TObjectImagery@@UAEXHHH@Z 00402260 f i 3dimage.obj
 0001:000012c0       ?GetWorldBoundBox@TObjectImagery@@UAEXHAAH00@Z 004022c0 f i 3dimage.obj
 0001:00001330       ?GetWorldRegX@TObjectImagery@@UAEHH@Z 00402330 f i 3dimage.obj
 0001:00001380       ?GetWorldRegY@TObjectImagery@@UAEHH@Z 00402380 f i 3dimage.obj
 0001:000013d0       ?NumObjVerts@T3DImagery@@QAEHH@Z 004023d0 f   3dimage.obj
 0001:00001420       ?GetWorldRegZ@TObjectImagery@@UAEHH@Z 00402420 f i 3dimage.obj
 0001:00001470       ?GetZ@T3DImagery@@UAEHPAVTObjectInstance@@PAVTSurface@@@Z 00402470 f i 3dimage.obj
 0001:00001490       ?AlwaysOnTop@T3DImagery@@UAEHPAVTObjectInstance@@@Z 00402490 f i 3dimage.obj
 0001:000014b0       ?SetWorldReg@TObjectImagery@@UAEXHHHH@Z 004024b0 f i 3dimage.obj
 0001:00001530       ?GetObjVerts@T3DImagery@@QAEXHPAXHHW4_D3DVERTEXTYPE@@@Z 00402530 f   3dimage.obj
 0001:00001580       ?GetStillImage@TObjectImagery@@UAEPAVTBitmap@@HH@Z 00402580 f i 3dimage.obj
 0001:00001590       ?GetAnimation@TObjectImagery@@UAEPAVTAnimation@@H@Z 00402590 f i 3dimage.obj
 0001:000015a0       ?GetInvImage@TObjectImagery@@UAEPAVTBitmap@@HH@Z 004025a0 f i 3dimage.obj
 0001:000015b0       ?NumFaces@T3DImagery@@QAEHXZ 004025b0 f   3dimage.obj
 0001:000015d0       ?GetInvAnimation@TObjectImagery@@UAEPAVTAnimation@@H@Z 004025d0 f i 3dimage.obj
 0001:000015e0       ?Build@T3DImageryBuilder@@UAEPAVTObjectImagery@@H@Z 004025e0 f i 3dimage.obj
 0001:00001660       ?GetImageFlags@TObjectImagery@@UAEKH@Z 00402660 f i 3dimage.obj
 0001:00001670       ?GetObjName@TObjectImagery@@UAEPADH@Z 00402670 f i 3dimage.obj
 0001:00001680       ?GetFaces@T3DImagery@@QAEXPAUS3DFace@@@Z 00402680 f   3dimage.obj
 0001:000016b0       ?GetWeaponObj@TObjectImagery@@UAEHXZ 004026b0 f i 3dimage.obj
 0001:000016c0       ?GetNumObjs@TObjectImagery@@UAEHXZ 004026c0 f i 3dimage.obj
 0001:000016d0       ?NumObjFaces@T3DImagery@@QAEHH@Z 004026d0 f   3dimage.obj
 0001:00001720       ?GetObjFaces@T3DImagery@@QAEXHPAUS3DFace@@PAH1@Z 00402720 f   3dimage.obj
 0001:000017f0       ?NumObjects@T3DImagery@@QAEHXZ 004027f0 f   3dimage.obj
 0001:00001810       ?AddObject@T3DImagery@@AAEHPAUS3DObj@@@Z 00402810 f   3dimage.obj
 0001:000018f0       ?RemoveObject@T3DImagery@@AAEXH@Z 004028f0 f   3dimage.obj
 0001:00001980       ?ClearObjects@T3DImagery@@AAEXXZ 00402980 f   3dimage.obj
 0001:000019d0       ?GetObjectNum@T3DImagery@@QAEHPAD@Z 004029d0 f   3dimage.obj
 0001:00001a50       ?GetObjectName@T3DImagery@@QAEPADH@Z 00402a50 f   3dimage.obj
 0001:00001aa0       ?GetObjectA@T3DImagery@@QAEXHPAUS3DObj@@@Z 00402aa0 f   3dimage.obj
 0001:00001b00       ?RenderObject@T3DImagery@@QAEHPAUS3DAnimObj@@HHPAU_D3DMATRIX@@HH@Z 00402b00 f   3dimage.obj
 0001:000025c0       ?AddMaterial@T3DImagery@@AAEHPAU_D3DMATERIAL@@H@Z 004035c0 f   3dimage.obj
 0001:00002790       ?GetMaterial@T3DImagery@@QAEXHPAUS3DMat@@@Z 00403790 f   3dimage.obj
 0001:000027f0       ?GetMaterialHandle@T3DImagery@@QAEKH@Z 004037f0 f   3dimage.obj
 0001:00002840       ?SetMaterial@T3DImagery@@QAEXHPAUS3DMat@@@Z 00403840 f   3dimage.obj
 0001:00002980       ?RemoveMaterial@T3DImagery@@AAEXH@Z 00403980 f   3dimage.obj
 0001:00002a70       ?ClearMaterials@T3DImagery@@AAEXXZ 00403a70 f   3dimage.obj
 0001:00002ac0       ?AddTexture@T3DImagery@@AAEHPAU_DDSURFACEDESC@@PAVOFFSET@@HPAUtagPALETTEENTRY@@@Z 00403ac0 f   3dimage.obj
 0001:00002c50       ?LoadTexture@T3DImagery@@AAEHPAUS3DTex@@PAU_DDSURFACEDESC@@PAVOFFSET@@HPAUtagPALETTEENTRY@@H@Z 00403c50 f   3dimage.obj
 0001:00003650       ?RemoveTexture@T3DImagery@@AAEXH@Z 00404650 f   3dimage.obj
 0001:00003890       ?NumTextures@T3DImagery@@QAEHXZ 00404890 f   3dimage.obj
 0001:000038b0       ?GetTexture@T3DImagery@@QAEXHPAUS3DTex@@@Z 004048b0 f   3dimage.obj
 0001:00003920       ?GetTextureHandle@T3DImagery@@QAEKH@Z 00404920 f   3dimage.obj
 0001:00003980       ?ClearTextures@T3DImagery@@AAEXXZ 00404980 f   3dimage.obj
 0001:000039d0       ?GetTextureFrame@T3DImagery@@QAEHH@Z 004049d0 f   3dimage.obj
 0001:00003a30       ?SetTextureFrame@T3DImagery@@QAEHHH@Z 00404a30 f   3dimage.obj
 0001:00003c10       ?SurfacesLost@T3DImagery@@QAEHXZ 00404c10 f   3dimage.obj
 0001:00003c90       ?RestoreSurfaces@T3DImagery@@QAEXXZ 00404c90 f   3dimage.obj
 0001:00003cf0       ?ResetExtents@T3DImagery@@QAEXXZ 00404cf0 f   3dimage.obj
 0001:00003d50       ?GetExtents@T3DImagery@@QAEXPAU_D3DRECT@@@Z 00404d50 f   3dimage.obj
 0001:00003dc0       ?AddUpdateRect@T3DImagery@@QAEXPAU_D3DRECT@@H@Z 00404dc0 f   3dimage.obj
 0001:00003e70       ?UpdateBoundingRect@T3DImagery@@QAEXPAVTObjectInstance@@HPAU_D3DRECT@@@Z 00404e70 f   3dimage.obj
 0001:00004030       ?RefreshZBuffer@T3DImagery@@QAEXPAVTObjectInstance@@@Z 00405030 f   3dimage.obj
 0001:00004090       ?DrawShadow@T3DImagery@@QAEXPAVTObjectInstance@@@Z 00405090 f   3dimage.obj
 0001:00004190       ?NewObjectAnimator@T3DImagery@@UAEPAVTObjectAnimator@@PAVTObjectInstance@@@Z 00405190 f   3dimage.obj
 0001:00004280       ?NeedsAnimator@T3DImagery@@UAEHPAVTObjectInstance@@@Z 00405280 f   3dimage.obj
 0001:000042a0       ?RecordNewExtents@T3DAnimator@@QAEXPAVTObjectInstance@@H@Z 004052a0 f   3dimage.obj
 0001:00004420       ??0T3DAnimatorBuilder@@QAE@PAD@Z 00405420 f   3dimage.obj
 0001:00004480       ??0T3DAnimatorBuilder@@QAE@XZ 00405480 f   3dimage.obj
 0001:000044d0       ?Build@T3DAnimatorBuilder@@UAEPAVT3DAnimator@@PAVTObjectInstance@@@Z 004054d0 f   3dimage.obj
 0001:00004570       ??_ET3DAnimator@@UAEPAXI@Z 00405570 f i 3dimage.obj
 0001:00004570       ??_GT3DAnimator@@UAEPAXI@Z 00405570 f i 3dimage.obj
 0001:000045a0       ?ResetState@TObjectAnimator@@UAEXXZ 004055a0 f i 3dimage.obj
 0001:000045d0       ?GetBuilder@T3DAnimatorBuilder@@SIPAV1@PAD@Z 004055d0 f   3dimage.obj
 0001:00004630       ??1T3DAnimator@@UAE@XZ     00405630 f   3dimage.obj
 0001:00004690       ?Initialize@T3DAnimator@@UAEXXZ 00405690 f   3dimage.obj
 0001:00004740       ?Close@T3DAnimator@@UAEXXZ 00405740 f   3dimage.obj
 0001:00004800       ?Animate@T3DAnimator@@UAEXH@Z 00405800 f   3dimage.obj
 0001:00004be0       ?SurfacesLost@T3DAnimator@@UAEHXZ 00405be0 f   3dimage.obj
 0001:00004c00       ?RestoreSurfaces@T3DAnimator@@UAEXXZ 00405c00 f   3dimage.obj
 0001:00004c20       ?PreRender@T3DAnimator@@QAEXXZ 00405c20 f   3dimage.obj
 0001:00004d60       ?Render@T3DAnimator@@UAEHXZ 00405d60 f   3dimage.obj
 0001:00004ef0       ?PostRender@T3DAnimator@@QAEXXZ 00405ef0 f   3dimage.obj
 0001:00004f10       ?SetupObjects@T3DAnimator@@UAEXXZ 00405f10 f   3dimage.obj
 0001:00004f70       ?NewObject@T3DAnimator@@QAEPAUS3DAnimObj@@HH@Z 00405f70 f   3dimage.obj
 0001:00005100       ?GetVerts@T3DAnimator@@QAEXPAUS3DAnimObj@@W4_D3DVERTEXTYPE@@@Z 00406100 f   3dimage.obj
 0001:000051e0       ?GetFaces@T3DAnimator@@QAEXPAUS3DAnimObj@@@Z 004061e0 f   3dimage.obj
 0001:00005270       ?AddObject@T3DAnimator@@QAEHPAUS3DAnimObj@@@Z 00406270 f   3dimage.obj
 0001:00005320       ?RemoveObject@T3DAnimator@@QAEXH@Z 00406320 f   3dimage.obj
 0001:00005470       ?GetObjectNum@T3DAnimator@@QAEHPAD@Z 00406470 f   3dimage.obj
 0001:00005500       ?GetObjectA@T3DAnimator@@QAEPAUS3DAnimObj@@H@Z 00406500 f   3dimage.obj
 0001:00005550       ?IsObjectEnabled@T3DAnimator@@QAEHH@Z 00406550 f   3dimage.obj
 0001:000055a0       ?EnableObject@T3DAnimator@@QAEXHH@Z 004065a0 f   3dimage.obj
 0001:00005680       ??0T3DLight@@QAE@AAU_D3DLIGHT@@@Z 00406680 f   3dscene.obj
 0001:000056c0       ??1T3DLight@@QAE@XZ        004066c0 f   3dscene.obj
 0001:000056e0       ?Initialize@T3DLight@@QAEHXZ 004066e0 f   3dscene.obj
 0001:00005780       ?Close@T3DLight@@QAEHXZ    00406780 f   3dscene.obj
 0001:000057c0       ?SetIntensity@T3DLight@@QAEXM@Z 004067c0 f   3dscene.obj
 0001:000057e0       ?SetColor@T3DLight@@QAEXMMM@Z 004067e0 f   3dscene.obj
 0001:00005830       ?SetRange@T3DLight@@QAEXM@Z 00406830 f   3dscene.obj
 0001:00005850       ?SetPosition@T3DLight@@QAEXMMM@Z 00406850 f   3dscene.obj
 0001:00005890       ?AffectObject@T3DLight@@QAEHMMM@Z 00406890 f   3dscene.obj
 0001:00005a10       ?LightOff@T3DLight@@QAEHXZ 00406a10 f   3dscene.obj
 0001:00005a80       ??0T3DScene@@QAE@XZ        00406a80 f   3dscene.obj
 0001:00005aa0       ??1T3DScene@@QAE@XZ        00406aa0 f   3dscene.obj
 0001:00005ac0       ?Initialize@T3DScene@@QAEHHHHH@Z 00406ac0 f   3dscene.obj
 0001:00006360       ?Close@T3DScene@@QAEHXZ    00407360 f   3dscene.obj
 0001:000064b0       ?SetCameraPos@T3DScene@@QAEXAAUS3DPoint@@H@Z 004074b0 f   3dscene.obj
 0001:00006580       ?RefreshZBuffer@T3DScene@@QAEXXZ 00407580 f   3dscene.obj
 0001:000065e0       ?DrawScene@T3DScene@@QAEHXZ 004075e0 f   3dscene.obj
 0001:00006bf0       ?AdjustAmbientLight@T3DScene@@QAEXH@Z 00407bf0 f   3dscene.obj
 0001:00006c80       ?SetAmbientLight@T3DScene@@QAEXUSColor@@@Z 00407c80 f   3dscene.obj
 0001:00006cf0       ?AddLight@T3DScene@@QAEHAAUS3DPoint@@USColor@@H@Z 00407cf0 f   3dscene.obj
 0001:00006ec0       ?DeleteLight@T3DScene@@QAEHH@Z 00407ec0 f   3dscene.obj
 0001:00006f90       ?SetLightIntensity@T3DScene@@QAEHHH@Z 00407f90 f   3dscene.obj
 0001:00007000       ?SetLightColor@T3DScene@@QAEHHUSColor@@@Z 00408000 f   3dscene.obj
 0001:000070b0       ?SetLightPosition@T3DScene@@QAEHHAAUS3DPoint@@@Z 004080b0 f   3dscene.obj
 0001:00007140       ?GetNumLights@T3DScene@@QAEHXZ 00408140 f   3dscene.obj
 0001:00007150       ?LightAffectObject@T3DScene@@QAEHHHH@Z 00408150 f   3dscene.obj
 0001:000071d0       ?ResetAllLights@T3DScene@@QAEXXZ 004081d0 f   3dscene.obj
 0001:00007230       ?AddAnimator@T3DScene@@QAEHPAVT3DAnimator@@@Z 00408230 f   3dscene.obj
 0001:000072e0       ?RemoveAnimator@T3DScene@@QAEHK@Z 004082e0 f   3dscene.obj
 0001:00007360       ?GetNumAnimators@T3DScene@@QAEHXZ 00408360 f   3dscene.obj
 0001:00007370       ?EnumTextureFormatsCallback@@YGJPAU_DDSURFACEDESC@@PAX@Z 00408370 f   3dscene.obj
 0001:000073c0       ?GetTextureFormats@T3DScene@@QAEXXZ 004083c0 f   3dscene.obj
 0001:000073f0       ?GetClosestTextureFormat@T3DScene@@QAEXPAU_DDSURFACEDESC@@0@Z 004083f0 f   3dscene.obj
 0001:000078e0       ?ConvertTexture@T3DScene@@QAEXPAU_DDSURFACEDESC@@PAXPAUtagPALETTEENTRY@@012@Z 004088e0 f   3dscene.obj
 0001:00008770       ??0T3dSurface@@QAE@XZ      00409770 f   3dsurface.obj
 0001:00008790       ??_GT3dSurface@@UAEPAXI@Z  00409790 f i 3dsurface.obj
 0001:00008790       ??_ET3dSurface@@UAEPAXI@Z  00409790 f i 3dsurface.obj
 0001:000087c0       ??1T3dSurface@@UAE@XZ      004097c0 f   3dsurface.obj
 0001:000087e0       ?LockBuffer@T3dSurface@@UAEPAUIDirectDrawSurface@@XZ 004097e0 f   3dsurface.obj
 0001:000087f0       ?UnlockBuffer@T3dSurface@@UAEHXZ 004097f0 f   3dsurface.obj
 0001:00008800       ?SurfaceType@T3dSurface@@UAEHXZ 00409800 f i 3dsurface.obj
 0001:00008810       ?GetDDSurface@TVideoSurface@@UAEPAUIDirectDrawSurface@@XZ 00409810 f i 3dsurface.obj
 0001:00008830       ?Lost@TVideoSurface@@UAEHXZ 00409830 f i 3dsurface.obj
 0001:00008850       ?BitsPerPixel@TSurface@@UAEHXZ 00409850 f i 3dsurface.obj
 0001:00008870       ?GetGraphicsBuffer@TSurface@@UAEPAV1@XZ 00409870 f i 3dsurface.obj
 0001:00008880       ?GetZBuffer@TSurface@@UAEPAV1@XZ 00409880 f i 3dsurface.obj
 0001:00008890       ?GetNormalBuffer@TSurface@@UAEPAV1@XZ 00409890 f i 3dsurface.obj
 0001:000088a0       ?SetOrigin@TSurface@@UAEXHH@Z 004098a0 f i 3dsurface.obj
 0001:000088c0       ?SetClipRect@TSurface@@UAEXHHHH@Z 004098c0 f i 3dsurface.obj
 0001:00008900       ?SetClipMode@TSurface@@UAEXH@Z 00409900 f i 3dsurface.obj
 0001:00008920       ?GetDrawCallBack@TSurface@@UAEP6IXPAUSDrawBlock@@PAUSDrawParam@@@ZXZ 00409920 f i 3dsurface.obj
 0001:00008930       ?UseGetBlit@TSurface@@UAEHXZ 00409930 f i 3dsurface.obj
 0001:000089a0       ?Initialize@TAmmo@@SIHXZ   004099a0 f   ammo.obj
 0001:00008a40       ?Close@TAmmo@@SIXXZ        00409a40 f   ammo.obj
 0001:00008af0       ?Build@TAmmoBuilder@@UAEPAVTObjectInstance@@PAVSObjectDef@@PAVTObjectImagery@@@Z 00409af0 f i ammo.obj
 0001:00008b80       ??_ETAmmo@@UAEPAXI@Z       00409b80 f i ammo.obj
 0001:00008b80       ??_GTAmmo@@UAEPAXI@Z       00409b80 f i ammo.obj
 0001:00008bb0       ?GetAmount@TAmmo@@UAEHXZ   00409bb0 f i ammo.obj
 0001:00008bd0       ?Build@TAmmoBuilder@@UAEPAVTObjectInstance@@PAVTObjectImagery@@@Z 00409bd0 f i ammo.obj
 0001:00008c50       ??1TAmmo@@UAE@XZ           00409c50 f   ammo.obj
 0001:00008d40       ?AddToInventory@TAmmo@@UAEXPAVTObjectInstance@@@Z 00409d40 f   ammo.obj
 0001:00008db0       ?RemoveFromInventory@TAmmo@@UAEXPAVTObjectInstance@@@Z 00409db0 f   ammo.obj
 0001:00008e00       ?SetAmount@TAmmo@@UAEXH@Z  00409e00 f   ammo.obj
 0001:00008ef0       ?Load@TAmmo@@UAEXAAVTInputStream@@H@Z 00409ef0 f   ammo.obj
 0001:00008f30       ?Save@TAmmo@@UAEXAAVTOutputStream@@@Z 00409f30 f   ammo.obj
 0001:00008f80       ?AllocInvItem@TAmmo@@SIXPAVTObjectImagery@@HHH@Z 00409f80 f   ammo.obj
 0001:00009100       ?FreeInvItem@TAmmo@@SIXHH@Z 0040a100 f   ammo.obj
 0001:000091c0       ?AllocGroundItem@TAmmo@@SIXPAVTObjectImagery@@HHH@Z 0040a1c0 f   ammo.obj
 0001:000093d0       ?FreeGroundItem@TAmmo@@SIXHH@Z 0040a3d0 f   ammo.obj
 0001:00009490       ?DrawInvItem@TAmmo@@UAEXHH@Z 0040a490 f   ammo.obj
 0001:00009540       ?InventoryImage@TAmmo@@UAEPAVTBitmap@@XZ 0040a540 f   ammo.obj
 0001:000095a0       ?GetScreenRect@TAmmo@@UAEXAAUSRect@@@Z 0040a5a0 f   ammo.obj
 0001:00009660       ?DrawUnlit@TAmmo@@UAEXPAVTSurface@@@Z 0040a660 f   ammo.obj
 0001:00009710       ?GetStillImage@TAmmo@@UAEPAVTBitmap@@H@Z 0040a710 f   ammo.obj
 0001:00009770       ?GetName@TObjectInstance@@UAEPADXZ 0040a770 f i ammo.obj
 0001:000097f0       ?SetFlags@TObjectInstance@@UAEXKK@Z 0040a7f0 f i ammo.obj
 0001:00009820       ?ResetFlags@TObjectInstance@@UAEXK@Z 0040a820 f i ammo.obj
 0001:00009840       ?SetState@TObjectInstance@@UAEHPAD@Z 0040a840 f i ammo.obj
 0001:00009870       ?HasAnimator@TObjectInstance@@UAEHXZ 0040a870 f i ammo.obj
 0001:00009890       ?GetAnimator@TObjectInstance@@UAEPAVTObjectAnimator@@XZ 0040a890 f i ammo.obj
 0001:000098b0       ?DrawShadow@TObjectInstance@@UAEHXZ 0040a8b0 f i ammo.obj
 0001:000098c0       ?IsInInventory@TObjectInstance@@UAEHXZ 0040a8c0 f i ammo.obj
 0001:000098e0       ?CursorType@TObjectInstance@@UAEHPAV1@@Z 0040a8e0 f i ammo.obj
 0001:000098f0       ?UseRange@TObjectInstance@@UAEXAAH000@Z 0040a8f0 f i ammo.obj
 0001:00009930       ?GetAnimRect@TObjectInstance@@UAEXAAUSRect@@@Z 0040a930 f i ammo.obj
 0001:00009970       ?GetZ@TObjectInstance@@UAEHPAVTSurface@@@Z 0040a970 f i ammo.obj
 0001:000099b0       ?AlwaysOnTop@TObjectInstance@@UAEHXZ 0040a9b0 f i ammo.obj
 0001:000099e0       ?IsInventoryItem@TObjectInstance@@UAEHXZ 0040a9e0 f i ammo.obj
 0001:00009a40       ?FindState@TObjectInstance@@UAEHPAD@Z 0040aa40 f i ammo.obj
 0001:00009a80       ?FindTransitionState@TObjectInstance@@UAEHPAD0@Z 0040aa80 f i ammo.obj
 0001:00009ac0       ?ResetState@TObjectInstance@@UAEXXZ 0040aac0 f i ammo.obj
 0001:00009af0       ?CommandDone@TObjectInstance@@UAEHXZ 0040aaf0 f i ammo.obj
 0001:00009b20       ??0TAnimation@@QAE@XZ      0040ab20 f   animation.obj
 0001:00009b70       ??1TAnimation@@QAE@XZ      0040ab70 f   animation.obj
 0001:00009b80       ?Load@TAnimation@@SIPAV1@H@Z 0040ab80 f   animation.obj
 0001:00009ba0       ?Decompress@TAnimation@@QAEHPAUSDrawBlock@@HH@Z 0040aba0 f   animation.obj
 0001:00009bc0       ?Put@TAnimation@@QAEXPAVTSurface@@PAXHPAUSDrawParam@@@Z 0040abc0 f   animation.obj
 0001:00009c80       ?Stretch@TAnimation@@QAEXPAVTSurface@@0HHHH@Z 0040ac80 f   animation.obj
 0001:00009c90       ?NumFrames@TAnimation@@QAEHXZ 0040ac90 f   animation.obj
 0001:00009d00       ?GetFrame@TAnimation@@QAEPAVTBitmap@@H@Z 0040ad00 f   animation.obj
 0001:00009da0       ?Move@TAnimation@@AAEXAAH0HH@Z 0040ada0 f   animation.obj
 0001:00009db0       ?SizeMove@TAnimation@@AAEXAAH0HHH@Z 0040adb0 f   animation.obj
 0001:00009df0       ?AlwaysOnTop@TAnimImagery@@UAEHPAVTObjectInstance@@@Z 0040adf0 f   animimage.obj
 0001:00009e80       ?DrawLit@TAnimImagery@@UAEXPAVTObjectInstance@@PAVTSurface@@@Z 0040ae80 f   animimage.obj
 0001:0000a020       ?DrawUnlit@TAnimImagery@@UAEXPAVTObjectInstance@@PAVTSurface@@@Z 0040b020 f   animimage.obj
 0001:0000a1a0       ?Build@TAnimImageryBuilder@@UAEPAVTObjectImagery@@H@Z 0040b1a0 f i animimage.obj
 0001:0000a220       ??_ETAnimImagery@@UAEPAXI@Z 0040b220 f i animimage.obj
 0001:0000a220       ??_GTAnimImagery@@UAEPAXI@Z 0040b220 f i animimage.obj
 0001:0000a250       ??1TAnimImagery@@UAE@XZ    0040b250 f i animimage.obj
 0001:0000a270       ?GetStillImage@TAnimImagery@@UAEPAVTBitmap@@HH@Z 0040b270 f i animimage.obj
 0001:0000a2e0       ?GetInvImage@TAnimImagery@@UAEPAVTBitmap@@HH@Z 0040b2e0 f i animimage.obj
 0001:0000a350       ?GetInvAnimation@TAnimImagery@@UAEPAVTAnimation@@H@Z 0040b350 f i animimage.obj
 0001:0000a3c0       ?GetAnimation@TAnimImagery@@UAEPAVTAnimation@@H@Z 0040b3c0 f i animimage.obj
 0001:0000a430       ?GetImageFlags@TAnimImagery@@UAEKH@Z 0040b430 f i animimage.obj
 0001:0000a480       ?GetAniLength@TAnimImagery@@UAEHH@Z 0040b480 f i animimage.obj
 0001:0000a4c0       ?GetZ@TAnimImagery@@UAEHPAVTObjectInstance@@PAVTSurface@@@Z 0040b4c0 f   animimage.obj
 0001:0000a630       ?DrawSelected@TAnimImagery@@UAEXPAVTObjectInstance@@PAVTSurface@@@Z 0040b630 f   animimage.obj
 0001:0000a880       ?DrawInvItem@TAnimImagery@@UAEXPAVTObjectInstance@@HH@Z 0040b880 f   animimage.obj
 0001:0000a8f0       ?NeedsAnimator@TAnimImagery@@UAEHPAVTObjectInstance@@@Z 0040b8f0 f   animimage.obj
 0001:0000a970       ?NewObjectAnimator@TAnimImagery@@UAEPAVTObjectAnimator@@PAVTObjectInstance@@@Z 0040b970 f   animimage.obj
 0001:0000a9e0       ??0TAnimAnimator@@QAE@PAVTObjectInstance@@@Z 0040b9e0 f   animimage.obj
 0001:0000aa10       ??_ETAnimAnimator@@UAEPAXI@Z 0040ba10 f i animimage.obj
 0001:0000aa10       ??_GTAnimAnimator@@UAEPAXI@Z 0040ba10 f i animimage.obj
 0001:0000aa40       ?Animate@TAnimAnimator@@UAEXH@Z 0040ba40 f   animimage.obj
 0001:0000add0       ?Initialize@TObjectAnimator@@UAEXXZ 0040bdd0 f i animimage.obj
 0001:0000ade0       ?Close@TObjectAnimator@@UAEXXZ 0040bde0 f i animimage.obj
 0001:0000adf0       ??1TAnimAnimator@@UAE@XZ   0040bdf0 f   animimage.obj
 0001:0000aee0       ?AllocDecBuffer@TAnimSprite@@IAEXJ@Z 0040bee0 f   animsprite.obj
 0001:0000aef0       ?FreeDecBuffer@TAnimSprite@@IAEXXZ 0040bef0 f   animsprite.obj
 0001:0000af00       ?Draw@TAnimSprite@@IAEXPAVTSurface@@@Z 0040bf00 f   animsprite.obj
 0001:0000af10       ?Erase@TAnimSprite@@IAEXPAVTSurface@@@Z 0040bf10 f   animsprite.obj
 0001:0000af20       ?NextFrame@TAnimSprite@@IAEXXZ 0040bf20 f   animsprite.obj
 0001:0000af30       ?Move@TAnimSprite@@IAEXHH@Z 0040bf30 f   animsprite.obj
 0001:0000af40       ?Goto@TAnimSprite@@IAEXHH@Z 0040bf40 f   animsprite.obj
 0001:0000af50       ?SizeMove@TAnimSprite@@IAEXHH@Z 0040bf50 f   animsprite.obj
 0001:0000af60       ?SizeGoto@TAnimSprite@@IAEXHH@Z 0040bf60 f   animsprite.obj
 0001:0000af70       ?Done@TAnimSprite@@IAEHXZ  0040bf70 f   animsprite.obj
 0001:0000afe0       ?Build@TArmorBuilder@@UAEPAVTObjectInstance@@PAVSObjectDef@@PAVTObjectImagery@@@Z 0040bfe0 f i armor.obj
 0001:0000b070       ??_ETArmor@@UAEPAXI@Z      0040c070 f i armor.obj
 0001:0000b070       ??_GTArmor@@UAEPAXI@Z      0040c070 f i armor.obj
 0001:0000b0a0       ??1TArmor@@UAE@XZ          0040c0a0 f i armor.obj
 0001:0000b0c0       ?Build@TArmorBuilder@@UAEPAVTObjectInstance@@PAVTObjectImagery@@@Z 0040c0c0 f i armor.obj
 0001:0000b140       ?SetAmount@TObjectInstance@@UAEXH@Z 0040c140 f i armor.obj
 0001:0000b150       ?GetAmount@TObjectInstance@@UAEHXZ 0040c150 f i armor.obj
 0001:0000b160       ?GetScreenRect@TObjectInstance@@UAEXAAUSRect@@@Z 0040c160 f i armor.obj
 0001:0000b1a0       ?DrawUnlit@TObjectInstance@@UAEXPAVTSurface@@@Z 0040c1a0 f i armor.obj
 0001:0000b1d0       ?DrawInvItem@TObjectInstance@@UAEXHH@Z 0040c1d0 f i armor.obj
 0001:0000b210       ?GetStillImage@TObjectInstance@@UAEPAVTBitmap@@H@Z 0040c210 f i armor.obj
 0001:0000b280       ?InventoryImage@TObjectInstance@@UAEPAVTBitmap@@XZ 0040c280 f i armor.obj
 0001:0000b2d0       ?Initialize@TAutoMap@@UAEHXZ 0040c2d0 f   automap.obj
 0001:0000b3d0       ?Close@TAutoMap@@UAEXXZ    0040c3d0 f   automap.obj
 0001:0000b420       ?DrawBackground@TAutoMap@@UAEXXZ 0040c420 f   automap.obj
 0001:0000b8d0       ?DrawPlayerMarker@TAutoMap@@IAEXHH@Z 0040c8d0 f   automap.obj
 0001:0000b940       ?RestorePlayerMarker@TAutoMap@@IAEXXZ 0040c940 f   automap.obj
 0001:0000b990       ?DrawAutoMap@TAutoMap@@IAEXXZ 0040c990 f   automap.obj
 0001:0000d3f0       ?LoadMapGraphics@TAutoMap@@QAEHH@Z 0040e3f0 f   automap.obj
 0001:0000d640       ?FreeMapGraphics@TAutoMap@@QAEXXZ 0040e640 f   automap.obj
 0001:0000d690       ?RecordTravels@TAutoMap@@QAEXXZ 0040e690 f   automap.obj
 0001:0000db50       ?CheckMaps@TAutoMap@@IAEXXZ 0040eb50 f   automap.obj
 0001:0000dd20       ?GetMapNumber@TAutoMap@@QAEHPAD@Z 0040ed20 f   automap.obj
 0001:0000dd80       ?GetMaskColorActive@TAutoMap@@QAEHHH@Z 0040ed80 f   automap.obj
 0001:0000ddd0       ?GetMaskColorActive@TAutoMap@@QAEHPADH@Z 0040edd0 f   automap.obj
 0001:0000de00       ?SetMaskColorActive@TAutoMap@@QAEXHHE@Z 0040ee00 f   automap.obj
 0001:0000de90       ?SetMaskColorActive@TAutoMap@@QAEXPADHE@Z 0040ee90 f   automap.obj
 0001:0000dec0       ?MouseClick@TAutoMap@@UAEXHHH@Z 0040eec0 f   automap.obj
 0001:0000dfb0       ?MouseMove@TAutoMap@@UAEXHHH@Z 0040efb0 f   automap.obj
 0001:0000e0e0       ?WriteAutoMapData@TAutoMap@@QAEIPAU_iobuf@@@Z 0040f0e0 f   automap.obj
 0001:0000e240       ?ReadAutoMapData@TAutoMap@@QAEIPAU_iobuf@@@Z 0040f240 f   automap.obj
 0001:0000e3c0       ?GetPlayerOnAutoMap@TAutoMap@@IAEXAAH0@Z 0040f3c0 f   automap.obj
 0001:0000e450       ?NewBitmap@TBitmap@@SIPAV1@HHHH@Z 0040f450 f   bitmap.obj
 0001:0000e7e0       ?Load@TBitmap@@SIPAV1@H@Z  0040f7e0 f   bitmap.obj
 0001:0000e810       ?WriteText@TBitmap@@QAEXPADHHHPAVTFont@@PAUSColor@@K@Z 0040f810 f   bitmap.obj
 0001:0000e9c0       ?Decompress@TBitmap@@QAEHPAV1@@Z 0040f9c0 f   bitmap.obj
 0001:0000e9e0       ?Decompress@TBitmap@@QAEHPAXHH@Z 0040f9e0 f   bitmap.obj
 0001:0000ea00       ?Clear@TBitmap@@QAEHAAUSColor@@KG@Z 0040fa00 f   bitmap.obj
 0001:0000ed60       ?Put@TBitmap@@QAEHHHPAV1@HHHHHH@Z 0040fd60 f   bitmap.obj
 0001:0000f0d0       ?Put@TBitmap@@QAEHHHPAVTSurface@@HHHHHH@Z 004100d0 f   bitmap.obj
 0001:0000f320       ?SaveBMP@TBitmap@@QAEHPAD@Z 00410320 f   bitmap.obj
 0001:0000f5c0       ?OnPixel@TBitmap@@QAEHHH@Z 004105c0 f   bitmap.obj
 0001:0000f680       ?Line@TBitmap@@QAEHHHHHAAUSColor@@@Z 00410680 f   bitmap.obj
 0001:0000f880       ?Box@TBitmap@@QAEHHHHHAAUSColor@@@Z 00410880 f   bitmap.obj
 0001:0000f920       ?TranslateColor@@YIGAAUSColor@@@Z 00410920 f   bitmap.obj
 0001:0000fa00       ??0TBitmapSurface@@QAE@XZ  00410a00 f   bmsurface.obj
 0001:0000fa20       ??_ETBitmapSurface@@UAEPAXI@Z 00410a20 f i bmsurface.obj
 0001:0000fa20       ??_GTBitmapSurface@@UAEPAXI@Z 00410a20 f i bmsurface.obj
 0001:0000fa50       ??1TBitmapSurface@@UAE@XZ  00410a50 f   bmsurface.obj
 0001:0000fad0       ?Initialize@TBitmapSurface@@QAEXHHH@Z 00410ad0 f   bmsurface.obj
 0001:0000fbc0       ?SurfaceType@TBitmapSurface@@UAEHXZ 00410bc0 f i bmsurface.obj
 0001:0000fbd0       ?Lock@TBitmapSurface@@UAEPAXXZ 00410bd0 f i bmsurface.obj
 0001:0000fbf0       ?Unlock@TBitmapSurface@@UAEHXZ 00410bf0 f i bmsurface.obj
 0001:0000fc00       ?Lost@TBitmapSurface@@UAEHXZ 00410c00 f i bmsurface.obj
 0001:0000fc10       ?Initialize@TBitmapSurface@@QAEXPAVTBitmap@@@Z 00410c10 f   bmsurface.obj
 0001:0000fd00       ?GetDDSurface@TSurface@@UAEPAUIDirectDrawSurface@@XZ 00410d00 f i bmsurface.obj
 0001:0000fd10       ?Rect@TBitmapSurface@@UAEHHHHHAAUSColor@@@Z 00410d10 f   bmsurface.obj
 0001:0000fd30       ?Rect@TBitmapSurface@@UAEHUSRect@@AAUSColor@@@Z 00410d30 f   bmsurface.obj
 0001:0000fd50       ?Box@TBitmapSurface@@UAEHHHHHAAUSColor@@@Z 00410d50 f   bmsurface.obj
 0001:0000fd70       ?Line@TBitmapSurface@@UAEHHHHHAAUSColor@@@Z 00410d70 f   bmsurface.obj
 0001:0000fd90       ?Copy@TBitmapSurface@@UAEHPAVTBitmap@@@Z 00410d90 f   bmsurface.obj
 0001:0000fdb0       ?BlitPrimary@TBitmapSurface@@UAEHPAUSDrawParam@@PAVTSurface@@H@Z 00410db0 f   bmsurface.obj
 0001:0000fdd0       ??0CBox@@QAE@PADH@Z        00410dd0 f   Box.obj
 0001:00010190       ??1CBox@@QAE@XZ            00411190 f   Box.obj
 0001:00010200       ?UpdateBoxNow@CBox@@QAEHXZ 00411200 f   Box.obj
 0001:000103d0       ?GetFileDirEntry@CBox@@IAEJPAD@Z 004113d0 f   Box.obj
 0001:000104d0       ?ReadFile@CBox@@QAEPAXPADPAXPAJ@Z 004114d0 f   Box.obj
 0001:00010710       ?AddFile@CBox@@QAEHPADPAXJH@Z 00411710 f   Box.obj
 0001:00011030       ?BeginFileOutput@CBox@@QAEHXZ 00412030 f   Box.obj
 0001:00011090       ?WriteFileOutput@CBox@@QAEJPAXJ@Z 00412090 f   Box.obj
 0001:00011100       ?EndFileOutput@CBox@@QAEHPAD@Z 00412100 f   Box.obj
 0001:00011620       ?GetFileHandle@CBox@@QAEHPAD@Z 00412620 f   Box.obj
 0001:00011680       ?GetFileSize@CBox@@QAEJPAD@Z 00412680 f   Box.obj
 0001:000116c0       ?CalcCheckSum@CBox@@IAEJPAEJ@Z 004126c0 f   Box.obj
 0001:00011710       ?GetCRC@CBox@@IAEKPAEJ@Z   00412710 f   Box.obj
 0001:000117c0       ?InitCRCTable@CBox@@IAEXXZ 004127c0 f   Box.obj
 0001:00011860       ?DrawFrame@@YIXPAVTSurface@@HHHHH@Z 00412860 f   button.obj
 0001:00011a30       ??0TButton@@QAE@PADHHHHGP6IXXZPAVTBitmap@@2HHHHH@Z 00412a30 f   button.obj
 0001:00011bc0       ?Draw@TButton@@UAEXXZ      00412bc0 f   button.obj
 0001:00011db0       ?Animate@TButton@@QAEXH@Z  00412db0 f   button.obj
 0001:00011e20       ?OnButton@TButton@@QAEHHH@Z 00412e20 f   button.obj
 0001:00011fb0       ?Initialize@TButtonPane@@UAEHXZ 00412fb0 f   button.obj
 0001:00011ff0       ?Close@TButtonPane@@UAEXXZ 00412ff0 f   button.obj
 0001:000120c0       ?DrawBackground@TButtonPane@@UAEXXZ 004130c0 f   button.obj
 0001:00012150       ?Animate@TButtonPane@@UAEXH@Z 00413150 f   button.obj
 0001:000121c0       ?RedrawButtons@TButtonPane@@QAEXXZ 004131c0 f   button.obj
 0001:00012230       ?KeyPress@TButtonPane@@UAEXHH@Z 00413230 f   button.obj
 0001:000126d0       ?MouseClick@TButtonPane@@UAEXHHH@Z 004136d0 f   button.obj
 0001:000129d0       ?MouseMove@TButtonPane@@UAEXHHH@Z 004139d0 f   button.obj
 0001:00012b10       ?NewButton@TButtonPane@@QAEHPAVTButton@@@Z 00413b10 f   button.obj
 0001:00012be0       ?ClearGroup@TButtonPane@@QAEXH@Z 00413be0 f   button.obj
 0001:00012c80       ?CheckGroup@TButtonPane@@QAEXH@Z 00413c80 f   button.obj
 0001:00012da0       ?ClearChar@TCharacter@@QAEXXZ 00413da0 f   character.obj
 0001:00012df0       ?Pulse@TCharacter@@UAEXXZ  00413df0 f   character.obj
 0001:00012f80       ?UpdateAction@TCharacter@@MAEXH@Z 00413f80 f   character.obj
 0001:000131e0       ?ResolveAction@TCharacter@@MAEHH@Z 004141e0 f   character.obj
 0001:000135e0       ?Build@TCharacterBuilder@@UAEPAVTObjectInstance@@PAVSObjectDef@@PAVTObjectImagery@@@Z 004145e0 f i character.obj
 0001:00013690       ??_ETCharacter@@UAEPAXI@Z  00414690 f i character.obj
 0001:00013690       ??_GTCharacter@@UAEPAXI@Z  00414690 f i character.obj
 0001:000136c0       ??1TCharacter@@UAE@XZ      004146c0 f i character.obj
 0001:000136e0       ??1TComplexObject@@UAE@XZ  004146e0 f i character.obj
 0001:00013700       ??_ETComplexObject@@UAEPAXI@Z 00414700 f i character.obj
 0001:00013700       ??_GTComplexObject@@UAEPAXI@Z 00414700 f i character.obj
 0001:00013730       ?DrawShadow@TCharacter@@UAEHXZ 00414730 f i character.obj
 0001:00013740       ?DefaultRootState@TCharacter@@UAEPADXZ 00414740 f i character.obj
 0001:00013890       ?DefaultRootState@TComplexObject@@MAEPADXZ 00414890 f i character.obj
 0001:000138a0       ?IsAggressive@TCharacter@@UAEHXZ 004148a0 f i character.obj
 0001:000139b0       ?IsDead@TCharacter@@UAEHXZ 004149b0 f i character.obj
 0001:000139d0       ?Radius@TCharacter@@UAEHXZ 004149d0 f i character.obj
 0001:00013ae0       ?SwingRange@TCharacter@@UAEHXZ 00414ae0 f i character.obj
 0001:00013bf0       ?ThrustRange@TCharacter@@UAEHXZ 00414bf0 f i character.obj
 0001:00013d00       ?GetPoisonDamage@TCharacter@@UAEHXZ 00414d00 f i character.obj
 0001:00013e10       ?Build@TCharacterBuilder@@UAEPAVTObjectInstance@@PAVTObjectImagery@@@Z 00414e10 f i character.obj
 0001:00013ec0       ?Animate@TCharacter@@UAEXH@Z 00414ec0 f   character.obj
 0001:00014070       ?Move@TCharacter@@UAEKXZ   00415070 f   character.obj
 0001:000148f0       ?Damage@TCharacter@@UAEXHH@Z 004158f0 f   character.obj
 0001:00014a00       ?GetResistance@TCharacter@@UAEHH@Z 00415a00 f   character.obj
 0001:00014b20       ?RestoreHealth@TCharacter@@QAEXXZ 00415b20 f   character.obj
 0001:00014b50       ?ForceCommand@TCharacter@@MAEHPAVTActionBlock@@H@Z 00415b50 f   character.obj
 0001:00014bd0       ?Advance@TCharacter@@IAEXHHH@Z 00415bd0 f   character.obj
 0001:00014e20       ?UpdateAngle@TCharacter@@IAEHH@Z 00415e20 f   character.obj
 0001:000150f0       ?ResolveWalk@TCharacter@@MAEHPAVTActionBlock@@H@Z 004160f0 f   character.obj
 0001:000152c0       ?ResolveAttack@TCharacter@@MAEHPAVTActionBlock@@H@Z 004162c0 f   character.obj
 0001:00015730       ?ResolveImpact@TCharacter@@MAEHPAVTActionBlock@@H@Z 00416730 f   character.obj
 0001:000158c0       ?ResolveCombat@TCharacter@@MAEHPAVTActionBlock@@H@Z 004168c0 f   character.obj
 0001:00015930       ?ResolveCombatWalk@TCharacter@@MAEHPAVTActionBlock@@H@Z 00416930 f   character.obj
 0001:00015970       ?ResolveCharge@TCharacter@@IAEHPAVTActionBlock@@H@Z 00416970 f   character.obj
 0001:000159a0       ?ResolveSay@TCharacter@@MAEHPAVTActionBlock@@H@Z 004169a0 f   character.obj
 0001:00015a00       ?TalismanStat@@YIHHPAD@Z   00416a00 f   character.obj
 0001:00015a80       ?ResolveInvoke@TCharacter@@MAEHPAVTActionBlock@@H@Z 00416a80 f   character.obj
 0001:00015d90       ?IsFighting@TCharacter@@UAEHXZ 00416d90 f   character.obj
 0001:00015de0       ?AI@TCharacter@@UAEXXZ     00416de0 f   character.obj
 0001:00016000       ?SignalMovement@TCharacter@@UAEXPAVTObjectInstance@@@Z 00417000 f   character.obj
 0001:00016010       ?SignalHostility@TCharacter@@UAEXPAVTObjectInstance@@0@Z 00417010 f   character.obj
 0001:000161d0       ?SignalAttack@TCharacter@@UAEXPAVTObjectInstance@@0@Z 004171d0 f   character.obj
 0001:000162f0       ?Go@TCharacter@@QAEXH@Z    004172f0 f   character.obj
 0001:000165c0       ?Go@TCharacter@@QAEXUS3DPoint@@@Z 004175c0 f   character.obj
 0001:00016650       ?Goto@TCharacter@@QAEXHH@Z 00417650 f   character.obj
 0001:00016700       ?Stop@TCharacter@@QAEXPAD@Z 00417700 f   character.obj
 0001:00016750       ?FollowChar@TCharacter@@QAEXPAVTObjectInstance@@@Z 00417750 f   character.obj
 0001:00016760       ?Pickup@TCharacter@@QAEXPAVTObjectInstance@@@Z 00417760 f   character.obj
 0001:000167c0       ?Say@TCharacter@@QAEXPAD@Z 004177c0 f   character.obj
 0001:00016880       ?Swing@TCharacter@@QAEXXZ  00417880 f   character.obj
 0001:00016910       ?Thrust@TCharacter@@QAEXXZ 00417910 f   character.obj
 0001:000169a0       ?Block@TCharacter@@QAEXXZ  004179a0 f   character.obj
 0001:00016a60       ?Charge@TCharacter@@QAEXH@Z 00417a60 f   character.obj
 0001:00016c70       ?Dodge@TCharacter@@QAEXXZ  00417c70 f   character.obj
 0001:00016d30       ?Invoke@TCharacter@@QAEXPAHH@Z 00417d30 f   character.obj
 0001:00016e40       ?BeginCombat@TCharacter@@QAEXPAVTObjectInstance@@@Z 00417e40 f   character.obj
 0001:00016ec0       ?EndCombat@TCharacter@@QAEXXZ 00417ec0 f   character.obj
 0001:00016f40       ?Wait@TCharacter@@QAEXH@Z  00417f40 f   character.obj
 0001:00016f50       ?PlayAnim@TCharacter@@QAEXPAD@Z 00417f50 f   character.obj
 0001:00016f60       ?CursorType@TCharacter@@UAEHPAVTObjectInstance@@@Z 00417f60 f   character.obj
 0001:00016fc0       ?Use@TCharacter@@UAEHPAVTObjectInstance@@H@Z 00417fc0 f   character.obj
 0001:00017170       ?CharBlocking@TCharacter@@SIHPAVTObjectInstance@@AAUS3DPoint@@H@Z 00418170 f   character.obj
 0001:00017260       ??0S3DPoint@@QAE@AAU0@@Z   00418260 f i character.obj
 0001:000172c0       ?Build@TCharAnimatorBuilder@@UAEPAVT3DAnimator@@PAVTObjectInstance@@@Z 004182c0 f i character.obj
 0001:00017360       ?Build@TPlayerAnimatorBuilder@@UAEPAVT3DAnimator@@PAVTObjectInstance@@@Z 00418360 f i character.obj
 0001:000173e0       ??_ETPlayerAnimator@@UAEPAXI@Z 004183e0 f i character.obj
 0001:000173e0       ??_GTPlayerAnimator@@UAEPAXI@Z 004183e0 f i character.obj
 0001:00017410       ??1TPlayerAnimator@@UAE@XZ 00418410 f i character.obj
 0001:00017470       ??0TCharAnimator@@QAE@PAVTObjectInstance@@@Z 00418470 f   character.obj
 0001:000175b0       ??_ETCharAnimator@@UAEPAXI@Z 004185b0 f i character.obj
 0001:000175b0       ??_GTCharAnimator@@UAEPAXI@Z 004185b0 f i character.obj
 0001:000175e0       ??1TCharAnimator@@UAE@XZ   004185e0 f   character.obj
 0001:00017710       ?Animate@TCharAnimator@@UAEXH@Z 00418710 f   character.obj
 0001:00017730       ?Render@TCharAnimator@@UAEHXZ 00418730 f   character.obj
 0001:000178b0       ??0TChunkCache@@QAE@XZ     004188b0 f   chunkcache.obj
 0001:00017920       ?AllocCache@TChunkCache@@QAEXH@Z 00418920 f   chunkcache.obj
 0001:00017ac0       ?MemUsed@TChunkCache@@QAEKXZ 00418ac0 f   chunkcache.obj
 0001:00017ae0       ?AddChunk@TChunkCache@@QAEPAXPAXK@Z 00418ae0 f   chunkcache.obj
 0001:00017c40       ?AddChunkZ@TChunkCache@@QAEPAXPAXK@Z 00418c40 f   chunkcache.obj
 0001:00017da0       ?AddChunk16@TChunkCache@@QAEPAXPAXK@Z 00418da0 f   chunkcache.obj
 0001:00017f00       ?RemoveChunk@TChunkCache@@QAEHH@Z 00418f00 f   chunkcache.obj
 0001:00017fb0       ?RemoveChunk16@TChunkCache@@QAEHH@Z 00418fb0 f   chunkcache.obj
 0001:00018060       ?ChunkDecompress@TChunkCache@@QAEHPAX0K@Z 00419060 f   chunkcache.obj
 0001:000181c0       ?ChunkDecompressZ@TChunkCache@@QAEHPAX0K@Z 004191c0 f   chunkcache.obj
 0001:000182f0       ?ChunkDecompress16@TChunkCache@@QAEHPAX0K@Z 004192f0 f   chunkcache.obj
 0001:00018340       ??1TChunkCache@@QAE@XZ     00419340 f   chunkcache.obj
 0001:00018450       ?Round@@YIHN@Z             00419450 f   colortable.obj
 0001:00018490       ?SetAmbientColor@@YIXAAUSColor@@@Z 00419490 f   colortable.obj
 0001:00018510       ?GetAmbientColor@@YIXAAUSColor@@@Z 00419510 f   colortable.obj
 0001:00018540       ?SetMonoPercent@@YIXH@Z    00419540 f   colortable.obj
 0001:00018cc0       ?GetMonoPercent@@YIHXZ     00419cc0 f   colortable.obj
 0001:00018ce0       ?NewLightIndex@@YIHAAUSColor@@H@Z 00419ce0 f   colortable.obj
 0001:00018f30       ?FreeLightIndex@@YIXH@Z    00419f30 f   colortable.obj
 0001:00018f60       ?ClearLights@@YIXXZ        00419f60 f   colortable.obj
 0001:00018f90       ?SetLightColor@@YIXHAAUSColor@@H@Z 00419f90 f   colortable.obj
 0001:00019550       ?GetLightColor@@YIXHAAUSColor@@AAH@Z 0041a550 f   colortable.obj
 0001:000195a0       ?MakeColorTables@@YIXXZ    0041a5a0 f   colortable.obj
 0001:00019e80       ?CommandInterpreter@@YIHPAVTObjectInstance@@AAVTToken@@H@Z 0041ae80 f   command.obj
 0001:0001a220       ?CheckOneContext@@YIHPAVTObjectInstance@@H@Z 0041b220 f i command.obj
 0001:0001a270       ?Output@@YIXPAD@Z          0041b270 f   command.obj
 0001:0001a2b0       ?CmdHelp@@YIHPAVTObjectInstance@@AAVTToken@@@Z 0041b2b0 f   command.obj
 0001:0001a480       ?CmdSay@@YIHPAVTObjectInstance@@AAVTToken@@@Z 0041b480 f   command.obj
 0001:0001a500       ?CmdGoto@@YIHPAVTObjectInstance@@AAVTToken@@@Z 0041b500 f   command.obj
 0001:0001a550       ?CmdFace@@YIHPAVTObjectInstance@@AAVTToken@@@Z 0041b550 f   command.obj
 0001:0001a5a0       ?CmdUse@@YIHPAVTObjectInstance@@AAVTToken@@@Z 0041b5a0 f   command.obj
 0001:0001a610       ?CmdAttack@@YIHPAVTObjectInstance@@AAVTToken@@@Z 0041b610 f   command.obj
 0001:0001a630       ?CmdBlock@@YIHPAVTObjectInstance@@AAVTToken@@@Z 0041b630 f   command.obj
 0001:0001a650       ?CmdInvoke@@YIHPAVTObjectInstance@@AAVTToken@@@Z 0041b650 f   command.obj
 0001:0001a680       ?CmdStop@@YIHPAVTObjectInstance@@AAVTToken@@@Z 0041b680 f   command.obj
 0001:0001a6a0       ?ApplyOperation@@YIHAAHHH@Z 0041b6a0 f   command.obj
 0001:0001a830       ?FindElement@@YIHPADQAPAD@Z 0041b830 f   command.obj
 0001:0001a890       ?StringVal@@YIHPAD@Z       0041b890 f   command.obj
 0001:0001a8f0       ?ParseExpression@@YIHAAVTToken@@PAH@Z 0041b8f0 f   command.obj
 0001:0001ab00       ?CmdBegin@@YIHPAVTObjectInstance@@AAVTToken@@@Z 0041bb00 f   command.obj
 0001:0001ab20       ?CmdEnd@@YIHPAVTObjectInstance@@AAVTToken@@@Z 0041bb20 f   command.obj
 0001:0001ab40       ?CmdIf@@YIHPAVTObjectInstance@@AAVTToken@@@Z 0041bb40 f   command.obj
 0001:0001ab80       ?CmdElse@@YIHPAVTObjectInstance@@AAVTToken@@@Z 0041bb80 f   command.obj
 0001:0001aba0       ?CmdWhile@@YIHPAVTObjectInstance@@AAVTToken@@@Z 0041bba0 f   command.obj
 0001:0001abe0       ?CmdSet@@YIHPAVTObjectInstance@@AAVTToken@@@Z 0041bbe0 f   command.obj
 0001:0001aca0       ?CmdWait@@YIHPAVTObjectInstance@@AAVTToken@@@Z 0041bca0 f   command.obj
 0001:0001ad90       ?CmdJump@@YIHPAVTObjectInstance@@AAVTToken@@@Z 0041bd90 f   command.obj
 0001:0001ade0       ?ClearComplexObj@TComplexObject@@QAEXXZ 0041bde0 f   complexobj.obj
 0001:0001ae30       ?Pulse@TComplexObject@@UAEXXZ 0041be30 f   complexobj.obj
 0001:0001af20       ?UpdateAction@TComplexObject@@MAEXH@Z 0041bf20 f   complexobj.obj
 0001:0001b030       ?ResolveAction@TComplexObject@@MAEHH@Z 0041c030 f   complexobj.obj
 0001:0001b060       ?SetDoing@TComplexObject@@MAEXPAVTActionBlock@@@Z 0041c060 f   complexobj.obj
 0001:0001b130       ?SetDesired@TComplexObject@@MAEXPAVTActionBlock@@@Z 0041c130 f   complexobj.obj
 0001:0001b200       ?TryCommand@TComplexObject@@MAEHPAVTActionBlock@@H@Z 0041c200 f   complexobj.obj
 0001:0001b4d0       ?ForceCommand@TComplexObject@@MAEHPAVTActionBlock@@H@Z 0041c4d0 f   complexobj.obj
 0001:0001b5b0       ?Use@TContainer@@UAEHPAVTObjectInstance@@H@Z 0041c5b0 f   container.obj
 0001:0001bb70       ?Build@TContainerBuilder@@UAEPAVTObjectInstance@@PAVSObjectDef@@PAVTObjectImagery@@@Z 0041cb70 f i container.obj
 0001:0001bc20       ??_ETContainer@@UAEPAXI@Z  0041cc20 f i container.obj
 0001:0001bc20       ??_GTContainer@@UAEPAXI@Z  0041cc20 f i container.obj
 0001:0001bc50       ??1TContainer@@UAE@XZ      0041cc50 f i container.obj
 0001:0001bc70       ?Build@TContainerBuilder@@UAEPAVTObjectInstance@@PAVTObjectImagery@@@Z 0041cc70 f i container.obj
 0001:0001bd20       ?CursorType@TContainer@@UAEHPAVTObjectInstance@@@Z 0041cd20 f   container.obj
 0001:0001bf50       ?NumObjects@TContainer@@QAEHXZ 0041cf50 f   container.obj
 0001:0001bfd0       ?Load@TContainer@@UAEXAAVTInputStream@@H@Z 0041cfd0 f   container.obj
 0001:0001c040       ?Save@TContainer@@UAEXAAVTOutputStream@@@Z 0041d040 f   container.obj
 0001:0001c0b0       ?GetName@TContainer@@UAEPADXZ 0041d0b0 f   container.obj
 0001:0001c170       ?CheckKeyUse@TContainer@@QAEHPAVTObjectInstance@@0@Z 0041d170 f   container.obj
 0001:0001c3d0       ?Build@TVialRackBuilder@@UAEPAVTObjectInstance@@PAVSObjectDef@@PAVTObjectImagery@@@Z 0041d3d0 f i container.obj
 0001:0001c490       ??_GTVialRack@@UAEPAXI@Z   0041d490 f i container.obj
 0001:0001c490       ??_ETVialRack@@UAEPAXI@Z   0041d490 f i container.obj
 0001:0001c4c0       ??1TVialRack@@UAE@XZ       0041d4c0 f i container.obj
 0001:0001c4e0       ?Build@TVialRackBuilder@@UAEPAVTObjectInstance@@PAVTObjectImagery@@@Z 0041d4e0 f i container.obj
 0001:0001c590       ?Use@TVialRack@@UAEHPAVTObjectInstance@@H@Z 0041d590 f   container.obj
 0001:0001c770       ?GetStatistic@TObjectClass@@QAEPAUSStatistic@@HPAD@Z 0041d770 f i container.obj
 0001:0001c7e0       ?CursorType@TVialRack@@UAEHPAVTObjectInstance@@@Z 0041d7e0 f   container.obj
 0001:0001c830       ?GetStatistic@TObjectInstance@@QAEPAUSStatistic@@PAD@Z 0041d830 f i container.obj
 0001:0001c920       ?SetMouseBitmap@@YIXPAVTBitmap@@@Z 0041d920 f   cursor.obj
 0001:0001c990       ?SetMouseShadow@@YIXPAVTBitmap@@HH@Z 0041d990 f   cursor.obj
 0001:0001c9c0       ?SetMouseCornerBitmap@@YIXPAVTBitmap@@H@Z 0041d9c0 f   cursor.obj
 0001:0001c9f0       ?SetMouseCornerBitmap@@YIXHH@Z 0041d9f0 f   cursor.obj
 0001:0001ca50       ?SetDragBitmap@@YIXPAVTBitmap@@HH@Z 0041da50 f   cursor.obj
 0001:0001ca80       ?ClearDragBitmap@@YIXXZ    0041da80 f   cursor.obj
 0001:0001ca90       ?SetDragObj@@YIXPAVTObjectInstance@@@Z 0041da90 f   cursor.obj
 0001:0001cab0       ?GetDragObj@@YIPAVTObjectInstance@@XZ 0041dab0 f   cursor.obj
 0001:0001cac0       ?DrawMouseShadow@@YIXHHHH@Z 0041dac0 f   cursor.obj
 0001:0001cb30       ?DrawMouseCursor@@YIXXZ    0041db30 f   cursor.obj
 0001:0001cc10       ?DrawMouseShadow@@YIXXZ    0041dc10 f   cursor.obj
 0001:0001cd70       ?CursorOverObject@@YIXPAVTObjectInstance@@H@Z 0041dd70 f   cursor.obj
 0001:0001cdc0       ?RestrictCursor@@YIXXZ     0041ddc0 f   cursor.obj
 0001:0001ce50       ?ReleaseCursor@@YIXXZ      0041de50 f   cursor.obj
 0001:0001ce80       ?D3DVECTORNormalise@@YIPAU_D3DVECTOR@@PAU1@@Z 0041de80 f   d3dmath.obj
 0001:0001cf30       ?D3DVECTORCrossProduct@@YIPAU_D3DVECTOR@@PAU1@00@Z 0041df30 f   d3dmath.obj
 0001:0001cfa0       ?D3DMATRIXClear@@YIPAU_D3DMATRIX@@PAU1@@Z 0041dfa0 f   d3dmath.obj
 0001:0001cfd0       ?MultiplyD3DMATRIX@@YIPAU_D3DMATRIX@@PAU1@00@Z 0041dfd0 f   d3dmath.obj
 0001:0001d0c0       ?D3DMATRIXTransform@@YIXPAU_D3DMATRIX@@PAU_D3DVECTOR@@1@Z 0041e0c0 f   d3dmath.obj
 0001:0001d170       ?D3DMATRIXInvert@@YIPAU_D3DMATRIX@@PAU1@0@Z 0041e170 f   d3dmath.obj
 0001:0001d250       ?D3DMATRIXSetRotation@@YIPAU_D3DMATRIX@@PAU1@PAU_D3DVECTOR@@1@Z 0041e250 f   d3dmath.obj
 0001:0001d350       ?D3DMATRIXTranslate@@YIPAU_D3DMATRIX@@PAU1@PAU_D3DVECTOR@@@Z 0041e350 f   d3dmath.obj
 0001:0001d3a0       ?D3DMATRIXMove@@YIPAU_D3DMATRIX@@PAU1@PAU_D3DVECTOR@@@Z 0041e3a0 f   d3dmath.obj
 0001:0001d400       ?D3DMATRIXScale@@YIPAU_D3DMATRIX@@PAU1@PAU_D3DVECTOR@@@Z 0041e400 f   d3dmath.obj
 0001:0001d450       ?D3DMATRIXRotateX@@YIPAU_D3DMATRIX@@PAU1@M@Z 0041e450 f   d3dmath.obj
 0001:0001d4d0       ?D3DMATRIXRotateY@@YIPAU_D3DMATRIX@@PAU1@M@Z 0041e4d0 f   d3dmath.obj
 0001:0001d550       ?D3DMATRIXRotateZ@@YIPAU_D3DMATRIX@@PAU1@M@Z 0041e550 f   d3dmath.obj
 0001:0001d5d0       ?spline@@YIXPAU_D3DVECTOR@@M0000@Z 0041e5d0 f   d3dmath.obj
 0001:0001d740       ??0TVideoSurface@@QAE@XZ   0041e740 f   ddsurface.obj
 0001:0001d770       ??_GTVideoSurface@@UAEPAXI@Z 0041e770 f i ddsurface.obj
 0001:0001d770       ??_ETVideoSurface@@UAEPAXI@Z 0041e770 f i ddsurface.obj
 0001:0001d7a0       ?Initialize@TVideoSurface@@QAEXHHH@Z 0041e7a0 f   ddsurface.obj
 0001:0001d980       ?SurfaceType@TVideoSurface@@UAEHXZ 0041e980 f i ddsurface.obj
 0001:0001d990       ?Initialize@TVideoSurface@@QAEXPAVTBitmap@@HH@Z 0041e990 f   ddsurface.obj
 0001:0001daa0       ?Initialize@TVideoSurface@@QAEXPAUIDirectDrawSurface@@@Z 0041eaa0 f   ddsurface.obj
 0001:0001dc10       ?Close@TVideoSurface@@QAEXXZ 0041ec10 f   ddsurface.obj
 0001:0001dc50       ??1TVideoSurface@@UAE@XZ   0041ec50 f   ddsurface.obj
 0001:0001dcb0       ?Restore@TVideoSurface@@UAEHXZ 0041ecb0 f   ddsurface.obj
 0001:0001dd20       ?Lock@TVideoSurface@@UAEPAXXZ 0041ed20 f   ddsurface.obj
 0001:0001de70       ?Unlock@TVideoSurface@@UAEHXZ 0041ee70 f   ddsurface.obj
 0001:0001df00       ?BlitHandler@TVideoSurface@@UAEHPAUSDrawParam@@PAVTSurface@@HPAU_DDBLTFX@@@Z 0041ef00 f   ddsurface.obj
 0001:0001e4c0       ?Box@TVideoSurface@@UAEHHHHHKGGK@Z 0041f4c0 f   ddsurface.obj
 0001:0001e990       ?DeathBtnRestart@@YIXXZ    0041f990 f   death.obj
 0001:0001e9d0       ?DeathBtnLoad@@YIXXZ       0041f9d0 f   death.obj
 0001:0001ea10       ?DeathBtnExit@@YIXXZ       0041fa10 f   death.obj
 0001:0001ea20       ?Initialize@TDeathPane@@UAEHXZ 0041fa20 f   death.obj
 0001:0001ebd0       ?Close@TPane@@UAEXXZ       0041fbd0 f i death.obj
 0001:0001ebe0       ?Close@TDeathPane@@UAEXXZ  0041fbe0 f   death.obj
 0001:0001ec60       ?DrawBackground@TDeathPane@@UAEXXZ 0041fc60 f   death.obj
 0001:0001ece0       ?SetBackgroundBuffer@TPane@@UAEXH@Z 0041fce0 f i death.obj
 0001:0001ed00       ?SetPos@TPane@@UAEXHH@Z    0041fd00 f i death.obj
 0001:0001ed20       ?Update@TButtonPane@@UAEXXZ 0041fd20 f i death.obj
 0001:0001ed40       ?Update@TPane@@UAEXXZ      0041fd40 f i death.obj
 0001:0001ed60       ?SetDirty@TPane@@UAEXH@Z   0041fd60 f i death.obj
 0001:0001ed80       ?Show@TPane@@UAEXXZ        0041fd80 f i death.obj
 0001:0001edb0       ?Hide@TPane@@UAEXXZ        0041fdb0 f i death.obj
 0001:0001edd0       ?SetIgnoreInput@TPane@@UAEXH@Z 0041fdd0 f i death.obj
 0001:0001edf0       ?IsHidden@TPane@@UAEHXZ    0041fdf0 f i death.obj
 0001:0001ee10       ?NewButton@TButtonPane@@QAEHPADHHHHGP6IXXZPAVTBitmap@@2HHHHH@Z 0041fe10 f i death.obj
 0001:0001eec0       ?IsIgnoringInput@TPane@@UAEHXZ 0041fec0 f i death.obj
 0001:0001eee0       ?DrawBackground@TPane@@UAEXXZ 0041fee0 f i death.obj
 0001:0001eef0       ?Animate@TPane@@UAEXH@Z    0041fef0 f i death.obj
 0001:0001ef00       ?Overlay@TPane@@UAEXH@Z    0041ff00 f i death.obj
 0001:0001ef10       ?MouseClick@TPane@@UAEXHHH@Z 0041ff10 f i death.obj
 0001:0001ef20       ?MouseMove@TPane@@UAEXHHH@Z 0041ff20 f i death.obj
 0001:0001ef30       ?KeyPress@TPane@@UAEXHH@Z  0041ff30 f i death.obj
 0001:0001ef40       ?CharPress@TPane@@UAEXHH@Z 0041ff40 f i death.obj
 0001:0001ef50       ?Joystick@TPane@@UAEXHHH@Z 0041ff50 f i death.obj
 0001:0001ef60       ?Command@TPane@@UAEXH@Z    0041ff60 f i death.obj
 0001:0001ef70       ?Decompress@@YIHPAUSDrawBlock@@PAUSDrawParam@@H@Z 0041ff70 f   decompress16.obj
 0001:0001f3f0       ?ClipDecompress@@YIHPAUSDrawBlock@@PAUSDrawParam@@H@Z 004203f0 f   decompress16.obj
 0001:0001fa80       ?AlphaDecompress@@YIHPAUSDrawBlock@@PAUSDrawParam@@@Z 00420a80 f   decompress16.obj
 0001:0001fff0       ?AlphaStaticZDecompress@@YIHPAUSDrawBlock@@PAUSDrawParam@@@Z 00420ff0 f   decompress16.obj
 0001:00020590       ?ZBufferDecompress@@YIHPAUSDrawBlock@@PAUSDrawParam@@@Z 00421590 f   decompress16.obj
 0001:00020a50       ?ClipZBufferDecompress@@YIHPAUSDrawBlock@@PAUSDrawParam@@@Z 00421a50 f   decompress16.obj
 0001:00021040       ?ZNormalDecompress@@YIHPAUSDrawBlock@@PAUSDrawParam@@@Z 00422040 f   decompress16.obj
 0001:000215b0       ?ZFindDecompress@@YIGPAUSDrawBlock@@PAUSDrawParam@@@Z 004225b0 f   decompress16.obj
 0001:00021960       ?ZBufferDecompress32@@YIHPAUSDrawBlock@@PAUSDrawParam@@@Z 00422960 f   decompress32.obj
 0001:00021e80       ?ClipZBufferDecompress32@@YIHPAUSDrawBlock@@PAUSDrawParam@@@Z 00422e80 f   decompress32.obj
 0001:000224c0       ?AlphaDecompress8@@YIHPAUSDrawBlock@@PAUSDrawParam@@PAK@Z 004234c0 f   decompress8.obj
 0001:00022a90       ?AlphaStaticZDecompress8@@YIHPAUSDrawBlock@@PAUSDrawParam@@PAK@Z 00423a90 f   decompress8.obj
 0001:000230a0       ?ZBufferDecompress8@@YIHPAUSDrawBlock@@PAUSDrawParam@@PAK@Z 004240a0 f   decompress8.obj
 0001:000235b0       ?ClipZBufferDecompress8@@YIHPAUSDrawBlock@@PAUSDrawParam@@PAK@Z 004245b0 f   decompress8.obj
 0001:00023bb0       ?ZBufferDecompress832@@YIHPAUSDrawBlock@@PAUSDrawParam@@PAK@Z 00424bb0 f   decompress832.obj
 0001:000240b0       ?ClipZBufferDecompress832@@YIHPAUSDrawBlock@@PAUSDrawParam@@PAK@Z 004250b0 f   decompress832.obj
 0001:00024720       ?Initialize@TDialogPane@@UAEHXZ 00425720 f   dialog.obj
 0001:000247e0       ?Close@TDialogPane@@UAEXXZ 004257e0 f   dialog.obj
 0001:00024860       ?DrawBackground@TDialogPane@@UAEXXZ 00425860 f   dialog.obj
 0001:00024980       ?Animate@TDialogPane@@UAEXH@Z 00425980 f   dialog.obj
 0001:00024990       ?KeyPress@TDialogPane@@UAEXHH@Z 00425990 f   dialog.obj
 0001:00024b00       ?MouseClick@TDialogPane@@UAEXHHH@Z 00425b00 f   dialog.obj
 0001:00024bc0       ?MouseMove@TDialogPane@@UAEXHHH@Z 00425bc0 f   dialog.obj
 0001:00024c30       ?OnSlot@TDialogPane@@IAEHHH@Z 00425c30 f   dialog.obj
 0001:00024cb0       ?AddChoice@TDialogPane@@QAEXPAD0@Z 00425cb0 f   dialog.obj
 0001:00024d70       ?ResetResponses@TDialogPane@@QAEXXZ 00425d70 f   dialog.obj
 0001:00024e30       ?Skip@TDialogPane@@QAEXXZ  00425e30 f   dialog.obj
 0001:00024eb0       ?CmdChoice@@YIHPAVTObjectInstance@@AAVTToken@@@Z 00425eb0 f   dialog.obj
 0001:00024f30       ?CmdShowTab@@YIHPAVTObjectInstance@@AAVTToken@@@Z 00425f30 f   dialog.obj
 0001:00024f50       ?CmdPayTab@@YIHPAVTObjectInstance@@AAVTToken@@@Z 00425f50 f   dialog.obj
 0001:00024fc0       ?InitDirectDraw@@YIHXZ     00425fc0 f   directdraw.obj
 0001:000252d0       ?InitD3DDevice@@YIHXZ      004262d0 f   directdraw.obj
 0001:000253c0       ?SetExclusiveMode@@YIHXZ   004263c0 f   directdraw.obj
 0001:00025420       ?SetNormalMode@@YIHXZ      00426420 f   directdraw.obj
 0001:00025470       ?CloseDirectDraw@@YIHXZ    00426470 f   directdraw.obj
 0001:000254f0       ?EnterVideoMode@@YIHHHH@Z  004264f0 f   directdraw.obj
 0001:00025550       ?Setup3D@@YIHHH@Z          00426550 f   directdraw.obj
 0001:000256e0       ?CloseScene@@YIXXZ         004266e0 f   directdraw.obj
 0001:000256f0       ?GetVideoMem@@YIKKH@Z      004266f0 f   directdraw.obj
 0001:000257a0       ?GetTotalVideoMem@@YIKXZ   004267a0 f   directdraw.obj
 0001:000257c0       ?GetFreeVideoMem@@YIKXZ    004267c0 f   directdraw.obj
 0001:000257e0       ?GetTotalLocalVideoMem@@YIKXZ 004267e0 f   directdraw.obj
 0001:00025800       ?GetFreeLocalVideoMem@@YIKXZ 00426800 f   directdraw.obj
 0001:00025820       ?GetTotalNonLocalVideoMem@@YIKXZ 00426820 f   directdraw.obj
 0001:00025840       ?GetFreeNonLocalVideoMem@@YIKXZ 00426840 f   directdraw.obj
 0001:00025860       ?GetTotalTextureMem@@YIKXZ 00426860 f   directdraw.obj
 0001:00025880       ?GetFreeTextureMem@@YIKXZ  00426880 f   directdraw.obj
 0001:000258a0       ?GetColorMode@@YIHXZ       004268a0 f   directdraw.obj
 0001:000258d0       ?IsUsingHardware@@YIHXZ    004268d0 f   directdraw.obj
 0001:000258e0       ?DDEnumCallback@@YGHPAU_GUID@@PAD1PAX@Z 004268e0 f   directdraw.obj
 0001:00025a60       ?DDEnumDisplayModesCallback@@YGJPAU_DDSURFACEDESC@@PAX@Z 00426a60 f   directdraw.obj
 0001:00025c10       ?D3DEnumDeviceCallBack@@YGJPAU_GUID@@PAD1PAU_D3DDeviceDesc@@2PAX@Z 00426c10 f   directdraw.obj
 0001:00025cd0       ?TraceErrorDD@@YIXJPADH@Z  00426cd0 f   directdraw.obj
 0001:00025da0       ?TraceErrorDI@@YIXJPADH@Z  00426da0 f   directinput.obj
 0001:00025e60       ?InitializeDirectInput@@YIHXZ 00426e60 f   directinput.obj
 0001:00025ec0       ?CloseDirectInput@@YIXXZ   00426ec0 f   directinput.obj
 0001:00025ef0       ?SetWordProperty@@YIJPAUIDirectInputDevice2A@@ABU_GUID@@KKK@Z 00426ef0 f   directinput.obj
 0001:00025f40       ?EnumJoystickFunc@@YGHPBUDIDEVICEINSTANCEA@@PAX@Z 00426f40 f   directinput.obj
 0001:000261e0       ?InitializeJoysticks@@YIHXZ 004271e0 f   directinput.obj
 0001:00026240       ?CloseJoysticks@@YIXXZ     00427240 f   directinput.obj
 0001:000262d0       ?NumJoysticks@@YIHXZ       004272d0 f   directinput.obj
 0001:000262e0       ?GetJoystickState@@YIXHPAK0@Z 004272e0 f   directinput.obj
 0001:000265b0       ??0TDisplay@@QAE@XZ        004275b0 f   display.obj
 0001:00026600       ??_GTDisplay@@UAEPAXI@Z    00427600 f i display.obj
 0001:00026600       ??_ETDisplay@@UAEPAXI@Z    00427600 f i display.obj
 0001:00026630       ?Initialize@TDisplay@@QAEHHHH@Z 00427630 f   display.obj
 0001:00026e30       ?SurfaceType@TDisplay@@UAEHXZ 00427e30 f i display.obj
 0001:00026e40       ?GetZBuffer@TDisplay@@UAEPAVTSurface@@XZ 00427e40 f i display.obj
 0001:00026e60       ?GetNormalBuffer@TDisplay@@UAEPAVTSurface@@XZ 00427e60 f i display.obj
 0001:00026e70       ?Close@TDisplay@@UAEHXZ    00427e70 f   display.obj
 0001:00026ee0       ??1TDisplay@@UAE@XZ        00427ee0 f   display.obj
 0001:00026f40       ?FlipPage@TDisplay@@QAEHH@Z 00427f40 f   display.obj
 0001:00027210       ?InitBackgroundSystem@TDisplay@@QAEHXZ 00428210 f   display.obj
 0001:00027370       ?CloseBackgroundSystem@TDisplay@@QAEHXZ 00428370 f   display.obj
 0001:000273a0       ?ClearBackgroundAreas@TDisplay@@QAEHXZ 004283a0 f   display.obj
 0001:00027490       ?CreateBackgroundArea@TDisplay@@QAEHHHHHHH@Z 00428490 f   display.obj
 0001:000276e0       ??_GTMultiSurface@@UAEPAXI@Z 004286e0 f i display.obj
 0001:000276e0       ??_ETMultiSurface@@UAEPAXI@Z 004286e0 f i display.obj
 0001:00027710       ?SurfaceType@TMultiSurface@@UAEHXZ 00428710 f i display.obj
 0001:00027720       ?GetGraphicsBuffer@TMultiSurface@@UAEPAVTSurface@@XZ 00428720 f i display.obj
 0001:00027740       ?GetZBuffer@TMultiSurface@@UAEPAVTSurface@@XZ 00428740 f i display.obj
 0001:00027760       ?GetNormalBuffer@TMultiSurface@@UAEPAVTSurface@@XZ 00428760 f i display.obj
 0001:00027780       ?GetDDSurface@TMultiSurface@@UAEPAUIDirectDrawSurface@@XZ 00428780 f i display.obj
 0001:000277a0       ?Lost@TMultiSurface@@UAEHXZ 004287a0 f i display.obj
 0001:000277c0       ?Lock@TMultiSurface@@UAEPAXXZ 004287c0 f i display.obj
 0001:000277e0       ?Unlock@TMultiSurface@@UAEHXZ 004287e0 f i display.obj
 0001:00027800       ?BlitHandler@TMultiSurface@@UAEHPAUSDrawParam@@PAVTSurface@@HPAU_DDBLTFX@@@Z 00428800 f i display.obj
 0001:00027830       ?UseBackgroundArea@TDisplay@@QAEHHHHHPAVTSurface@@@Z 00428830 f   display.obj
 0001:000279a0       ?RestoreBackgroundAreas@TDisplay@@QAEHXZ 004289a0 f   display.obj
 0001:00027ab0       ?DrawRestoreRect@TDisplay@@QAEHHHHHHK@Z 00428ab0 f   display.obj
 0001:00027ce0       ?ScrollBackground@TDisplay@@QAEHHHH@Z 00428ce0 f   display.obj
 0001:00027e30       ?AddUpdateRect@TDisplay@@QAEXHHHHH@Z 00428e30 f   display.obj
 0001:00027fa0       ?AddUpdateCallback@@YIXPAUSDrawBlock@@PAUSDrawParam@@@Z 00428fa0 f   display.obj
 0001:00028010       ?GetDrawCallBack@TDisplay@@UAEP6IXPAUSDrawBlock@@PAUSDrawParam@@@ZXZ 00429010 f   display.obj
 0001:00028030       ?AddBackgroundUpdateRect@TDisplay@@QAEHHHHHHH@Z 00429030 f   display.obj
 0001:00028f80       ?ZPut@TDisplay@@UAEHHHHPAVTBitmap@@K@Z 00429f80 f   display.obj
 0001:00029070       ?DrawLightNoNormals@@YIXAAUS3DPoint@@AAUSColor@@HPAVTSurface@@@Z 0042a070 f   dls.obj
 0001:00029090       ?DrawStaticLightBlock@@YIXHPAGPAKKKHEEEE@Z 0042a090 f   dls.obj
 0001:000293a0       ?DrawStaticLightNoNormalsFunc@@YIHPAUSDrawBlock@@PAUSDrawParam@@@Z 0042a3a0 f   dls.obj
 0001:000299c0       ?DrawStaticLightNoNormals@@YIXAAUS3DPoint@@AAUSColor@@HPAVTSurface@@H@Z 0042a9c0 f   dls.obj
 0001:00029b70       ?SetAmbientLight@@YIXHHHH@Z 0042ab70 f   dls.obj
 0001:00029c20       ?DrawAmbientLightFunc@@YIHPAUSDrawBlock@@PAUSDrawParam@@@Z 0042ac20 f   dls.obj
 0001:00029e20       ?DrawAmbientLight@@YIXPAVTSurface@@AAUSRect@@@Z 0042ae20 f   dls.obj
 0001:00029f20       ?Transfer32to16Func@@YIHPAUSDrawBlock@@PAUSDrawParam@@@Z 0042af20 f   dls.obj
 0001:0002a280       ?TransferAndLight32to16@@YIXPAVTSurface@@0AAUSRect@@@Z 0042b280 f   dls.obj
 0001:0002a6c0       ??0TScrollEditorPane@@QAE@XZ 0042b6c0 f i editor.obj
 0001:0002a720       ?Input@TTextPane@@UAEHPAD@Z 0042b720 f i editor.obj
 0001:0002a740       ?Output@TTextPane@@UAEHPAD@Z 0042b740 f i editor.obj
 0001:0002a760       ??1TScrollEditorPane@@QAE@XZ 0042b760 f i editor.obj
 0001:0002a780       ??0TScriptPane@@QAE@XZ     0042b780 f i editor.obj
 0001:0002a7e0       ??1TScriptPane@@QAE@XZ     0042b7e0 f i editor.obj
 0001:0002a800       ?sprintbit@@YIPADHQAPADPAD@Z 0042b800 f   editor.obj
 0001:0002a870       ??0TConsolePane@@QAE@XZ    0042b870 f i editor.obj
 0001:0002a8d0       ??1TConsolePane@@QAE@XZ    0042b8d0 f i editor.obj
 0001:0002a8f0       ?StartEditor@@YIXXZ        0042b8f0 f   editor.obj
 0001:0002aab0       ?ShutDownEditor@@YIXXZ     0042bab0 f   editor.obj
 0001:0002acb0       ?Hide@TEditStatusPane@@UAEXXZ 0042bcb0 f i editor.obj
 0001:0002ace0       ?StartFullScreen@@YIXXZ    0042bce0 f   editor.obj
 0001:0002adf0       ?ShutDownFullScreen@@YIXXZ 0042bdf0 f   editor.obj
 0001:0002aef0       ?Hide@TEditToolsPane@@UAEXXZ 0042bef0 f i editor.obj
 0001:0002af20       ?GetTerrainType@@YIEPAEHH@Z 0042bf20 f   editor.obj
 0001:0002af70       ?BaseTerrain@@YIHPAEHH@Z   0042bf70 f   editor.obj
 0001:0002b010       ?GetTileCode@@YIHPAEHH@Z   0042c010 f   editor.obj
 0001:0002b0c0       ?TerrainHeight@@YIHPAEHH@Z 0042c0c0 f   editor.obj
 0001:0002b220       ?TerrainToCode@@YIHD@Z     0042c220 f   editor.obj
 0001:0002b290       ?FindSuperTile@@YIHPAEHH0PAH@Z 0042c290 f   editor.obj
 0001:0002b600       ?overlay@@YIHPAEHH@Z       0042c600 f   editor.obj
 0001:0002b650       ?GetOverlayTile@@YIHPAEHHH@Z 0042c650 f   editor.obj
 0001:0002b840       ?GenerateObj@@YIPAVTObjectInstance@@PAVTSector@@PAE1HHHHHH@Z 0042c840 f   editor.obj
 0001:0002bab0       ?GenerateMap@@YIXHHHH@Z    0042cab0 f   editor.obj
 0001:0002c660       ?Initialize@TTextPane@@UAEHXZ 0042d660 f   editor.obj
 0001:0002c760       ?Close@TTextPane@@UAEXXZ   0042d760 f   editor.obj
 0001:0002c790       ?DrawBackground@TTextPane@@UAEXXZ 0042d790 f   editor.obj
 0001:0002c840       ?endofline@@YIHPAD@Z       0042d840 f   editor.obj
 0001:0002c8a0       ?InsertText@TTextPane@@QAEHPAD@Z 0042d8a0 f   editor.obj
 0001:0002c9f0       ?RemoveText@TTextPane@@QAEHHH@Z 0042d9f0 f   editor.obj
 0001:0002cb00       ?UpdateWindow@TTextPane@@QAEXXZ 0042db00 f   editor.obj
 0001:0002cbf0       ?SetCursor@TTextPane@@QAEHHHH@Z 0042dbf0 f   editor.obj
 0001:0002ce30       ?KeyPress@TTextPane@@UAEXHH@Z 0042de30 f   editor.obj
 0001:0002d190       ?CharPress@TTextPane@@UAEXHH@Z 0042e190 f   editor.obj
 0001:0002d210       ?Initialize@TConsolePane@@UAEHXZ 0042e210 f   editor.obj
 0001:0002d330       ?Close@TConsolePane@@UAEXXZ 0042e330 f   editor.obj
 0001:0002d380       ?SetupMouseBitmap@TConsolePane@@QAEXHH@Z 0042e380 f   editor.obj
 0001:0002d400       ?ChainMouse@TConsolePane@@QAEXP6IXHH@ZHHHHHH@Z 0042e400 f   editor.obj
 0001:0002d540       ?SetBounds@TConsolePane@@QAEXXZ 0042e540 f   editor.obj
 0001:0002d7f0       ?AddAxis@TConsolePane@@QAEHPAVTObjectInstance@@@Z 0042e7f0 f   editor.obj
 0001:0002d890       ?ClearAxis@TConsolePane@@QAEXXZ 0042e890 f   editor.obj
 0001:0002d910       ?KeyPress@TConsolePane@@UAEXHH@Z 0042e910 f   editor.obj
 0001:0002e000       ?CharPress@TConsolePane@@UAEXHH@Z 0042f000 f   editor.obj
 0001:0002e040       ?MouseMove@TConsolePane@@UAEXHHH@Z 0042f040 f   editor.obj
 0001:0002e0c0       ?MouseClick@TConsolePane@@UAEXHHH@Z 0042f0c0 f   editor.obj
 0001:0002e2b0       ?DrawBackground@TConsolePane@@UAEXXZ 0042f2b0 f   editor.obj
 0001:0002e400       ?Input@TConsolePane@@UAEHPAD@Z 0042f400 f   editor.obj
 0001:0002e600       ?Output@TConsolePane@@UAEHPAD@Z 0042f600 f   editor.obj
 0001:0002e660       ?GetChar@TConsolePane@@SIHXZ 0042f660 f   editor.obj
 0001:0002e690       ?GetLine@TConsolePane@@SIHPADH@Z 0042f690 f   editor.obj
 0001:0002e760       ?CommandThread@TConsolePane@@SGKPAX@Z 0042f760 f   editor.obj
 0001:0002ea30       ?LineNum@TParseStream@@UAEHXZ 0042fa30 f i editor.obj
 0001:0002ea40       ?GetChar@TStringParseStream@@UAEHXZ 0042fa40 f i editor.obj
 0001:0002ea90       ?Reset@TStringParseStream@@UAEXXZ 0042fa90 f i editor.obj
 0001:0002eab0       ?GetPos@TStringParseStream@@UAEKXZ 0042fab0 f i editor.obj
 0001:0002ead0       ?SetPos@TStringParseStream@@UAEXK@Z 0042fad0 f i editor.obj
 0001:0002eaf0       ?LineNum@TStringParseStream@@UAEHXZ 0042faf0 f i editor.obj
 0001:0002eb40       ?Initialize@TScriptPane@@UAEHXZ 0042fb40 f   editor.obj
 0001:0002eb70       ?LoadScript@TScriptPane@@QAEXPAVTObjectInstance@@@Z 0042fb70 f   editor.obj
 0001:0002ebf0       ?SaveScript@TScriptPane@@QAEXXZ 0042fbf0 f   editor.obj
 0001:0002ec90       ?KeyPress@TScriptPane@@UAEXHH@Z 0042fc90 f   editor.obj
 0001:0002ed10       ?Initialize@TScrollEditorPane@@UAEHXZ 0042fd10 f   editor.obj
 0001:0002ed50       ?SetScroll@TScrollEditorPane@@QAEXPAVTObjectInstance@@@Z 0042fd50 f   editor.obj
 0001:0002ede0       ?SaveText@TScrollEditorPane@@QAEXXZ 0042fde0 f   editor.obj
 0001:0002ee60       ?KeyPress@TScrollEditorPane@@UAEXHH@Z 0042fe60 f   editor.obj
 0001:0002eee0       ?CmdSelect@@YIHPAVTObjectInstance@@AAVTToken@@@Z 0042fee0 f   editor.obj
 0001:0002f100       ?CmdDeselect@@YIHPAVTObjectInstance@@AAVTToken@@@Z 00430100 f   editor.obj
 0001:0002f160       ?CmdAdd@@YIHPAVTObjectInstance@@AAVTToken@@@Z 00430160 f   editor.obj
 0001:0002fbd0       ?CmdGenerate@@YIHPAVTObjectInstance@@AAVTToken@@@Z 00430bd0 f   editor.obj
 0001:0002fce0       ?CmdCalcWalkmap@@YIHPAVTObjectInstance@@AAVTToken@@@Z 00430ce0 f   editor.obj
 0001:0002fd00       ?CmdSaveWalkmap@@YIHPAVTObjectInstance@@AAVTToken@@@Z 00430d00 f   editor.obj
 0001:0002fd50       ?CmdWalkmap@@YIHPAVTObjectInstance@@AAVTToken@@@Z 00430d50 f   editor.obj
 0001:0002fe50       ?CmdTileWalkmap@@YIHPAVTObjectInstance@@AAVTToken@@@Z 00430e50 f   editor.obj
 0001:0002fed0       ?CmdState@@YIHPAVTObjectInstance@@AAVTToken@@@Z 00430ed0 f   editor.obj
 0001:0002ff20       ?CmdReveal@@YIHPAVTObjectInstance@@AAVTToken@@@Z 00430f20 f   editor.obj
 0001:0002ff90       ?CmdLevel@@YIHPAVTObjectInstance@@AAVTToken@@@Z 00430f90 f   editor.obj
 0001:0002fff0       ?CmdTemplate@@YIHPAVTObjectInstance@@AAVTToken@@@Z 00430ff0 f   editor.obj
 0001:000303b0       ?CmdSmoothScroll@@YIHPAVTObjectInstance@@AAVTToken@@@Z 004313b0 f   editor.obj
 0001:00030440       ?CmdDLight@@YIHPAVTObjectInstance@@AAVTToken@@@Z 00431440 f   editor.obj
 0001:000304a0       ?CmdText@@YIHPAVTObjectInstance@@AAVTToken@@@Z 004314a0 f   editor.obj
 0001:00030520       ?CmdExit@@YIHPAVTObjectInstance@@AAVTToken@@@Z 00431520 f   editor.obj
 0001:000305f0       ?CmdFollow@@YIHPAVTObjectInstance@@AAVTToken@@@Z 004315f0 f   editor.obj
 0001:00030620       ?CmdOpacity@@YIHPAVTObjectInstance@@AAVTToken@@@Z 00431620 f   editor.obj
 0001:000306c0       ?CmdRestore@@YIHPAVTObjectInstance@@AAVTToken@@@Z 004316c0 f   editor.obj
 0001:000306e0       ?CmdKey@@YIHPAVTObjectInstance@@AAVTToken@@@Z 004316e0 f   editor.obj
 0001:00030700       ?CmdContainerFlags@@YIHPAVTObjectInstance@@AAVTToken@@@Z 00431700 f   editor.obj
 0001:00030810       ?CmdPickDifficulty@@YIHPAVTObjectInstance@@AAVTToken@@@Z 00431810 f   editor.obj
 0001:000308b0       ?CmdGet@@YIHPAVTObjectInstance@@AAVTToken@@@Z 004318b0 f   editor.obj
 0001:00030940       ?CmdUndo@@YIHPAVTObjectInstance@@AAVTToken@@@Z 00431940 f   editor.obj
 0001:00030960       ?CmdResetScreenRect@@YIHPAVTObjectInstance@@AAVTToken@@@Z 00431960 f   editor.obj
 0001:000309d0       ?CmdBounds@@YIHPAVTObjectInstance@@AAVTToken@@@Z 004319d0 f   editor.obj
 0001:00030b10       ?CmdToggleFlag@@YIHPAVTObjectInstance@@AAVTToken@@@Z 00431b10 f   editor.obj
 0001:00030bd0       ?CmdMove@@YIHPAVTObjectInstance@@AAVTToken@@@Z 00431bd0 f   editor.obj
 0001:00030d00       ?CmdDelete@@YIHPAVTObjectInstance@@AAVTToken@@@Z 00431d00 f   editor.obj
 0001:00030d60       ?CmdStat@@YIHPAVTObjectInstance@@AAVTToken@@@Z 00431d60 f   editor.obj
 0001:000313d0       ?CmdScript@@YIHPAVTObjectInstance@@AAVTToken@@@Z 004323d0 f   editor.obj
 0001:00031460       ?CmdGroup@@YIHPAVTObjectInstance@@AAVTToken@@@Z 00432460 f   editor.obj
 0001:00031480       ?CmdCenterOn@@YIHPAVTObjectInstance@@AAVTToken@@@Z 00432480 f   editor.obj
 0001:000314d0       ?ReadMapLocationList@@YIHXZ 004324d0 f   editor.obj
 0001:000316b0       ?GetChar@TFileParseStream@@UAEHXZ 004326b0 f i editor.obj
 0001:000316e0       ?Reset@TFileParseStream@@UAEXXZ 004326e0 f i editor.obj
 0001:00031700       ?GetPos@TFileParseStream@@UAEKXZ 00432700 f i editor.obj
 0001:00031720       ?SetPos@TFileParseStream@@UAEXK@Z 00432720 f i editor.obj
 0001:00031750       ?CmdMapPos@@YIHPAVTObjectInstance@@AAVTToken@@@Z 00432750 f   editor.obj
 0001:00031920       ?ShowObjList@@YIHPAVTObjectClass@@PAD@Z 00432920 f   editor.obj
 0001:00031a50       ?ShowObjTypeInfo@@YIXPAVTObjectClass@@H@Z 00432a50 f   editor.obj
 0001:00031c10       ?CmdShow@@YIHPAVTObjectInstance@@AAVTToken@@@Z 00432c10 f   editor.obj
 0001:00031e10       ?Ambient@@YIXHH@Z          00432e10 f   editor.obj
 0001:00031e40       ?CmdAmbient@@YIHPAVTObjectInstance@@AAVTToken@@@Z 00432e40 f   editor.obj
 0001:00031e80       ?AmbientColorRed@@YIXHH@Z  00432e80 f   editor.obj
 0001:00031eb0       ?AmbientColorGreen@@YIXHH@Z 00432eb0 f   editor.obj
 0001:00031ee0       ?AmbientColorBlue@@YIXHH@Z 00432ee0 f   editor.obj
 0001:00031f10       ?CmdAmbColor@@YIHPAVTObjectInstance@@AAVTToken@@@Z 00432f10 f   editor.obj
 0001:00031f60       ?Mono@@YIXHH@Z             00432f60 f   editor.obj
 0001:00031f90       ?CmdMono@@YIHPAVTObjectInstance@@AAVTToken@@@Z 00432f90 f   editor.obj
 0001:00031fd0       ?CmdDirLight@@YIHPAVTObjectInstance@@AAVTToken@@@Z 00432fd0 f   editor.obj
 0001:00032040       ?CmdBaseLight@@YIHPAVTObjectInstance@@AAVTToken@@@Z 00433040 f   editor.obj
 0001:000320a0       ?CmdReplace@@YIHPAVTObjectInstance@@AAVTToken@@@Z 004330a0 f   editor.obj
 0001:00032280       ?CmdLight@@YIHPAVTObjectInstance@@AAVTToken@@@Z 00433280 f   editor.obj
 0001:000325d0       ?ZOffset@@YIXHH@Z          004335d0 f   editor.obj
 0001:000326a0       ?CmdZOffset@@YIHPAVTObjectInstance@@AAVTToken@@@Z 004336a0 f   editor.obj
 0001:000327e0       ?CmdRegistration@@YIHPAVTObjectInstance@@AAVTToken@@@Z 004337e0 f   editor.obj
 0001:000328e0       ?CmdAnimRegistration@@YIHPAVTObjectInstance@@AAVTToken@@@Z 004338e0 f   editor.obj
 0001:000329d0       ?CmdAnimZ@@YIHPAVTObjectInstance@@AAVTToken@@@Z 004339d0 f   editor.obj
 0001:00032a90       ?CmdName@@YIHPAVTObjectInstance@@AAVTToken@@@Z 00433a90 f   editor.obj
 0001:00032bc0       ?CmdFlip@@YIHPAVTObjectInstance@@AAVTToken@@@Z 00433bc0 f   editor.obj
 0001:00032c50       ?CmdLock@@YIHPAVTObjectInstance@@AAVTToken@@@Z 00433c50 f   editor.obj
 0001:00032c80       ?CmdUnlock@@YIHPAVTObjectInstance@@AAVTToken@@@Z 00433c80 f   editor.obj
 0001:00032cb0       ?CmdImmobile@@YIHPAVTObjectInstance@@AAVTToken@@@Z 00433cb0 f   editor.obj
 0001:00032ce0       ?CmdUnimmobile@@YIHPAVTObjectInstance@@AAVTToken@@@Z 00433ce0 f   editor.obj
 0001:00032d10       ?CmdLoad@@YIHPAVTObjectInstance@@AAVTToken@@@Z 00433d10 f   editor.obj
 0001:00032d40       ?CmdSave@@YIHPAVTObjectInstance@@AAVTToken@@@Z 00433d40 f   editor.obj
 0001:00032e00       ?CmdSaveEnv@@YIHPAVTObjectInstance@@AAVTToken@@@Z 00433e00 f   editor.obj
 0001:00032e50       ?CmdLoadEnv@@YIHPAVTObjectInstance@@AAVTToken@@@Z 00433e50 f   editor.obj
 0001:00032ea0       ?CmdDXStats@@YIHPAVTObjectInstance@@AAVTToken@@@Z 00433ea0 f   editor.obj
 0001:00033020       ?CmdMemory@@YIHPAVTObjectInstance@@AAVTToken@@@Z 00434020 f   editor.obj
 0001:000333e0       ?BtnInvert@@YIXXZ          004343e0 f   editor.obj
 0001:000333f0       ?BtnPrev@@YIXXZ            004343f0 f   editor.obj
 0001:00033400       ?BtnNext@@YIXXZ            00434400 f   editor.obj
 0001:00033410       ?BtnDeselect@@YIXXZ        00434410 f   editor.obj
 0001:00033420       ?BtnCenterOn@@YIXXZ        00434420 f   editor.obj
 0001:000334a0       ?BtnUndo@@YIXXZ            004344a0 f   editor.obj
 0001:000334b0       ?BtnWalkmap@@YIXXZ         004344b0 f   editor.obj
 0001:00033500       ?BtnScroll@@YIXXZ          00434500 f   editor.obj
 0001:00033520       ?Initialize@TEditStatusPane@@UAEHXZ 00434520 f   editor.obj
 0001:00033dd0       ?Close@TEditStatusPane@@UAEXXZ 00434dd0 f   editor.obj
 0001:00033e40       ?DrawBackground@TEditStatusPane@@UAEXXZ 00434e40 f   editor.obj
 0001:000340d0       ?InvertAxisButtons@TEditStatusPane@@QAEXXZ 004350d0 f   editor.obj
 0001:00034190       ?Select@TEditStatusPane@@QAEHHH@Z 00435190 f   editor.obj
 0001:000342e0       ?Deselect@TEditStatusPane@@QAEHXZ 004352e0 f   editor.obj
 0001:000343e0       ?Deselect@TEditStatusPane@@QAEHH@Z 004353e0 f   editor.obj
 0001:000344e0       ?Reselect@TEditStatusPane@@QAEHHH@Z 004354e0 f   editor.obj
 0001:00034550       ?SetCurObj@TEditStatusPane@@QAEHH@Z 00435550 f   editor.obj
 0001:000345a0       ?Next@TEditStatusPane@@QAEHXZ 004355a0 f   editor.obj
 0001:000345f0       ?Prev@TEditStatusPane@@QAEHXZ 004355f0 f   editor.obj
 0001:00034640       ?Validate@TEditStatusPane@@QAEXXZ 00435640 f   editor.obj
 0001:000346b0       ?Delete@TEditStatusPane@@QAEXXZ 004356b0 f   editor.obj
 0001:00034770       ?StartObjMoving@@YIXPAVTObjectInstance@@@Z 00435770 f   editor.obj
 0001:00034800       ?StartMoving@TEditStatusPane@@QAEXXZ 00435800 f   editor.obj
 0001:000348e0       ?StopObjMoving@@YIXPAVTObjectInstance@@@Z 004358e0 f   editor.obj
 0001:00034960       ?StopMoving@TEditStatusPane@@QAEXXZ 00435960 f   editor.obj
 0001:00034a00       ?Undo@TEditStatusPane@@QAEXXZ 00435a00 f   editor.obj
 0001:00034a70       ?BtnFullScr@@YIXXZ         00435a70 f   editor.obj
 0001:00034a90       ?BtnSave@@YIXXZ            00435a90 f   editor.obj
 0001:00034ab0       ?BtnReveal@@YIXXZ          00435ab0 f   editor.obj
 0001:00034ad0       ?BtnStat@@YIXXZ            00435ad0 f   editor.obj
 0001:00034af0       ?BtnZOff@@YIXXZ            00435af0 f   editor.obj
 0001:00034bb0       ?Registration@@YIXUS3DPoint@@@Z 00435bb0 f   editor.obj
 0001:00034d30       ?RegistrationAbort@@YIXXZ  00435d30 f   editor.obj
 0001:00034da0       ?BtnReg@@YIXXZ             00435da0 f   editor.obj
 0001:00034e60       ?BtnDel@@YIXXZ             00435e60 f   editor.obj
 0001:00034e70       ?BtnAmb@@YIXXZ             00435e70 f   editor.obj
 0001:00034eb0       ?BtnAmbCol@@YIXXZ          00435eb0 f   editor.obj
 0001:00034f40       ?BtnMono@@YIXXZ            00435f40 f   editor.obj
 0001:00034f80       ?Clone@@YIXUS3DPoint@@@Z   00435f80 f   editor.obj
 0001:000351c0       ?CloneAbort@@YIXXZ         004361c0 f   editor.obj
 0001:000351d0       ?BtnClone@@YIXXZ           004361d0 f   editor.obj
 0001:00035250       ?BtnFollow@@YIXXZ          00436250 f   editor.obj
 0001:00035270       ?BtnCalc@@YIXXZ            00436270 f   editor.obj
 0001:00035280       ?BtnSavWM@@YIXXZ           00436280 f   editor.obj
 0001:000352a0       ?BtnBound@@YIXXZ           004362a0 f   editor.obj
 0001:000352b0       ?AnimRegistration@@YIXHH@Z 004362b0 f   editor.obj
 0001:00035370       ?AnimZ@@YIXHH@Z            00436370 f   editor.obj
 0001:00035460       ?BtnAnReg@@YIXXZ           00436460 f   editor.obj
 0001:00035540       ?BtnAnimZ@@YIXXZ           00436540 f   editor.obj
 0001:000355f0       ?BtnTemplate@@YIXXZ        004365f0 f   editor.obj
 0001:00035610       ?Initialize@TEditToolsPane@@UAEHXZ 00436610 f   editor.obj
 0001:00035700       ?DrawBackground@TEditToolsPane@@UAEXXZ 00436700 f   editor.obj
 0001:00035770       ?KeyPress@TEditToolsPane@@UAEXHH@Z 00436770 f   editor.obj
 0001:00035890       ?AddBookmark@TEditToolsPane@@QAEXHUS3DPoint@@H@Z 00436890 f   editor.obj
 0001:000358e0       ?GetBookmark@TEditToolsPane@@QAEXHAAUS3DPoint@@AAH@Z 004368e0 f   editor.obj
 0001:00035930       ?ClearBookmarks@TEditToolsPane@@QAEXXZ 00436930 f   editor.obj
 0001:000359b0       ?BtnMaximize@@YIXXZ        004369b0 f   editor.obj
 0001:00035b20       ?BtnScrollUp@@YIXXZ        00436b20 f   editor.obj
 0001:00035b40       ?BtnScrollDown@@YIXXZ      00436b40 f   editor.obj
 0001:00035b60       ?BtnTileClass@@YIXXZ       00436b60 f   editor.obj
 0001:00035b90       ?BtnCharacterClass@@YIXXZ  00436b90 f   editor.obj
 0001:00035bc0       ?BtnWeaponClass@@YIXXZ     00436bc0 f   editor.obj
 0001:00035bf0       ?BtnArmorClass@@YIXXZ      00436bf0 f   editor.obj
 0001:00035c20       ?BtnTalismanClass@@YIXXZ   00436c20 f   editor.obj
 0001:00035c50       ?BtnFoodClass@@YIXXZ       00436c50 f   editor.obj
 0001:00035c80       ?BtnLightSourceClass@@YIXXZ 00436c80 f   editor.obj
 0001:00035cb0       ?BtnToolClass@@YIXXZ       00436cb0 f   editor.obj
 0001:00035ce0       ?BtnContainerClass@@YIXXZ  00436ce0 f   editor.obj
 0001:00035d10       ?BtnExitClass@@YIXXZ       00436d10 f   editor.obj
 0001:00035d40       ?ObjDownCallback@@YIXUS3DPoint@@@Z 00436d40 f   editor.obj
 0001:00035d80       ?ObjDownAbortCallback@@YIXXZ 00436d80 f   editor.obj
 0001:00035d90       ?Initialize@TEditClassPane@@UAEHXZ 00436d90 f   editor.obj
 0001:00036100       ?Close@TEditClassPane@@UAEXXZ 00437100 f   editor.obj
 0001:00036190       ?DrawBackground@TEditClassPane@@UAEXXZ 00437190 f   editor.obj
 0001:00036410       ?MouseClick@TEditClassPane@@UAEXHHH@Z 00437410 f   editor.obj
 0001:00036610       ?MouseMove@TEditClassPane@@UAEXHHH@Z 00437610 f   editor.obj
 0001:00036710       ?Animate@TEditClassPane@@UAEXH@Z 00437710 f   editor.obj
 0001:00036860       ?GetThumbnail@TEditClassPane@@QAEPAVTBitmap@@PAD@Z 00437860 f   editor.obj
 0001:00036b00       ?PutObject@TEditClassPane@@QAEHUS3DPoint@@@Z 00437b00 f   editor.obj
 0001:00036ba0       ?Scroll@TEditClassPane@@QAEXH@Z 00437ba0 f   editor.obj
 0001:00036c20       ?SelectSame@TEditClassPane@@QAEXH@Z 00437c20 f   editor.obj
 0001:00036d10       ?ReadEditorINI@@YIXXZ      00437d10 f   editor.obj
 0001:00037030       ?CmdUpdateSectors@@YIHPAVTObjectInstance@@AAVTToken@@@Z 00438030 f   editor.obj
 0001:00037140       ?UpdateCGSFile@@YIHPAD00@Z 00438140 f   editor.obj
 0001:00037820       ?CmdAddRC@@YIHPAVTObjectInstance@@AAVTToken@@@Z 00438820 f   editor.obj
 0001:00038a60       ?SaveRenderState@@YIHXZ    00439a60 f   effect.obj
 0001:00038b30       ?RestoreRenderState@@YIHXZ 00439b30 f   effect.obj
 0001:00038c00       ?SetRenderState@@YIHXZ     00439c00 f   effect.obj
 0001:00038d00       ?Build@TEffectBuilder@@UAEPAVTObjectInstance@@PAVSObjectDef@@PAVTObjectImagery@@@Z 00439d00 f i effect.obj
 0001:00038da0       ??_GTEffect@@UAEPAXI@Z     00439da0 f i effect.obj
 0001:00038da0       ??_ETEffect@@UAEPAXI@Z     00439da0 f i effect.obj
 0001:00038dd0       ??1TEffect@@UAE@XZ         00439dd0 f i effect.obj
 0001:00038df0       ?Build@TEffectBuilder@@UAEPAVTObjectInstance@@PAVTObjectImagery@@@Z 00439df0 f i effect.obj
 0001:00038e80       ?Pulse@TEffect@@UAEXXZ     00439e80 f   effect.obj
 0001:00038eb0       ?KillThisEffect@TEffect@@QAEXXZ 00439eb0 f   effect.obj
 0001:00038f00       ?DamageCharactersInRange@@YIXPAVTObjectInstance@@AAUS3DPoint@@HHHH@Z 00439f00 f   effect.obj
 0001:00038fc0       ?Build@TFireEffectBuilder@@UAEPAVTObjectInstance@@PAVSObjectDef@@PAVTObjectImagery@@@Z 00439fc0 f i effect.obj
 0001:00039060       ??_GTFireEffect@@UAEPAXI@Z 0043a060 f i effect.obj
 0001:00039060       ??_ETFireEffect@@UAEPAXI@Z 0043a060 f i effect.obj
 0001:00039090       ??1TFireEffect@@UAE@XZ     0043a090 f i effect.obj
 0001:000390b0       ?Build@TFireEffectBuilder@@UAEPAVTObjectInstance@@PAVTObjectImagery@@@Z 0043a0b0 f i effect.obj
 0001:00039150       ?Pulse@TFireEffect@@UAEXXZ 0043a150 f   effect.obj
 0001:00039200       ?Build@TLightningEffectBuilder@@UAEPAVTObjectInstance@@PAVSObjectDef@@PAVTObjectImagery@@@Z 0043a200 f i effect.obj
 0001:000392e0       ??_GTLightningEffect@@UAEPAXI@Z 0043a2e0 f i effect.obj
 0001:000392e0       ??_ETLightningEffect@@UAEPAXI@Z 0043a2e0 f i effect.obj
 0001:00039310       ??1TLightningEffect@@UAE@XZ 0043a310 f i effect.obj
 0001:00039370       ?Build@TLightningEffectBuilder@@UAEPAVTObjectInstance@@PAVTObjectImagery@@@Z 0043a370 f i effect.obj
 0001:00039440       ?Pulse@TLightningEffect@@UAEXXZ 0043a440 f   effect.obj
 0001:00039510       ?Build@TIceEffectBuilder@@UAEPAVTObjectInstance@@PAVSObjectDef@@PAVTObjectImagery@@@Z 0043a510 f i effect.obj
 0001:00039600       ??_GTIceEffect@@UAEPAXI@Z  0043a600 f i effect.obj
 0001:00039600       ??_ETIceEffect@@UAEPAXI@Z  0043a600 f i effect.obj
 0001:00039630       ??1TIceEffect@@UAE@XZ      0043a630 f i effect.obj
 0001:00039650       ?Build@TIceEffectBuilder@@UAEPAVTObjectInstance@@PAVTObjectImagery@@@Z 0043a650 f i effect.obj
 0001:00039700       ?Pulse@TIceEffect@@UAEXXZ  0043a700 f   effect.obj
 0001:00039800       ?Initialize@TMissileEffect@@UAEXXZ 0043a800 f   effect.obj
 0001:00039830       ?GetSpeed@TMissileEffect@@QAEHXZ 0043a830 f   effect.obj
 0001:00039850       ?SetSpeed@TMissileEffect@@QAEXH@Z 0043a850 f   effect.obj
 0001:00039870       ?Pulse@TMissileEffect@@UAEXXZ 0043a870 f   effect.obj
 0001:00039ad0       ?Initialize@TPhotonEffect@@UAEXXZ 0043aad0 f   effect.obj
 0001:00039b10       ?Pulse@TPhotonEffect@@UAEXXZ 0043ab10 f   effect.obj
 0001:00039b80       ?Build@TPhotonEffectBuilder@@UAEPAVTObjectInstance@@PAVSObjectDef@@PAVTObjectImagery@@@Z 0043ab80 f i effect.obj
 0001:00039c50       ??_ETPhotonEffect@@UAEPAXI@Z 0043ac50 f i effect.obj
 0001:00039c50       ??_GTPhotonEffect@@UAEPAXI@Z 0043ac50 f i effect.obj
 0001:00039c80       ??1TMissileEffect@@UAE@XZ  0043ac80 f i effect.obj
 0001:00039ca0       ??_ETMissileEffect@@UAEPAXI@Z 0043aca0 f i effect.obj
 0001:00039ca0       ??_GTMissileEffect@@UAEPAXI@Z 0043aca0 f i effect.obj
 0001:00039cd0       ??1TPhotonEffect@@UAE@XZ   0043acd0 f i effect.obj
 0001:00039d30       ?Build@TPhotonEffectBuilder@@UAEPAVTObjectInstance@@PAVTObjectImagery@@@Z 0043ad30 f i effect.obj
 0001:00039e00       ?Initialize@TFireBallEffect@@UAEXXZ 0043ae00 f   effect.obj
 0001:00039e30       ?Pulse@TFireBallEffect@@UAEXXZ 0043ae30 f   effect.obj
 0001:0003a0b0       ?Build@TFireBallEffectBuilder@@UAEPAVTObjectInstance@@PAVSObjectDef@@PAVTObjectImagery@@@Z 0043b0b0 f i effect.obj
 0001:0003a180       ??_ETFireBallEffect@@UAEPAXI@Z 0043b180 f i effect.obj
 0001:0003a180       ??_GTFireBallEffect@@UAEPAXI@Z 0043b180 f i effect.obj
 0001:0003a1b0       ??1TFireBallEffect@@UAE@XZ 0043b1b0 f i effect.obj
 0001:0003a1d0       ?Build@TFireBallEffectBuilder@@UAEPAVTObjectInstance@@PAVTObjectImagery@@@Z 0043b1d0 f i effect.obj
 0001:0003a2c0       ?Build@THealEffectBuilder@@UAEPAVTObjectInstance@@PAVSObjectDef@@PAVTObjectImagery@@@Z 0043b2c0 f i effect.obj
 0001:0003a360       ??_ETHealEffect@@UAEPAXI@Z 0043b360 f i effect.obj
 0001:0003a360       ??_GTHealEffect@@UAEPAXI@Z 0043b360 f i effect.obj
 0001:0003a390       ??1THealEffect@@UAE@XZ     0043b390 f i effect.obj
 0001:0003a3b0       ?Build@THealEffectBuilder@@UAEPAVTObjectInstance@@PAVTObjectImagery@@@Z 0043b3b0 f i effect.obj
 0001:0003a450       ?Pulse@THealEffect@@UAEXXZ 0043b450 f   effect.obj
 0001:0003a4a0       ?Build@TLightning2EffectBuilder@@UAEPAVTObjectInstance@@PAVSObjectDef@@PAVTObjectImagery@@@Z 0043b4a0 f i effect.obj
 0001:0003a540       ??_GTLightning2Effect@@UAEPAXI@Z 0043b540 f i effect.obj
 0001:0003a540       ??_ETLightning2Effect@@UAEPAXI@Z 0043b540 f i effect.obj
 0001:0003a570       ??1TLightning2Effect@@UAE@XZ 0043b570 f i effect.obj
 0001:0003a590       ?Build@TLightning2EffectBuilder@@UAEPAVTObjectInstance@@PAVTObjectImagery@@@Z 0043b590 f i effect.obj
 0001:0003a630       ?Pulse@TLightning2Effect@@UAEXXZ 0043b630 f   effect.obj
 0001:0003a6d0       ?Pulse@TSpellBlock@@QAEHH@Z 0043b6d0 f   effect.obj
 0001:0003a8a0       ?Build@TTest3DAnimatorBuilder@@UAEPAVT3DAnimator@@PAVTObjectInstance@@@Z 0043b8a0 f i effect.obj
 0001:0003a940       ??_GTTest3DAnimator@@UAEPAXI@Z 0043b940 f i effect.obj
 0001:0003a940       ??_ETTest3DAnimator@@UAEPAXI@Z 0043b940 f i effect.obj
 0001:0003a970       ??1TTest3DAnimator@@UAE@XZ 0043b970 f i effect.obj
 0001:0003a9d0       ?Initialize@TTest3DAnimator@@UAEXXZ 0043b9d0 f   effect.obj
 0001:0003aa80       ?Animate@TTest3DAnimator@@UAEXH@Z 0043ba80 f   effect.obj
 0001:0003ae00       ?Render@TTest3DAnimator@@UAEHXZ 0043be00 f   effect.obj
 0001:0003afa0       ?Build@TFlareAnimatorBuilder@@UAEPAVT3DAnimator@@PAVTObjectInstance@@@Z 0043bfa0 f i effect.obj
 0001:0003b040       ??_ETFlareAnimator@@UAEPAXI@Z 0043c040 f i effect.obj
 0001:0003b040       ??_GTFlareAnimator@@UAEPAXI@Z 0043c040 f i effect.obj
 0001:0003b070       ??1TFlareAnimator@@UAE@XZ  0043c070 f i effect.obj
 0001:0003b0d0       ?Initialize@TFlareAnimator@@UAEXXZ 0043c0d0 f   effect.obj
 0001:0003b280       ?Animate@TFlareAnimator@@UAEXH@Z 0043c280 f   effect.obj
 0001:0003b500       ?Render@TFlareAnimator@@UAEHXZ 0043c500 f   effect.obj
 0001:0003b6a0       ?Build@TFireAnimatorBuilder@@UAEPAVT3DAnimator@@PAVTObjectInstance@@@Z 0043c6a0 f i effect.obj
 0001:0003b740       ??_GTFireAnimator@@UAEPAXI@Z 0043c740 f i effect.obj
 0001:0003b740       ??_ETFireAnimator@@UAEPAXI@Z 0043c740 f i effect.obj
 0001:0003b770       ??1TFireAnimator@@UAE@XZ   0043c770 f i effect.obj
 0001:0003b7d0       ?Initialize@TFireAnimator@@UAEXXZ 0043c7d0 f   effect.obj
 0001:0003b9b0       ?Animate@TFireAnimator@@UAEXH@Z 0043c9b0 f   effect.obj
 0001:0003bac0       ?Render@TFireAnimator@@UAEHXZ 0043cac0 f   effect.obj
 0001:0003bd50       ?Build@TPhotonAnimatorBuilder@@UAEPAVT3DAnimator@@PAVTObjectInstance@@@Z 0043cd50 f i effect.obj
 0001:0003bdf0       ??_ETPhotonAnimator@@UAEPAXI@Z 0043cdf0 f i effect.obj
 0001:0003bdf0       ??_GTPhotonAnimator@@UAEPAXI@Z 0043cdf0 f i effect.obj
 0001:0003be20       ??1TPhotonAnimator@@UAE@XZ 0043ce20 f i effect.obj
 0001:0003be80       ?Initialize@TPhotonAnimator@@UAEXXZ 0043ce80 f   effect.obj
 0001:0003c180       ?Animate@TPhotonAnimator@@UAEXH@Z 0043d180 f   effect.obj
 0001:0003c900       ?Render@TPhotonAnimator@@UAEHXZ 0043d900 f   effect.obj
 0001:0003cac0       ?Build@TIceAnimatorBuilder@@UAEPAVT3DAnimator@@PAVTObjectInstance@@@Z 0043dac0 f i effect.obj
 0001:0003cb60       ??_GTIceAnimator@@UAEPAXI@Z 0043db60 f i effect.obj
 0001:0003cb60       ??_ETIceAnimator@@UAEPAXI@Z 0043db60 f i effect.obj
 0001:0003cb90       ??1TIceAnimator@@UAE@XZ    0043db90 f i effect.obj
 0001:0003cbf0       ?Initialize@TIceAnimator@@UAEXXZ 0043dbf0 f   effect.obj
 0001:0003ccc0       ?Animate@TIceAnimator@@UAEXH@Z 0043dcc0 f   effect.obj
 0001:0003ce50       ?Render@TIceAnimator@@UAEHXZ 0043de50 f   effect.obj
 0001:0003d020       ?Build@THealAnimatorBuilder@@UAEPAVT3DAnimator@@PAVTObjectInstance@@@Z 0043e020 f i effect.obj
 0001:0003d0c0       ??_ETHealAnimator@@UAEPAXI@Z 0043e0c0 f i effect.obj
 0001:0003d0c0       ??_GTHealAnimator@@UAEPAXI@Z 0043e0c0 f i effect.obj
 0001:0003d0f0       ??1THealAnimator@@UAE@XZ   0043e0f0 f i effect.obj
 0001:0003d150       ?Initialize@THealAnimator@@UAEXXZ 0043e150 f   effect.obj
 0001:0003d290       ?Animate@THealAnimator@@UAEXH@Z 0043e290 f   effect.obj
 0001:0003d570       ?Render@THealAnimator@@UAEHXZ 0043e570 f   effect.obj
 0001:0003d8e0       ?Build@TLightningAnimatorBuilder@@UAEPAVT3DAnimator@@PAVTObjectInstance@@@Z 0043e8e0 f i effect.obj
 0001:0003d980       ??_ETLightningAnimator@@UAEPAXI@Z 0043e980 f i effect.obj
 0001:0003d980       ??_GTLightningAnimator@@UAEPAXI@Z 0043e980 f i effect.obj
 0001:0003d9b0       ??1TLightningAnimator@@UAE@XZ 0043e9b0 f i effect.obj
 0001:0003da10       ?Initialize@TLightningAnimator@@UAEXXZ 0043ea10 f   effect.obj
 0001:0003db30       ?Animate@TLightningAnimator@@UAEXH@Z 0043eb30 f   effect.obj
 0001:0003db80       ?Render@TLightningAnimator@@UAEHXZ 0043eb80 f   effect.obj
 0001:0003ddb0       ?Initialize@TFountainAnimator@@UAEXXZ 0043edb0 f   effect.obj
 0001:0003deb0       ?Animate@TFountainAnimator@@UAEXH@Z 0043eeb0 f   effect.obj
 0001:0003e040       ?Render@TFountainAnimator@@UAEHXZ 0043f040 f   effect.obj
 0001:0003e1e0       ?Build@TCyanFountainAnimatorBuilder@@UAEPAVT3DAnimator@@PAVTObjectInstance@@@Z 0043f1e0 f i effect.obj
 0001:0003e290       ??_GTCyanFountainAnimator@@UAEPAXI@Z 0043f290 f i effect.obj
 0001:0003e290       ??_ETCyanFountainAnimator@@UAEPAXI@Z 0043f290 f i effect.obj
 0001:0003e2c0       ??1TCyanFountainAnimator@@UAE@XZ 0043f2c0 f i effect.obj
 0001:0003e320       ??_ETFountainAnimator@@UAEPAXI@Z 0043f320 f i effect.obj
 0001:0003e320       ??_GTFountainAnimator@@UAEPAXI@Z 0043f320 f i effect.obj
 0001:0003e350       ??1TFountainAnimator@@UAE@XZ 0043f350 f i effect.obj
 0001:0003e3b0       ?SetColorObject@TCyanFountainAnimator@@UAEXXZ 0043f3b0 f i effect.obj
 0001:0003e3f0       ?Build@TRedFountainAnimatorBuilder@@UAEPAVT3DAnimator@@PAVTObjectInstance@@@Z 0043f3f0 f i effect.obj
 0001:0003e4a0       ??_ETRedFountainAnimator@@UAEPAXI@Z 0043f4a0 f i effect.obj
 0001:0003e4a0       ??_GTRedFountainAnimator@@UAEPAXI@Z 0043f4a0 f i effect.obj
 0001:0003e4d0       ??1TRedFountainAnimator@@UAE@XZ 0043f4d0 f i effect.obj
 0001:0003e530       ?SetColorObject@TRedFountainAnimator@@UAEXXZ 0043f530 f i effect.obj
 0001:0003e570       ?Build@TGreenFountainAnimatorBuilder@@UAEPAVT3DAnimator@@PAVTObjectInstance@@@Z 0043f570 f i effect.obj
 0001:0003e620       ??_ETGreenFountainAnimator@@UAEPAXI@Z 0043f620 f i effect.obj
 0001:0003e620       ??_GTGreenFountainAnimator@@UAEPAXI@Z 0043f620 f i effect.obj
 0001:0003e650       ??1TGreenFountainAnimator@@UAE@XZ 0043f650 f i effect.obj
 0001:0003e6b0       ?SetColorObject@TGreenFountainAnimator@@UAEXXZ 0043f6b0 f i effect.obj
 0001:0003e6f0       ?Build@TBlueFountainAnimatorBuilder@@UAEPAVT3DAnimator@@PAVTObjectInstance@@@Z 0043f6f0 f i effect.obj
 0001:0003e7a0       ??_GTBlueFountainAnimator@@UAEPAXI@Z 0043f7a0 f i effect.obj
 0001:0003e7a0       ??_ETBlueFountainAnimator@@UAEPAXI@Z 0043f7a0 f i effect.obj
 0001:0003e7d0       ??1TBlueFountainAnimator@@UAE@XZ 0043f7d0 f i effect.obj
 0001:0003e830       ?SetColorObject@TBlueFountainAnimator@@UAEXXZ 0043f830 f i effect.obj
 0001:0003e870       ?Build@TRibbonAnimatorBuilder@@UAEPAVT3DAnimator@@PAVTObjectInstance@@@Z 0043f870 f i effect.obj
 0001:0003e910       ??_GTRibbonAnimator@@UAEPAXI@Z 0043f910 f i effect.obj
 0001:0003e910       ??_ETRibbonAnimator@@UAEPAXI@Z 0043f910 f i effect.obj
 0001:0003e940       ??1TRibbonAnimator@@UAE@XZ 0043f940 f i effect.obj
 0001:0003e9a0       ?Initialize@TRibbonAnimator@@UAEXXZ 0043f9a0 f   effect.obj
 0001:0003ec20       ?Animate@TRibbonAnimator@@UAEXH@Z 0043fc20 f   effect.obj
 0001:0003ef70       ?Render@TRibbonAnimator@@UAEHXZ 0043ff70 f   effect.obj
 0001:0003f3b0       ?Build@TShieldAnimatorBuilder@@UAEPAVT3DAnimator@@PAVTObjectInstance@@@Z 004403b0 f i effect.obj
 0001:0003f450       ??_GTShieldAnimator@@UAEPAXI@Z 00440450 f i effect.obj
 0001:0003f450       ??_ETShieldAnimator@@UAEPAXI@Z 00440450 f i effect.obj
 0001:0003f480       ??1TShieldAnimator@@UAE@XZ 00440480 f i effect.obj
 0001:0003f4e0       ?Initialize@TShieldAnimator@@UAEXXZ 004404e0 f   effect.obj
 0001:0003f520       ?Animate@TShieldAnimator@@UAEXH@Z 00440520 f   effect.obj
 0001:0003f540       ?Render@TShieldAnimator@@UAEHXZ 00440540 f   effect.obj
 0001:0003f6e0       ?Build@TFlameAnimatorBuilder@@UAEPAVT3DAnimator@@PAVTObjectInstance@@@Z 004406e0 f i effect.obj
 0001:0003f780       ??_GTFlameAnimator@@UAEPAXI@Z 00440780 f i effect.obj
 0001:0003f780       ??_ETFlameAnimator@@UAEPAXI@Z 00440780 f i effect.obj
 0001:0003f7b0       ??1TFlameAnimator@@UAE@XZ  004407b0 f i effect.obj
 0001:0003f810       ?Initialize@TFlameAnimator@@UAEXXZ 00440810 f   effect.obj
 0001:0003f870       ?Animate@TFlameAnimator@@UAEXH@Z 00440870 f   effect.obj
 0001:0003f8d0       ?Render@TFlameAnimator@@UAEHXZ 004408d0 f   effect.obj
 0001:0003fa30       ?Build@TFireBallAnimatorBuilder@@UAEPAVT3DAnimator@@PAVTObjectInstance@@@Z 00440a30 f i effect.obj
 0001:0003fad0       ??_GTFireBallAnimator@@UAEPAXI@Z 00440ad0 f i effect.obj
 0001:0003fad0       ??_ETFireBallAnimator@@UAEPAXI@Z 00440ad0 f i effect.obj
 0001:0003fb00       ??1TFireBallAnimator@@UAE@XZ 00440b00 f i effect.obj
 0001:0003fb60       ?Initialize@TFireBallAnimator@@UAEXXZ 00440b60 f   effect.obj
 0001:0003fec0       ?Animate@TFireBallAnimator@@UAEXH@Z 00440ec0 f   effect.obj
 0001:00040630       ?Render@TFireBallAnimator@@UAEHXZ 00441630 f   effect.obj
 0001:000408b0       ?Build@TSymGlowAnimatorBuilder@@UAEPAVT3DAnimator@@PAVTObjectInstance@@@Z 004418b0 f i effect.obj
 0001:00040950       ??_GTSymGlowAnimator@@UAEPAXI@Z 00441950 f i effect.obj
 0001:00040950       ??_ETSymGlowAnimator@@UAEPAXI@Z 00441950 f i effect.obj
 0001:00040980       ??1TSymGlowAnimator@@UAE@XZ 00441980 f i effect.obj
 0001:000409e0       ?SetupObjects@TSymGlowAnimator@@UAEXXZ 004419e0 f   effect.obj
 0001:00040a70       ?Animate@TSymGlowAnimator@@UAEXH@Z 00441a70 f   effect.obj
 0001:00040b60       ?Render@TSymGlowAnimator@@UAEHXZ 00441b60 f   effect.obj
 0001:00040cc0       ?BtnEquipDown@@YIXXZ       00441cc0 f   equip.obj
 0001:00040ce0       ?BtnEquipUp@@YIXXZ         00441ce0 f   equip.obj
 0001:00040d00       ?Initialize@TEquipPane@@UAEHXZ 00441d00 f   equip.obj
 0001:00040e70       ?MouseClick@TEquipPane@@UAEXHHH@Z 00441e70 f   equip.obj
 0001:00041280       ?DrawBackground@TEquipPane@@UAEXXZ 00442280 f   equip.obj
 0001:000414b0       ?Animate@TEquipPane@@UAEXH@Z 004424b0 f   equip.obj
 0001:00041530       ?Scroll@TEquipPane@@QAEXH@Z 00442530 f   equip.obj
 0001:00041580       ?DrawAnim@TEquipPane@@QAEXPAVTObjectInstance@@PAVTBitmap@@@Z 00442580 f   equip.obj
 0001:00041610       ?OnSlot@TEquipPane@@AAEHHH@Z 00442610 f   equip.obj
 0001:000417a0       ?Initialize@TExit@@SIHXZ   004427a0 f   exit.obj
 0001:000417c0       ?Close@TExit@@SIXXZ        004427c0 f   exit.obj
 0001:000417d0       ?ReadExitList@TExit@@KIHH@Z 004427d0 f   exit.obj
 0001:00041a80       ?Build@TExitBuilder@@UAEPAVTObjectInstance@@PAVSObjectDef@@PAVTObjectImagery@@@Z 00442a80 f i exit.obj
 0001:00041b70       ??_ETExit@@UAEPAXI@Z       00442b70 f i exit.obj
 0001:00041b70       ??_GTExit@@UAEPAXI@Z       00442b70 f i exit.obj
 0001:00041ba0       ??1TExit@@UAE@XZ           00442ba0 f i exit.obj
 0001:00041bc0       ?Unactivate@TExit@@UAEXXZ  00442bc0 f i exit.obj
 0001:00041bd0       ?CursorType@TExit@@UAEHPAVTObjectInstance@@@Z 00442bd0 f i exit.obj
 0001:00041bf0       ?Build@TExitBuilder@@UAEPAVTObjectInstance@@PAVTObjectImagery@@@Z 00442bf0 f i exit.obj
 0001:00041ce0       ?WriteExitList@TExit@@SIHXZ 00442ce0 f   exit.obj
 0001:00041e40       ?DestroyExitList@TExit@@KIXXZ 00442e40 f   exit.obj
 0001:00041eb0       ?GetExitStrip@TExit@@IAEXAAH00000@Z 00442eb0 f   exit.obj
 0001:00042350       ?AddExit@TExit@@SIHPADPAVTObjectInstance@@H@Z 00443350 f   exit.obj
 0001:00042610       ?FindExit@TExit@@KIPAUSExitRef@@PAD@Z 00443610 f   exit.obj
 0001:00042660       ?Use@TExit@@UAEHPAVTObjectInstance@@H@Z 00443660 f   exit.obj
 0001:00042820       ?Activate@TExit@@UAEHXZ    00443820 f   exit.obj
 0001:000428f0       ?Pulse@TExit@@UAEXXZ       004438f0 f   exit.obj
 0001:00042eb0       ?GetStatistic@TObjectClass@@QAEPAUSStatistic@@HH@Z 00443eb0 f i exit.obj
 0001:00042f10       ?UseRange@TExit@@UAEXAAH000@Z 00443f10 f   exit.obj
 0001:00042f20       ?Load@TExit@@UAEXAAVTInputStream@@H@Z 00443f20 f   exit.obj
 0001:00042f60       ?Save@TExit@@UAEXAAVTOutputStream@@@Z 00443f60 f   exit.obj
 0001:00042fd0       ?Build@TElevatorBuilder@@UAEPAVTObjectInstance@@PAVSObjectDef@@PAVTObjectImagery@@@Z 00443fd0 f i exit.obj
 0001:000430f0       ??_ETElevator@@UAEPAXI@Z   004440f0 f i exit.obj
 0001:000430f0       ??_GTElevator@@UAEPAXI@Z   004440f0 f i exit.obj
 0001:00043120       ??1TElevator@@UAE@XZ       00444120 f i exit.obj
 0001:00043140       ?Build@TElevatorBuilder@@UAEPAVTObjectInstance@@PAVTObjectImagery@@@Z 00444140 f i exit.obj
 0001:00043250       ?Activate@TElevator@@UAEHXZ 00444250 f   exit.obj
 0001:000432a0       ?Pulse@TElevator@@UAEXXZ   004442a0 f   exit.obj
 0001:000438f0       ?Build@TElevGlowAnimatorBuilder@@UAEPAVT3DAnimator@@PAVTObjectInstance@@@Z 004448f0 f i exit.obj
 0001:000439b0       ??_GTElevGlowAnimator@@UAEPAXI@Z 004449b0 f i exit.obj
 0001:000439b0       ??_ETElevGlowAnimator@@UAEPAXI@Z 004449b0 f i exit.obj
 0001:000439e0       ??1TElevGlowAnimator@@UAE@XZ 004449e0 f i exit.obj
 0001:00043a40       ?Animate@TElevGlowAnimator@@UAEXH@Z 00444a40 f   exit.obj
 0001:00043ab0       ?Render@TElevGlowAnimator@@UAEHXZ 00444ab0 f   exit.obj
 0001:00043b90       ?Build@TRotateWallBuilder@@UAEPAVTObjectInstance@@PAVSObjectDef@@PAVTObjectImagery@@@Z 00444b90 f i exit.obj
 0001:00043c90       ??_GTRotateWall@@UAEPAXI@Z 00444c90 f i exit.obj
 0001:00043c90       ??_ETRotateWall@@UAEPAXI@Z 00444c90 f i exit.obj
 0001:00043cc0       ??1TRotateWall@@UAE@XZ     00444cc0 f i exit.obj
 0001:00043ce0       ?Build@TRotateWallBuilder@@UAEPAVTObjectInstance@@PAVTObjectImagery@@@Z 00444ce0 f i exit.obj
 0001:00043de0       ?Use@TRotateWall@@UAEHPAVTObjectInstance@@H@Z 00444de0 f   exit.obj
 0001:00043ea0       ?CursorType@TRotateWall@@UAEHPAVTObjectInstance@@@Z 00444ea0 f   exit.obj
 0001:00043ef0       ?Activate@TRotateWall@@UAEHXZ 00444ef0 f   exit.obj
 0001:00043fa0       ?Pulse@TRotateWall@@UAEXXZ 00444fa0 f   exit.obj
 0001:000442c0       ?Build@TPressPlateBuilder@@UAEPAVTObjectInstance@@PAVSObjectDef@@PAVTObjectImagery@@@Z 004452c0 f i exit.obj
 0001:000443c0       ??_ETPressPlate@@UAEPAXI@Z 004453c0 f i exit.obj
 0001:000443c0       ??_GTPressPlate@@UAEPAXI@Z 004453c0 f i exit.obj
 0001:000443f0       ??1TPressPlate@@UAE@XZ     004453f0 f i exit.obj
 0001:00044410       ?Use@TPressPlate@@UAEHPAVTObjectInstance@@H@Z 00445410 f i exit.obj
 0001:00044420       ?CursorType@TPressPlate@@UAEHPAVTObjectInstance@@@Z 00445420 f i exit.obj
 0001:00044430       ?Build@TPressPlateBuilder@@UAEPAVTObjectInstance@@PAVTObjectImagery@@@Z 00445430 f i exit.obj
 0001:00044530       ?Activate@TPressPlate@@UAEHXZ 00445530 f   exit.obj
 0001:00044550       ?Unactivate@TPressPlate@@UAEXXZ 00445550 f   exit.obj
 0001:00044590       ?Build@TUpBlockBuilder@@UAEPAVTObjectInstance@@PAVSObjectDef@@PAVTObjectImagery@@@Z 00445590 f i exit.obj
 0001:00044690       ??_ETUpBlock@@UAEPAXI@Z    00445690 f i exit.obj
 0001:00044690       ??_GTUpBlock@@UAEPAXI@Z    00445690 f i exit.obj
 0001:000446c0       ??1TUpBlock@@UAE@XZ        004456c0 f i exit.obj
 0001:000446e0       ?CursorType@TUpBlock@@UAEHPAVTObjectInstance@@@Z 004456e0 f i exit.obj
 0001:000446f0       ?Build@TUpBlockBuilder@@UAEPAVTObjectInstance@@PAVTObjectImagery@@@Z 004456f0 f i exit.obj
 0001:000447f0       ?Pulse@TUpBlock@@UAEXXZ    004457f0 f   exit.obj
 0001:00044860       ?Use@TUpBlock@@UAEHPAVTObjectInstance@@H@Z 00445860 f   exit.obj
 0001:00044a30       ??1TScriptManager@@QAE@XZ  00445a30 f i exlmain.obj
 0001:00044cd0       ??1TLogoScreen@@UAE@XZ     00445cd0 f i exlmain.obj
 0001:00044d30       ??1TPlayScreen@@UAE@XZ     00445d30 f i exlmain.obj
 0001:00044dd0       ?Show@TInventory@@UAEXXZ   00445dd0 f i exlmain.obj
 0001:00044f70       ?GetHue@TStatusBar@@UAEHXZ 00445f70 f i exlmain.obj
 0001:00045280       ??_GTMainWindow@@UAEPAXI@Z 00446280 f i exlmain.obj
 0001:00045280       ??_ETMainWindow@@UAEPAXI@Z 00446280 f i exlmain.obj
 0001:000452b0       ?Update@TMapPane@@UAEXXZ   004462b0 f i exlmain.obj
 0001:00045330       @InitMultipleMonitorStubs@0 00446330 f   exlmain.obj
 0001:000454c0       _xGetSystemMetrics@4       004464c0 f   exlmain.obj
 0001:00045540       ??0TScriptManager@@QAE@XZ  00446540 f i exlmain.obj
 0001:00045580       ?InitSystem@@YIXXZ         00446580 f   exlmain.obj
 0001:000455b0       _xMonitorFromRect@8        004465b0 f   exlmain.obj
 0001:00045620       ?CloseSystem@@YIXXZ        00446620 f   exlmain.obj
 0001:000456e0       _xMonitorFromPoint@12      004466e0 f   exlmain.obj
 0001:00045740       _xMonitorFromWindow@8      00446740 f   exlmain.obj
 0001:000457a0       ?PauseThreads@@YIXXZ       004467a0 f   exlmain.obj
 0001:000457d0       ?ResumeThreads@@YIXXZ      004467d0 f   exlmain.obj
 0001:000457f0       _xGetMonitorInfo@8         004467f0 f   exlmain.obj
 0001:000458d0       ?ThreadError@@YIXPAD0@Z    004468d0 f   exlmain.obj
 0001:00045950       ?FatalError@@YIXPAD0@Z     00446950 f   exlmain.obj
 0001:00045a20       _xEnumDisplayMonitors@16   00446a20 f   exlmain.obj
 0001:00045b50       ?Error@@YIXPAD0@Z          00446b50 f   exlmain.obj
 0001:00045b70       ?xmalloc@@YIPAXH@Z         00446b70 f   exlmain.obj
 0001:00045bc0       ?xrealloc@@YIPAXPAXH@Z     00446bc0 f   exlmain.obj
 0001:00045c20       ?xfree@@YIXPAX@Z           00446c20 f   exlmain.obj
 0001:00045c60       ??2@YAPAXI@Z               00446c60 f   exlmain.obj
 0001:00045ca0       ??3@YAXPAX@Z               00446ca0 f   exlmain.obj
 0001:00045cb0       ?popen@@YIPAU_iobuf@@PAD0@Z 00446cb0 f   exlmain.obj
 0001:00045d00       ?random@@YIHHH@Z           00446d00 f   exlmain.obj
 0001:00045d60       ?MemUsed@@YIKXZ            00446d60 f   exlmain.obj
 0001:00045d80       ?FreeMem@@YIKXZ            00446d80 f   exlmain.obj
 0001:00045da0       ?TotalMem@@YIKXZ           00446da0 f   exlmain.obj
 0001:00045dc0       ?FreePhys@@YIKXZ           00446dc0 f   exlmain.obj
 0001:00045de0       ?TotalPhys@@YIKXZ          00446de0 f   exlmain.obj
 0001:00045e00       ?FreePage@@YIKXZ           00446e00 f   exlmain.obj
 0001:00045e20       ?TotalPage@@YIKXZ          00446e20 f   exlmain.obj
 0001:00045e40       ?GetProgramPaths@@YIXPAD00@Z 00446e40 f   exlmain.obj
 0001:00045fe0       ?GetParameters@@YIXPAD@Z   00446fe0 f   exlmain.obj
 0001:00046140       ?InitLanguage@@YIHXZ       00447140 f   exlmain.obj
 0001:00046150       ?MonitorEnumProc@@YGHPAX0PAUtagRECT@@J@Z 00447150 f   exlmain.obj
 0001:00046260       ?InitMonitor@@YIHXZ        00447260 f   exlmain.obj
 0001:000462a0       _WinMain@16                004472a0 f   exlmain.obj
 0001:000464c0       ?LoadFile@@YIPAXPBDPAXPAJ@Z 004474c0 f   File.obj
 0001:000465c0       ?FileExists@@YIHPBD@Z      004475c0 f   File.obj
 0001:000465f0       ?FileSize@@YIJPBD@Z        004475f0 f   File.obj
 0001:00046640       ?TryOpen@@YIPAU_iobuf@@PBD0@Z 00447640 f   File.obj
 0001:000466c0       ?TryDelete@@YIHPBD@Z       004476c0 f   File.obj
 0001:00046740       ?TryRename@@YIHPBD0@Z      00447740 f   File.obj
 0001:000467c0       ?GetChar@TFont@@QAEPAVTBitmap@@E@Z 004477c0 f   font.obj
 0001:00046850       ?FindNumLinesInText@TFont@@QAEHPADHH@Z 00447850 f   font.obj
 0001:00046930       ?Use@TFood@@UAEHPAVTObjectInstance@@H@Z 00447930 f   food.obj
 0001:00046970       ?Build@TFoodBuilder@@UAEPAVTObjectInstance@@PAVSObjectDef@@PAVTObjectImagery@@@Z 00447970 f i food.obj
 0001:00046a00       ??_ETFood@@UAEPAXI@Z       00447a00 f i food.obj
 0001:00046a00       ??_GTFood@@UAEPAXI@Z       00447a00 f i food.obj
 0001:00046a30       ??1TFood@@UAE@XZ           00447a30 f i food.obj
 0001:00046a50       ?CursorType@TFood@@UAEHPAVTObjectInstance@@@Z 00447a50 f i food.obj
 0001:00046a70       ?Build@TFoodBuilder@@UAEPAVTObjectInstance@@PAVTObjectImagery@@@Z 00447a70 f i food.obj
 0001:00046af0       ?Draw@@YIHPAUSDrawBlock@@PAUSDrawParam@@@Z 00447af0 f   graphics.obj
 0001:00046c60       ?GetPutFunction@@YIP6IHPAUSDrawBlock@@PAUSDrawParam@@@Z01@Z 00447c60 f   graphics.obj
 0001:00047280       ?ClipRect@@YIHAAUSRect@@00@Z 00448280 f   graphics.obj
 0001:00047370       ?SubtractRect@@YIHAAUSRect@@0PAU1@AAH@Z 00448370 f   graphics.obj
 0001:000475b0       ?Clip@@YIHPAUSDrawBlock@@PAUSDrawParam@@1AAH@Z 004485b0 f   graphics.obj
 0001:000484c0       ?StretchClip@@YIHPAUSDrawBlock@@PAUSDrawParam@@1AAH@Z 004494c0 f   graphics.obj
 0001:000484e0       ?Put@@YIHPAUSDrawBlock@@PAUSDrawParam@@@Z 004494e0 f   graphics.obj
 0001:000488a0       ?Put8@@YIHPAUSDrawBlock@@PAUSDrawParam@@@Z 004498a0 f   graphics.obj
 0001:00048c20       ?Put88@@YIHPAUSDrawBlock@@PAUSDrawParam@@@Z 00449c20 f   graphics.obj
 0001:00048fc0       ?Put816@@YIHPAUSDrawBlock@@PAUSDrawParam@@@Z 00449fc0 f   graphics.obj
 0001:00049330       ?Put32@@YIHPAUSDrawBlock@@PAUSDrawParam@@@Z 0044a330 f   graphics.obj
 0001:000499f0       ?ShutterPut@@YIHPAUSDrawBlock@@PAUSDrawParam@@@Z 0044a9f0 f   graphics.obj
 0001:00049dd0       ?ShutterPut8@@YIHPAUSDrawBlock@@PAUSDrawParam@@@Z 0044add0 f   graphics.obj
 0001:0004a1b0       ?ShutterPut816@@YIHPAUSDrawBlock@@PAUSDrawParam@@@Z 0044b1b0 f   graphics.obj
 0001:0004a580       ?ShutterPut32@@YIHPAUSDrawBlock@@PAUSDrawParam@@@Z 0044b580 f   graphics.obj
 0001:0004ad20       ?PutChunk8@@YIHPAUSDrawBlock@@PAUSDrawParam@@@Z 0044bd20 f   graphics.obj
 0001:0004b4e0       ?TransPut@@YIHPAUSDrawBlock@@PAUSDrawParam@@@Z 0044c4e0 f   graphics.obj
 0001:0004b8e0       ?TransPut8@@YIHPAUSDrawBlock@@PAUSDrawParam@@@Z 0044c8e0 f   graphics.obj
 0001:0004bc70       ?TransZStaticPut8@@YIHPAUSDrawBlock@@PAUSDrawParam@@@Z 0044cc70 f   graphics.obj
 0001:0004c070       ?TransZStaticPut816@@YIHPAUSDrawBlock@@PAUSDrawParam@@@Z 0044d070 f   graphics.obj
 0001:0004c470       ?TransPut816@@YIHPAUSDrawBlock@@PAUSDrawParam@@@Z 0044d470 f   graphics.obj
 0001:0004c800       ?TransPut88@@YIHPAUSDrawBlock@@PAUSDrawParam@@@Z 0044d800 f   graphics.obj
 0001:0004cb70       ?TransPutColor@@YIHPAUSDrawBlock@@PAUSDrawParam@@@Z 0044db70 f   graphics.obj
 0001:0004cf10       ?TransPutSVChange@@YIHPAUSDrawBlock@@PAUSDrawParam@@@Z 0044df10 f   graphics.obj
 0001:0004da30       ?PutHueChange@@YIHPAUSDrawBlock@@PAUSDrawParam@@@Z 0044ea30 f   graphics.obj
 0001:0004e260       ?TransPutKey@@YIHPAUSDrawBlock@@PAUSDrawParam@@@Z 0044f260 f   graphics.obj
 0001:0004e6e0       ?TransPut32@@YIHPAUSDrawBlock@@PAUSDrawParam@@@Z 0044f6e0 f   graphics.obj
 0001:0004edb0       ?Stretch@@YIHPAUSDrawBlock@@PAUSDrawParam@@@Z 0044fdb0 f   graphics.obj
 0001:0004edd0       ?TransStretch@@YIHPAUSDrawBlock@@PAUSDrawParam@@@Z 0044fdd0 f   graphics.obj
 0001:0004edf0       ?Mask@@YIHPAUSDrawBlock@@PAUSDrawParam@@@Z 0044fdf0 f   graphics.obj
 0001:0004f0e0       ?MaskStretch@@YIHPAUSDrawBlock@@PAUSDrawParam@@@Z 004500e0 f   graphics.obj
 0001:0004f100       ?Translucent@@YIHPAUSDrawBlock@@PAUSDrawParam@@@Z 00450100 f   graphics.obj
 0001:0004f490       ?TransTranslucent@@YIHPAUSDrawBlock@@PAUSDrawParam@@@Z 00450490 f   graphics.obj
 0001:0004f830       ?TranslucentStretch@@YIHPAUSDrawBlock@@PAUSDrawParam@@@Z 00450830 f   graphics.obj
 0001:0004f850       ?AlphaLighten@@YIHPAUSDrawBlock@@PAUSDrawParam@@@Z 00450850 f   graphics.obj
 0001:0004fcd0       ?Alpha@@YIHPAUSDrawBlock@@PAUSDrawParam@@@Z 00450cd0 f   graphics.obj
 0001:00050110       ?Alpha8@@YIHPAUSDrawBlock@@PAUSDrawParam@@@Z 00451110 f   graphics.obj
 0001:000505a0       ?AlphaZ@@YIHPAUSDrawBlock@@PAUSDrawParam@@@Z 004515a0 f   graphics.obj
 0001:00050a30       ?AlphaZ8@@YIHPAUSDrawBlock@@PAUSDrawParam@@@Z 00451a30 f   graphics.obj
 0001:00050f00       ?AlphaDim@@YIHPAUSDrawBlock@@PAUSDrawParam@@@Z 00451f00 f   graphics.obj
 0001:000513a0       ?AlphaDimZ@@YIHPAUSDrawBlock@@PAUSDrawParam@@@Z 004523a0 f   graphics.obj
 0001:00051890       ?AlphaDimZNoBitmap@@YIHPAUSDrawBlock@@PAUSDrawParam@@@Z 00452890 f   graphics.obj
 0001:00051d80       ?Alpha32@@YIHPAUSDrawBlock@@PAUSDrawParam@@@Z 00452d80 f   graphics.obj
 0001:00052230       ?Alias@@YIHPAUSDrawBlock@@PAUSDrawParam@@@Z 00453230 f   graphics.obj
 0001:00052670       ?AliasColor@@YIHPAUSDrawBlock@@PAUSDrawParam@@@Z 00453670 f   graphics.obj
 0001:00052af0       ?Alias32@@YIHPAUSDrawBlock@@PAUSDrawParam@@@Z 00453af0 f   graphics.obj
 0001:00052cd0       ?DrawSelected8@@YIHPAUSDrawBlock@@PAUSDrawParam@@@Z 00453cd0 f   graphics.obj
 0001:000530b0       ?DrawSelected@@YIHPAUSDrawBlock@@PAUSDrawParam@@@Z 004540b0 f   graphics.obj
 0001:00053500       ?ZPut@@YIHPAUSDrawBlock@@PAUSDrawParam@@@Z 00454500 f   graphics.obj
 0001:00053920       ?ZPut8@@YIHPAUSDrawBlock@@PAUSDrawParam@@@Z 00454920 f   graphics.obj
 0001:00053df0       ?ZPut816@@YIHPAUSDrawBlock@@PAUSDrawParam@@@Z 00454df0 f   graphics.obj
 0001:00054250       ?ZPut32@@YIHPAUSDrawBlock@@PAUSDrawParam@@@Z 00455250 f   graphics.obj
 0001:00054af0       ?ShutterZPut@@YIHPAUSDrawBlock@@PAUSDrawParam@@@Z 00455af0 f   graphics.obj
 0001:00054f60       ?ShutterZPut8@@YIHPAUSDrawBlock@@PAUSDrawParam@@@Z 00455f60 f   graphics.obj
 0001:00055440       ?ShutterZPut816@@YIHPAUSDrawBlock@@PAUSDrawParam@@@Z 00456440 f   graphics.obj
 0001:00055900       ?ShutterZPut32@@YIHPAUSDrawBlock@@PAUSDrawParam@@@Z 00456900 f   graphics.obj
 0001:000562a0       ?ZNormalPut@@YIHPAUSDrawBlock@@PAUSDrawParam@@@Z 004572a0 f   graphics.obj
 0001:00056710       ?ZNormalPut8@@YIHPAUSDrawBlock@@PAUSDrawParam@@@Z 00457710 f   graphics.obj
 0001:00056bd0       ?ZNormalPut816@@YIHPAUSDrawBlock@@PAUSDrawParam@@@Z 00457bd0 f   graphics.obj
 0001:00057090       ?ZNormalPut32@@YIHPAUSDrawBlock@@PAUSDrawParam@@@Z 00458090 f   graphics.obj
 0001:00057970       ?ShutterZNormalPut@@YIHPAUSDrawBlock@@PAUSDrawParam@@@Z 00458970 f   graphics.obj
 0001:00057e20       ?ShutterZNormalPut8@@YIHPAUSDrawBlock@@PAUSDrawParam@@@Z 00458e20 f   graphics.obj
 0001:00058330       ?ShutterZNormalPut816@@YIHPAUSDrawBlock@@PAUSDrawParam@@@Z 00459330 f   graphics.obj
 0001:00058840       ?ShutterZNormalPut32@@YIHPAUSDrawBlock@@PAUSDrawParam@@@Z 00459840 f   graphics.obj
 0001:000591c0       ?ZFind@@YIHPAUSDrawBlock@@PAUSDrawParam@@@Z 0045a1c0 f   graphics.obj
 0001:000597d0       ?ZStretch@@YIHPAUSDrawBlock@@PAUSDrawParam@@@Z 0045a7d0 f   graphics.obj
 0001:00059810       ?ZMaskStretch@@YIHPAUSDrawBlock@@PAUSDrawParam@@@Z 0045a810 f   graphics.obj
 0001:00059850       ?Box@@YIHPAUSDrawBlock@@PAUSDrawParam@@@Z 0045a850 f   graphics.obj
 0001:00059fa0       ?SetupDraw@@YIXPAH00000PAUSDrawBlock@@PAUSDrawParam@@@Z 0045afa0 f i graphics.obj
 0001:0005a160       ?Convert15to16@@YIHPAVTBitmapData@@@Z 0045b160 f   graphics.obj
 0001:0005a6c0       ?ConvertPal15to16@@YIHPAVTBitmapData@@@Z 0045b6c0 f   graphics.obj
 0001:0005a7a0       ?Convert16to15@@YIHPAVTBitmapData@@@Z 0045b7a0 f   graphics.obj
 0001:0005ace0       ?ConvertPal16to15@@YIHPAVTBitmapData@@@Z 0045bce0 f   graphics.obj
 0001:0005add0       ?LineDraw@@YIHPAUSDrawBlock@@PAUSDrawParam@@@Z 0045bdd0 f   graphics.obj
 0001:0005b560       ?TextDraw@@YIHPAUSDrawBlock@@PAUSDrawParam@@@Z 0045c560 f   graphics.obj
 0001:0005bd20       ?ZFindChunk@@YIGPAUSDrawBlock@@PAUSDrawParam@@@Z 0045cd20 f   graphics.obj
 0001:0005bfd0       ?Build@THelperBuilder@@UAEPAVTObjectInstance@@PAVSObjectDef@@PAVTObjectImagery@@@Z 0045cfd0 f i helper.obj
 0001:0005c070       ??_GTHelper@@UAEPAXI@Z     0045d070 f i helper.obj
 0001:0005c070       ??_ETHelper@@UAEPAXI@Z     0045d070 f i helper.obj
 0001:0005c0a0       ??1THelper@@UAE@XZ         0045d0a0 f i helper.obj
 0001:0005c0c0       ?Build@THelperBuilder@@UAEPAVTObjectInstance@@PAVTObjectImagery@@@Z 0045d0c0 f i helper.obj
 0001:0005c170       ?Build@THelperAnimatorBuilder@@UAEPAVT3DAnimator@@PAVTObjectInstance@@@Z 0045d170 f i helper.obj
 0001:0005c210       ??_GTHelperAnimator@@UAEPAXI@Z 0045d210 f i helper.obj
 0001:0005c210       ??_ETHelperAnimator@@UAEPAXI@Z 0045d210 f i helper.obj
 0001:0005c240       ??1THelperAnimator@@UAE@XZ 0045d240 f i helper.obj
 0001:0005c2a0       ?SetupObjects@THelperAnimator@@UAEXXZ 0045d2a0 f   helper.obj
 0001:0005c2d0       ?Render@THelperAnimator@@UAEHXZ 0045d2d0 f   helper.obj
 0001:0005c5d0       ??0TObjectAnimator@@QAE@PAVTObjectInstance@@@Z 0045d5d0 f   imagery.obj
 0001:0005c640       ??_ETObjectAnimator@@UAEPAXI@Z 0045d640 f i imagery.obj
 0001:0005c640       ??_GTObjectAnimator@@UAEPAXI@Z 0045d640 f i imagery.obj
 0001:0005c670       ??1TObjectAnimator@@UAE@XZ 0045d670 f   imagery.obj
 0001:0005c690       ?Animate@TObjectAnimator@@UAEXH@Z 0045d690 f   imagery.obj
 0001:0005c9f0       ??0TImageryBuilder@@QAE@H@Z 0045d9f0 f   imagery.obj
 0001:0005ca40       ??0TObjectImagery@@QAE@H@Z 0045da40 f   imagery.obj
 0001:0005cab0       ??_GTObjectImagery@@UAEPAXI@Z 0045dab0 f i imagery.obj
 0001:0005cab0       ??_ETObjectImagery@@UAEPAXI@Z 0045dab0 f i imagery.obj
 0001:0005cae0       ?GetZ@TObjectImagery@@UAEHPAVTObjectInstance@@PAVTSurface@@@Z 0045dae0 f i imagery.obj
 0001:0005caf0       ?AlwaysOnTop@TObjectImagery@@UAEHPAVTObjectInstance@@@Z 0045daf0 f i imagery.obj
 0001:0005cb00       ?NewObjectAnimator@TObjectImagery@@UAEPAVTObjectAnimator@@PAVTObjectInstance@@@Z 0045db00 f i imagery.obj
 0001:0005cb10       ?NeedsAnimator@TObjectImagery@@UAEHPAVTObjectInstance@@@Z 0045db10 f i imagery.obj
 0001:0005cb20       ??1TObjectImagery@@UAE@XZ  0045db20 f   imagery.obj
 0001:0005cb40       ?RegisterImagery@TObjectImagery@@SIHPAD@Z 0045db40 f   imagery.obj
 0001:0005cf50       ?FreeImagery@TObjectImagery@@SIXH@Z 0045df50 f   imagery.obj
 0001:0005cfc0       ?FreeAllImagery@TObjectImagery@@SIXXZ 0045dfc0 f   imagery.obj
 0001:0005d000       ?ReloadImagery@TObjectImagery@@SIXXZ 0045e000 f   imagery.obj
 0001:0005d090       ?SetImageryPath@TObjectImagery@@SIXPAD@Z 0045e090 f   imagery.obj
 0001:0005d0c0       ?GetImageryPath@TObjectImagery@@SIPADXZ 0045e0c0 f   imagery.obj
 0001:0005d0d0       ?SaveAllHeaders@TObjectImagery@@SIXXZ 0045e0d0 f   imagery.obj
 0001:0005d100       ?SetEntryReg@TObjectImagery@@SIXHHHHH@Z 0045e100 f   imagery.obj
 0001:0005d180       ?LoadImagery@TObjectImagery@@SIPAV1@H@Z 0045e180 f   imagery.obj
 0001:0005d250       ?FreeImagery@TObjectImagery@@SIXPAV1@@Z 0045e250 f   imagery.obj
 0001:0005d340       ?FindState@TObjectImagery@@UAEHPAD@Z 0045e340 f   imagery.obj
 0001:0005d3c0       ?StateMatch@@YIHPAD0@Z     0045e3c0 f   imagery.obj
 0001:0005d480       ?FindTransitionState@TObjectImagery@@UAEHPAD0@Z 0045e480 f   imagery.obj
 0001:0005d590       ?GetUseCount@TObjectImagery@@QAEHXZ 0045e590 f   imagery.obj
 0001:0005d5b0       ?GetScreenRect@TObjectImagery@@UAEXPAVTObjectInstance@@AAUSRect@@@Z 0045e5b0 f   imagery.obj
 0001:0005d6c0       ?GetAnimRect@TObjectImagery@@UAEXPAVTObjectInstance@@AAUSRect@@@Z 0045e6c0 f   imagery.obj
 0001:0005d7c0       ?ResetScreenRect@TObjectImagery@@UAEXPAVTObjectInstance@@H@Z 0045e7c0 f   imagery.obj
 0001:0005d890       ?SaveHeader@TObjectImagery@@SIXH@Z 0045e890 f   imagery.obj
 0001:0005d930       ?SetWorldBoundBox@TObjectImagery@@UAEXHHHH@Z 0045e930 f   imagery.obj
 0001:0005dcd0       ?BeginLoaderThread@TObjectImagery@@SIXXZ 0045ecd0 f   imagery.obj
 0001:0005dd30       ?EndLoaderThread@TObjectImagery@@SIXXZ 0045ed30 f   imagery.obj
 0001:0005dd60       ?LoaderThread@TObjectImagery@@SAXPAX@Z 0045ed60 f   imagery.obj
 0001:0005df40       ?PauseLoader@TObjectImagery@@SIXXZ 0045ef40 f   imagery.obj
 0001:0005df60       ?ResumeLoader@TObjectImagery@@SIXXZ 0045ef60 f   imagery.obj
 0001:0005df80       ?LoadBody@TObjectImagery@@QAEPAUSImageryBody@@H@Z 0045ef80 f   imagery.obj
 0001:0005e110       ?FreeBody@TObjectImagery@@QAEXXZ 0045f110 f   imagery.obj
 0001:0005e1f0       ?Initialize@TInventory@@UAEHXZ 0045f1f0 f   inventory.obj
 0001:0005e230       ?Close@TInventory@@UAEXXZ  0045f230 f   inventory.obj
 0001:0005e240       ?DrawBackground@TInventory@@UAEXXZ 0045f240 f   inventory.obj
 0001:0005e470       ?Animate@TInventory@@UAEXH@Z 0045f470 f   inventory.obj
 0001:0005e4f0       ?MouseClick@TInventory@@UAEXHHH@Z 0045f4f0 f   inventory.obj
 0001:0005e920       ?MouseMove@TInventory@@UAEXHHH@Z 0045f920 f   inventory.obj
 0001:0005ea90       ?DrawAnim@TInventory@@QAEXPAVTObjectInstance@@PAVTBitmap@@@Z 0045fa90 f   inventory.obj
 0001:0005eba0       ?OnSlot@TInventory@@AAEHHH@Z 0045fba0 f   inventory.obj
 0001:0005ec30       ?SwapSlots@TInventory@@AAEXHH@Z 0045fc30 f   inventory.obj
 0001:0005ed00       ?Build@TKeyBuilder@@UAEPAVTObjectInstance@@PAVSObjectDef@@PAVTObjectImagery@@@Z 0045fd00 f i key.obj
 0001:0005ed90       ??_ETKey@@UAEPAXI@Z        0045fd90 f i key.obj
 0001:0005ed90       ??_GTKey@@UAEPAXI@Z        0045fd90 f i key.obj
 0001:0005edc0       ??1TKey@@UAE@XZ            0045fdc0 f i key.obj
 0001:0005ede0       ?Build@TKeyBuilder@@UAEPAVTObjectInstance@@PAVTObjectImagery@@@Z 0045fde0 f i key.obj
 0001:0005eec0       ?Build@TLightSourceBuilder@@UAEPAVTObjectInstance@@PAVSObjectDef@@PAVTObjectImagery@@@Z 0045fec0 f i lightsource.obj
 0001:0005ef50       ??_ETLightSource@@UAEPAXI@Z 0045ff50 f i lightsource.obj
 0001:0005ef50       ??_GTLightSource@@UAEPAXI@Z 0045ff50 f i lightsource.obj
 0001:0005ef80       ??1TLightSource@@UAE@XZ    0045ff80 f i lightsource.obj
 0001:0005efa0       ?Build@TLightSourceBuilder@@UAEPAVTObjectInstance@@PAVTObjectImagery@@@Z 0045ffa0 f i lightsource.obj
 0001:0005f020       ??0TLogoScreen@@QAE@XZ     00460020 f   logoscreen.obj
 0001:0005f050       ??_GTLogoScreen@@UAEPAXI@Z 00460050 f i logoscreen.obj
 0001:0005f050       ??_ETLogoScreen@@UAEPAXI@Z 00460050 f i logoscreen.obj
 0001:0005f080       ?Initialize@TLogoScreen@@UAEHXZ 00460080 f   logoscreen.obj
 0001:0005f0f0       ?InitScreenRestore@TLogoScreen@@QAEXXZ 004600f0 f   logoscreen.obj
 0001:0005f100       ?Close@TLogoScreen@@UAEXXZ 00460100 f   logoscreen.obj
 0001:0005f110       ?PutPixel@@YIXHHUSColor@@PAG@Z 00460110 f   logoscreen.obj
 0001:0005f1c0       ?DrawBackground@TLogoScreen@@UAEXXZ 004601c0 f   logoscreen.obj
 0001:0005f6a0       ?Animate@TLogoScreen@@UAEXH@Z 004606a0 f   logoscreen.obj
 0001:0005f6b0       ?MouseClick@TLogoScreen@@UAEXHHH@Z 004606b0 f   logoscreen.obj
 0001:0005f6c0       ?KeyPress@TLogoScreen@@UAEXHH@Z 004606c0 f   logoscreen.obj
 0001:0005f6f0       ?Joystick@TLogoScreen@@UAEXHHH@Z 004606f0 f   logoscreen.obj
 0001:0005f700       ?Command@TLogoScreen@@UAEXH@Z 00460700 f   logoscreen.obj
 0001:0005f710       ?ShowScreen@TLogoScreen@@SIPAVTScreen@@PAV2@H@Z 00460710 f   logoscreen.obj
 0001:0005f7e0       ?TimerTick@TLogoScreen@@UAEHH@Z 004607e0 f   logoscreen.obj
 0001:0005f870       ?TimerLoop@TLogoScreen@@UAEHJ@Z 00460870 f   logoscreen.obj
 0001:0005f8c0       ?Redraw@TScreen@@UAEXXZ    004608c0 f i logoscreen.obj
 0001:0005f8e0       ??0CLZSS@@QAE@XZ           004608e0 f   Lzss.obj
 0001:0005f8f0       ??1CLZSS@@QAE@XZ           004608f0 f   Lzss.obj
 0001:0005f900       ?InitTree@CLZSS@@IAEXXZ    00460900 f   Lzss.obj
 0001:0005f970       ?InsertNode@CLZSS@@IAEXH@Z 00460970 f   Lzss.obj
 0001:0005fbd0       ?DeleteNode@CLZSS@@IAEXH@Z 00460bd0 f   Lzss.obj
 0001:0005fdc0       ?PutByte@CLZSS@@IAEHE@Z    00460dc0 f   Lzss.obj
 0001:0005fe70       ?LZSS@CLZSS@@QAEJHPAEJAAJ@Z 00460e70 f   Lzss.obj
 0001:00060310       ?GetByte@CLZSS@@IAEHXZ     00461310 f   Lzss.obj
 0001:00060400       ?UnLZSS@CLZSS@@QAEJHPAEJ@Z 00461400 f   Lzss.obj
 0001:00060b00       ?Initialize@TMainWindow@@QAEHPAX0PADH@Z 00461b00 f   Mainwnd.obj
 0001:00060ea0       ?Close@TMainWindow@@QAEXXZ 00461ea0 f   Mainwnd.obj
 0001:00060ec0       ??1TMainWindow@@UAE@XZ     00461ec0 f   Mainwnd.obj
 0001:00061890       ?Initialize@TMapPane@@UAEHXZ 00462890 f   Mappane.obj
 0001:00061b30       ?Close@TMapPane@@UAEXXZ    00462b30 f   Mappane.obj
 0001:00061b80       ?SetupSurfaces@TMapPane@@QAEXHHHH@Z 00462b80 f   Mappane.obj
 0001:00061f20       ??_ETMosaicSurface@@UAEPAXI@Z 00462f20 f i Mappane.obj
 0001:00061f20       ??_GTMosaicSurface@@UAEPAXI@Z 00462f20 f i Mappane.obj
 0001:00061f50       ?SurfaceType@TMosaicSurface@@UAEHXZ 00462f50 f i Mappane.obj
 0001:00061f60       ?GetZBuffer@TMosaicSurface@@UAEPAVTSurface@@XZ 00462f60 f i Mappane.obj
 0001:00061f80       ?GetNormalBuffer@TMosaicSurface@@UAEPAVTSurface@@XZ 00462f80 f i Mappane.obj
 0001:00061fa0       ?BitsPerPixel@TMosaicSurface@@UAEHXZ 00462fa0 f i Mappane.obj
 0001:00061fc0       ?GetDDSurface@TMosaicSurface@@UAEPAUIDirectDrawSurface@@XZ 00462fc0 f i Mappane.obj
 0001:00061fe0       ?Lost@TMosaicSurface@@UAEHXZ 00462fe0 f i Mappane.obj
 0001:00062000       ?Lock@TMosaicSurface@@UAEPAXXZ 00463000 f i Mappane.obj
 0001:00062020       ?Unlock@TMosaicSurface@@UAEHXZ 00463020 f i Mappane.obj
 0001:00062040       ?UseGetBlit@TMosaicSurface@@UAEHXZ 00463040 f i Mappane.obj
 0001:00062050       ?DeleteSurfaces@TMapPane@@QAEXXZ 00463050 f   Mappane.obj
 0001:00062190       ?UpdateMovementControl@@YIXXZ 00463190 f   Mappane.obj
 0001:000625f0       ?UpdateControl@@YIXHH@Z    004635f0 f   Mappane.obj
 0001:00062620       ?SnapWalkDisplay@TMapPane@@QAEXH@Z 00463620 f   Mappane.obj
 0001:00062730       ?KeyPress@TMapPane@@UAEXHH@Z 00463730 f   Mappane.obj
 0001:00062bd0       ?FindClickPos@TMapPane@@QAEXHHAAUS3DPoint@@0@Z 00463bd0 f   Mappane.obj
 0001:00062e40       ?UpdateMouseMovement@TMapPane@@QAEXHH@Z 00463e40 f   Mappane.obj
 0001:00063010       ?MouseClick@TMapPane@@UAEXHHH@Z 00464010 f   Mappane.obj
 0001:00064020       ?MouseMove@TMapPane@@UAEXHHH@Z 00465020 f   Mappane.obj
 0001:00064820       ?MoveObjScreen@TMapPane@@QAEXHHH@Z 00465820 f   Mappane.obj
 0001:00064950       ?SetMapPos@TMapPane@@QAEXAAUS3DPoint@@@Z 00465950 f   Mappane.obj
 0001:000649d0       ?NewObject@TMapPane@@QAEHPAVSObjectDef@@@Z 004659d0 f   Mappane.obj
 0001:00064aa0       ?AddObject@TMapPane@@QAEHPAVTObjectInstance@@@Z 00465aa0 f   Mappane.obj
 0001:00064bf0       ?RemoveObject@TMapPane@@QAEPAVTObjectInstance@@H@Z 00465bf0 f   Mappane.obj
 0001:00064d90       ?AddShadow@TMapPane@@QAEHPAVTObjectInstance@@@Z 00465d90 f   Mappane.obj
 0001:00064f00       ?FindObject@TMapPane@@QAEHPADH@Z 00465f00 f   Mappane.obj
 0001:00064fd0       ?FindClosestLights@TMapPane@@QAEXUS3DPoint@@@Z 00465fd0 f   Mappane.obj
 0001:00065960       ?FindClosestObject@TMapPane@@QAEHPADUS3DPoint@@H@Z 00466960 f   Mappane.obj
 0001:00065c70       ?FindClosestObject@TMapPane@@QAEHPADPAVTObjectInstance@@H@Z 00466c70 f   Mappane.obj
 0001:00065d20       ?FindObjectsInRange@TMapPane@@QAEHUS3DPoint@@PAHHHHH@Z 00466d20 f   Mappane.obj
 0001:000663d0       ?MakeIndex@TMapPane@@QAEHPAVTObjectInstance@@H@Z 004673d0 f   Mappane.obj
 0001:00066470       ?OnObject@TMapPane@@QAEHHHPAVTObjectInstance@@@Z 00467470 f   Mappane.obj
 0001:00066750       ?GetInstance@TMapPane@@QAEPAVTObjectInstance@@H@Z 00467750 f   Mappane.obj
 0001:00066850       ?WalkmapHandler@TMapPane@@AAEXPAVTObjectInstance@@H@Z 00467850 f   Mappane.obj
 0001:00066d40       ?RedrawWalkmapRect@TMapPane@@AAEXPAVTObjectInstance@@HHHHPAVTSector@@@Z 00467d40 f   Mappane.obj
 0001:00067000       ?GetWalkHeight@TMapPane@@QAEHAAUS3DPoint@@@Z 00468000 f   Mappane.obj
 0001:000670c0       ?GetWalkHeightArea@TMapPane@@QAEHAAUS3DPoint@@HH@Z 004680c0 f   Mappane.obj
 0001:000671c0       ?TransferAllWalkmaps@TMapPane@@QAEXXZ 004681c0 f   Mappane.obj
 0001:000672a0       ?SetOwners@TMapPane@@QAEXPAVTSector@@@Z 004682a0 f   Mappane.obj
 0001:00067320       ?LineOfSight@TMapPane@@QAEHAAUS3DPoint@@0PAU2@@Z 00468320 f   Mappane.obj
 0001:000675e0       ?DrawDLight@TMapPane@@QAEXXZ 004685e0 f   Mappane.obj
 0001:000675f0       ?SetAmbientLight@TMapPane@@QAEXHHHH@Z 004685f0 f   Mappane.obj
 0001:00067660       ?Update3DScenePos@TMapPane@@AAEXXZ 00468660 f   Mappane.obj
 0001:000676e0       ?DrawBackground@TMapPane@@UAEXXZ 004686e0 f   Mappane.obj
 0001:00067ba0       ?RedrawAll@TMapPane@@QAEXXZ 00468ba0 f   Mappane.obj
 0001:00067de0       ?AddBgUpdateRect@TMapPane@@QAEXAAUSRect@@H@Z 00468de0 f   Mappane.obj
 0001:00067ea0       ?AddObjectUpdateRect@TMapPane@@QAEXH@Z 00468ea0 f   Mappane.obj
 0001:00067ef0       ?ReloadImagery@TMapPane@@QAEXXZ 00468ef0 f   Mappane.obj
 0001:00067f80       ?BeginUpdateThread@TMapPane@@QAEXXZ 00468f80 f   Mappane.obj
 0001:00068030       ?EndUpdateThread@TMapPane@@QAEXXZ 00469030 f   Mappane.obj
 0001:000680b0       ?ClearMutex@@YIXPAX@Z      004690b0 f   Mappane.obj
 0001:000680d0       ?GetUpdateSleep@TMapPane@@QAEHXZ 004690d0 f   Mappane.obj
 0001:000680e0       ?UpdateTimeSlice@TMapPane@@QAEXH@Z 004690e0 f   Mappane.obj
 0001:00068220       ?AdjustTimeSlice@TMapPane@@QAEXH@Z 00469220 f   Mappane.obj
 0001:00068370       ?UpdateEdges@TMapPane@@QAEXHH@Z 00469370 f   Mappane.obj
 0001:00068e90       ?BeginUpdate@TMapPane@@QAEXXZ 00469e90 f   Mappane.obj
 0001:00068ee0       ?UpdateDone@TMapPane@@QAEHXZ 00469ee0 f   Mappane.obj
 0001:00068f00       ?CancelUpdate@TMapPane@@QAEXXZ 00469f00 f   Mappane.obj
 0001:00068f60       ?WaitUpdate@TMapPane@@QAEKXZ 00469f60 f   Mappane.obj
 0001:00069000       ?ClearQueueRects@TMapPane@@QAEXXZ 0046a000 f   Mappane.obj
 0001:00069040       ?QueueUpdateRect@TMapPane@@QAEXAAUSRect@@H@Z 0046a040 f   Mappane.obj
 0001:00069130       ?PutQueueRectsToDisplay@TMapPane@@QAEXXZ 0046a130 f   Mappane.obj
 0001:000691f0       ?UpdateThread@TMapPane@@SAXPAX@Z 0046a1f0 f   Mappane.obj
 0001:00069270       ?UpdateLoop@TMapPane@@QAEXXZ 0046a270 f   Mappane.obj
 0001:00069490       ?PauseUpdate@TMapPane@@QAEXPADH@Z 0046a490 f   Mappane.obj
 0001:000694e0       ?ResumeUpdate@TMapPane@@QAEXXZ 0046a4e0 f   Mappane.obj
 0001:00069520       ?LockSectors@TMapPane@@QAEXPADH@Z 0046a520 f   Mappane.obj
 0001:00069570       ?UnlockSectors@TMapPane@@QAEXXZ 0046a570 f   Mappane.obj
 0001:000695b0       ?LockObjects@TMapPane@@QAEXPADH@Z 0046a5b0 f   Mappane.obj
 0001:00069600       ?UnlockObjects@TMapPane@@QAEXXZ 0046a600 f   Mappane.obj
 0001:00069640       ?LoadMapChunk@TMapPane@@QAEHHHHPAVTSurface@@@Z 0046a640 f   Mappane.obj
 0001:00069770       ?SaveMapChunk@TMapPane@@QAEHHHHPAVTSurface@@@Z 0046a770 f   Mappane.obj
 0001:000698a0       ?DrawBufferedUpdateRect@TMapPane@@QAEXAAUSRect@@H@Z 0046a8a0 f   Mappane.obj
 0001:00069a70       ?DrawUpdateRect@TMapPane@@QAEXAAUSRect@@H@Z 0046aa70 f   Mappane.obj
 0001:00069c00       ?GetUpdateObjs@TMapPane@@QAEXAAUSRect@@@Z 0046ac00 f   Mappane.obj
 0001:00069f10       ?DrawUnlitObjects@TMapPane@@QAEXAAUSRect@@@Z 0046af10 f   Mappane.obj
 0001:0006a0c0       ?DrawStaticLights@TMapPane@@QAEXAAUSRect@@@Z 0046b0c0 f   Mappane.obj
 0001:0006a310       ?DrawLitObjects@TMapPane@@QAEXAAUSRect@@@Z 0046b310 f   Mappane.obj
 0001:0006a440       ?DrawWalkMap@TMapPane@@AAEXAAUSRect@@@Z 0046b440 f   Mappane.obj
 0001:0006a820       ?DrawSelectedObjects@TMapPane@@QAEXAAUSRect@@@Z 0046b820 f   Mappane.obj
 0001:0006a940       ?AnimateSelectedObjects@TMapPane@@QAEXXZ 0046b940 f   Mappane.obj
 0001:0006ae00       ?PulseObjects@TMapPane@@QAEXXZ 0046be00 f   Mappane.obj
 0001:0006af60       ?AnimateObjects@TMapPane@@QAEXH@Z 0046bf60 f   Mappane.obj
 0001:0006b280       ?SaveAllSectors@TMapPane@@QAEXXZ 0046c280 f   Mappane.obj
 0001:0006b2f0       ?FreeAllSectors@TMapPane@@QAEXXZ 0046c2f0 f   Mappane.obj
 0001:0006b3c0       ?ReloadSectors@TMapPane@@QAEXXZ 0046c3c0 f   Mappane.obj
 0001:0006b400       ?UpdateSectors@TMapPane@@QAEXXZ 0046c400 f   Mappane.obj
 0001:0006b810       ?GetPlayerFocus@TMapPane@@QAEXAAUS3DPoint@@@Z 0046c810 f   Mappane.obj
 0001:0006b970       ?Animate@TMapPane@@UAEXH@Z 0046c970 f   Mappane.obj
 0001:0006c4c0       ?AddToInventory@TMapPane@@QAEXPAVTObjectInstance@@HH@Z 0046d4c0 f   Mappane.obj
 0001:0006c5c0       ?FindFreeInvSlot@TMapPane@@QAEHPAVTObjectInstance@@@Z 0046d5c0 f   Mappane.obj
 0001:0006c680       ?FindObjInventory@TMapPane@@QAEPAVTObjectInstance@@PAV2@PAD@Z 0046d680 f   Mappane.obj
 0001:0006c790       ?InventoryItem@TMapPane@@QAEPAVTObjectInstance@@PAV2@H@Z 0046d790 f   Mappane.obj
 0001:0006c800       ?RemoveFromInventory@TMapPane@@QAEPAVTObjectInstance@@PAV2@H@Z 0046d800 f   Mappane.obj
 0001:0006c930       ?GetOwner@TMapPane@@QAEPAVTObjectInstance@@PAV2@@Z 0046d930 f   Mappane.obj
 0001:0006ca90       ?MoneyHandler@TMapPane@@QAEHPAVTObjectInstance@@H@Z 0046da90 f   Mappane.obj
 0001:0006cd10       ?SubtractMoney@TMapPane@@QAEHPAVTObjectInstance@@H@Z 0046dd10 f   Mappane.obj
 0001:0006cd50       ?GetTotalMoney@TMapPane@@QAEHPAVTObjectInstance@@@Z 0046dd50 f   Mappane.obj
 0001:0006cd70       ?CheckPos@TMapPane@@QAEHPAVTObjectInstance@@AAUS3DPoint@@@Z 0046dd70 f   Mappane.obj
 0001:0006cfd0       ?TransferObject@TMapPane@@QAEHHHHHH@Z 0046dfd0 f   Mappane.obj
 0001:0006d100       ?CalculateWalkmap@TMapPane@@QAEXXZ 0046e100 f   Mappane.obj
 0001:0006d340       ?AdjustWalkmap@TMapPane@@QAEXHHH@Z 0046e340 f   Mappane.obj
 0001:0006d4a0       ?SetMode@TMapPane@@QAEXP6IXUS3DPoint@@@ZP6IXXZH@Z 0046e4a0 f   Mappane.obj
 0001:0006d610       ?Initialize@TMoney@@SIHXZ  0046e610 f   money.obj
 0001:0006d6b0       ?Close@TMoney@@SIXXZ       0046e6b0 f   money.obj
 0001:0006d760       ??1TMoney@@UAE@XZ          0046e760 f   money.obj
 0001:0006d840       ??_ETMoney@@UAEPAXI@Z      0046e840 f i money.obj
 0001:0006d840       ??_GTMoney@@UAEPAXI@Z      0046e840 f i money.obj
 0001:0006d870       ?GetAmount@TMoney@@UAEHXZ  0046e870 f i money.obj
 0001:0006d890       ?Build@TMoneyBuilder@@UAEPAVTObjectInstance@@PAVSObjectDef@@PAVTObjectImagery@@@Z 0046e890 f i money.obj
 0001:0006d920       ?Build@TMoneyBuilder@@UAEPAVTObjectInstance@@PAVTObjectImagery@@@Z 0046e920 f i money.obj
 0001:0006d9b0       ?AddToInventory@TMoney@@UAEXPAVTObjectInstance@@@Z 0046e9b0 f   money.obj
 0001:0006da40       ?RemoveFromInventory@TMoney@@UAEXPAVTObjectInstance@@@Z 0046ea40 f   money.obj
 0001:0006da90       ?SetAmount@TMoney@@UAEXH@Z 0046ea90 f   money.obj
 0001:0006dbc0       ?Use@TMoney@@UAEHPAVTObjectInstance@@H@Z 0046ebc0 f   money.obj
 0001:0006dce0       ?CursorType@TMoney@@UAEHPAVTObjectInstance@@@Z 0046ece0 f   money.obj
 0001:0006dd40       ?Load@TMoney@@UAEXAAVTInputStream@@H@Z 0046ed40 f   money.obj
 0001:0006dd80       ?Save@TMoney@@UAEXAAVTOutputStream@@@Z 0046ed80 f   money.obj
 0001:0006ddd0       ?AllocInvItem@TMoney@@SIXPAVTBitmap@@HH@Z 0046edd0 f   money.obj
 0001:0006df20       ?FreeInvItem@TMoney@@SIXHH@Z 0046ef20 f   money.obj
 0001:0006dfe0       ?AllocGroundItem@TMoney@@SIXPAVTBitmap@@HH@Z 0046efe0 f   money.obj
 0001:0006e1a0       ?FreeGroundItem@TMoney@@SIXHH@Z 0046f1a0 f   money.obj
 0001:0006e260       ?DrawInvItem@TMoney@@UAEXHH@Z 0046f260 f   money.obj
 0001:0006e320       ?InventoryImage@TMoney@@UAEPAVTBitmap@@XZ 0046f320 f   money.obj
 0001:0006e370       ?GetScreenRect@TMoney@@UAEXAAUSRect@@@Z 0046f370 f   money.obj
 0001:0006e430       ?DrawUnlit@TMoney@@UAEXPAVTSurface@@@Z 0046f430 f   money.obj
 0001:0006e4e0       ?GetStillImage@TMoney@@UAEPAVTBitmap@@H@Z 0046f4e0 f   money.obj
 0001:0006e530       ??0TMosaicSurface@@QAE@XZ  0046f530 f   mosaicsurf.obj
 0001:0006e590       ??1TMosaicSurface@@UAE@XZ  0046f590 f   mosaicsurf.obj
 0001:0006e5f0       ?Initialize@TMosaicSurface@@QAEHHHHHK@Z 0046f5f0 f   mosaicsurf.obj
 0001:0006ef90       ?Initialize@TMosaicSurface@@QAEHPAV1@K@Z 0046ff90 f   mosaicsurf.obj
 0001:0006f3f0       ?Close@TMosaicSurface@@QAEXXZ 004703f0 f   mosaicsurf.obj
 0001:0006f4b0       ?SetOrigin@TMosaicSurface@@UAEXHH@Z 004704b0 f   mosaicsurf.obj
 0001:0006f570       ?SetClipRect@TMosaicSurface@@UAEXHHHH@Z 00470570 f   mosaicsurf.obj
 0001:0006f640       ?SetClipMode@TMosaicSurface@@UAEXH@Z 00470640 f   mosaicsurf.obj
 0001:0006f6c0       ?ParamDraw@TMosaicSurface@@UAEHPAUSDrawParam@@PAVTBitmap@@@Z 004706c0 f   mosaicsurf.obj
 0001:0006f890       ?ParamBlit@TMosaicSurface@@UAEHPAUSDrawParam@@PAVTSurface@@HPAU_DDBLTFX@@@Z 00470890 f   mosaicsurf.obj
 0001:0006fb90       ?ParamGetBlit@TMosaicSurface@@UAEHPAUSDrawParam@@PAVTSurface@@HPAU_DDBLTFX@@@Z 00470b90 f   mosaicsurf.obj
 0001:0006fe70       ?Object@TMulti@@QAEPAXPAD@Z 00470e70 f   multi.obj
 0001:0006ffa0       ?Build@TMultiAnimImageryBuilder@@UAEPAVTObjectImagery@@H@Z 00470fa0 f i multianimimage.obj
 0001:00070030       ??_GTMultiAnimImagery@@UAEPAXI@Z 00471030 f i multianimimage.obj
 0001:00070030       ??_ETMultiAnimImagery@@UAEPAXI@Z 00471030 f i multianimimage.obj
 0001:00070060       ??1TMultiAnimImagery@@UAE@XZ 00471060 f i multianimimage.obj
 0001:00070090       ?GetStillImage@TMultiAnimImagery@@UAEPAVTBitmap@@HH@Z 00471090 f i multianimimage.obj
 0001:00070100       ?GetInvImage@TMultiAnimImagery@@UAEPAVTBitmap@@HH@Z 00471100 f i multianimimage.obj
 0001:00070170       ?GetAnimation@TMultiAnimImagery@@UAEPAVTAnimation@@H@Z 00471170 f i multianimimage.obj
 0001:000701e0       ?GetImageFlags@TMultiAnimImagery@@UAEKH@Z 004711e0 f i multianimimage.obj
 0001:00070230       ?BtnEquip@@YIXXZ           00471230 f   multictrl.obj
 0001:00070250       ?BtnMap@@YIXXZ             00471250 f   multictrl.obj
 0001:00070270       ?BtnSpell@@YIXXZ           00471270 f   multictrl.obj
 0001:00070290       ?BtnStats@@YIXXZ           00471290 f   multictrl.obj
 0001:000702b0       ?Initialize@TMultiCtrlPane@@UAEHXZ 004712b0 f   multictrl.obj
 0001:000704b0       ?Close@TMultiCtrlPane@@UAEXXZ 004714b0 f   multictrl.obj
 0001:000704e0       ?ActivatePane@TMultiCtrlPane@@QAEXH@Z 004714e0 f   multictrl.obj
 0001:00070560       ?Hide@TMultiCtrlPane@@UAEXXZ 00471560 f   multictrl.obj
 0001:000705c0       ?Show@TMultiCtrlPane@@UAEXXZ 004715c0 f   multictrl.obj
 0001:00070610       ?RedrawCurPane@TMultiCtrlPane@@QAEXXZ 00471610 f   multictrl.obj
 0001:00070680       ?AlwaysOnTop@TMultiImagery@@UAEHPAVTObjectInstance@@@Z 00471680 f   multiimage.obj
 0001:000706a0       ?DrawLit@TMultiImagery@@UAEXPAVTObjectInstance@@PAVTSurface@@@Z 004716a0 f   multiimage.obj
 0001:000706d0       ?DrawUnlit@TMultiImagery@@UAEXPAVTObjectInstance@@PAVTSurface@@@Z 004716d0 f   multiimage.obj
 0001:00070700       ?NewObjectAnimator@TMultiImagery@@UAEPAVTObjectAnimator@@PAVTObjectInstance@@@Z 00471700 f   multiimage.obj
 0001:00070790       ?GetScreenRect@TMultiImagery@@UAEXPAVTObjectInstance@@AAUSRect@@@Z 00471790 f   multiimage.obj
 0001:00070860       ?Build@TMultiImageryBuilder@@UAEPAVTObjectImagery@@H@Z 00471860 f i multiimage.obj
 0001:000708e0       ??_GTMultiImagery@@UAEPAXI@Z 004718e0 f i multiimage.obj
 0001:000708e0       ??_ETMultiImagery@@UAEPAXI@Z 004718e0 f i multiimage.obj
 0001:00070910       ??1TMultiImagery@@UAE@XZ   00471910 f i multiimage.obj
 0001:00070930       ?GetZ@TMultiImagery@@UAEHPAVTObjectInstance@@PAVTSurface@@@Z 00471930 f i multiimage.obj
 0001:00070940       ?DrawSelected@TMultiImagery@@UAEXPAVTObjectInstance@@PAVTSurface@@@Z 00471940 f i multiimage.obj
 0001:00070950       ?DrawInvItem@TMultiImagery@@UAEXPAVTObjectInstance@@HH@Z 00471950 f i multiimage.obj
 0001:00070960       ?GetInvImage@TMultiImagery@@UAEPAVTBitmap@@H@Z 00471960 f i multiimage.obj
 0001:00070970       ?GetWidth@TMultiImagery@@UAEHH@Z 00471970 f i multiimage.obj
 0001:00070990       ?GetHeight@TMultiImagery@@UAEHH@Z 00471990 f i multiimage.obj
 0001:000709b0       ?GetWorldBoundBox@TMultiImagery@@UAEXHAAH00@Z 004719b0 f i multiimage.obj
 0001:00070a00       ?GetWorldRegX@TMultiImagery@@UAEHH@Z 00471a00 f i multiimage.obj
 0001:00070a20       ?GetWorldRegY@TMultiImagery@@UAEHH@Z 00471a20 f i multiimage.obj
 0001:00070a40       ?GetWorldRegZ@TMultiImagery@@UAEHH@Z 00471a40 f i multiimage.obj
 0001:00070a60       ??0TMultiSurface@@QAE@XZ   00471a60 f   multisurface.obj
 0001:00070ab0       ??1TMultiSurface@@UAE@XZ   00471ab0 f   multisurface.obj
 0001:00070b10       ?Initialize@TMultiSurface@@QAEXPAVTSurface@@00H@Z 00471b10 f   multisurface.obj
 0001:00070b50       ?SetGraphicsBuffer@TMultiSurface@@QAEXPAVTSurface@@@Z 00471b50 f   multisurface.obj
 0001:00070c00       ?Reset@TMultiSurface@@UAEXXZ 00471c00 f   multisurface.obj
 0001:00070d20       ?SetOrigin@TMultiSurface@@UAEXHH@Z 00471d20 f   multisurface.obj
 0001:00070db0       ?SetClipRect@TMultiSurface@@UAEXHHHH@Z 00471db0 f   multisurface.obj
 0001:00070e60       ?SetClipMode@TMultiSurface@@UAEXH@Z 00471e60 f   multisurface.obj
 0001:00070ed0       ?Close@TMultiSurface@@QAEXXZ 00471ed0 f   multisurface.obj
 0001:00070fc0       ?WorldToScreen@@YIXAAUS3DPoint@@AAH1@Z 00471fc0 f   object.obj
 0001:00071020       ?WorldToScreen@@YIXAAUS3DPoint@@0@Z 00472020 f   object.obj
 0001:000710b0       ?ScreenToWorld@@YIXAAUS3DPoint@@0@Z 004720b0 f   object.obj
 0001:00071130       ?ScreenToWorld@@YIXHHAAUS3DPoint@@H@Z 00472130 f   object.obj
 0001:00071190       ?ConvertToVector@@YIXHHAAUS3DPoint@@@Z 00472190 f   object.obj
 0001:00071210       ?ConvertToFacing@@YIHAAUS3DPoint@@@Z 00472210 f   object.obj
 0001:000712f0       ?ConvertToFacing@@YIHAAUS3DPoint@@0@Z 004722f0 f   object.obj
 0001:00071330       ?Distance@@YIHAAUS3DPoint@@@Z 00472330 f   object.obj
 0001:000713b0       ?Distance@@YIHAAUS3DPoint@@0@Z 004723b0 f   object.obj
 0001:00071440       ??0TObjectBuilder@@QAE@PAD@Z 00472440 f   object.obj
 0001:000714a0       ?GetBuilder@TObjectBuilder@@SIPAV1@H@Z 004724a0 f   object.obj
 0001:000714d0       ?GetBuilder@TObjectBuilder@@SIPAV1@PAD@Z 004724d0 f   object.obj
 0001:00071530       ?ClearObject@TObjectInstance@@QAEXXZ 00472530 f   object.obj
 0001:000716b0       ??0TObjectInstance@@QAE@PAVTObjectImagery@@@Z 004726b0 f   object.obj
 0001:00071720       ??_ETObjectInstance@@UAEPAXI@Z 00472720 f i object.obj
 0001:00071720       ??_GTObjectInstance@@UAEPAXI@Z 00472720 f i object.obj
 0001:00071750       ??0TObjectInstance@@QAE@PAVSObjectDef@@PAVTObjectImagery@@@Z 00472750 f   object.obj
 0001:000717f0       ??1TObjectInstance@@UAE@XZ 004727f0 f   object.obj
 0001:000719a0       ?GetImagery@TObjectInstance@@QAEPAVTObjectImagery@@XZ 004729a0 f   object.obj
 0001:000719c0       ?CreateAnimator@TObjectInstance@@UAEHXZ 004729c0 f   object.obj
 0001:00071a20       ?FreeAnimator@TObjectInstance@@UAEXXZ 00472a20 f   object.obj
 0001:00071a80       ?NeedsAnimator@TObjectInstance@@UAEHXZ 00472a80 f   object.obj
 0001:00071ac0       ?Damage@TObjectInstance@@UAEXHH@Z 00472ac0 f   object.obj
 0001:00071b00       ?RepaintObject@TObjectInstance@@UAEXXZ 00472b00 f   object.obj
 0001:00071b10       ?Distance@TObjectInstance@@QAEHPAV1@@Z 00472b10 f   object.obj
 0001:00071b30       ?GetScreenPos@TObjectInstance@@QAEXAAH0@Z 00472b30 f   object.obj
 0001:00071c60       ?GetScreenPos@TObjectInstance@@QAEXAAUS3DPoint@@@Z 00472c60 f   object.obj
 0001:00071dc0       ?SetPos@TObjectInstance@@UAEHAAUS3DPoint@@@Z 00472dc0 f   object.obj
 0001:000720a0       ?SetState@TObjectInstance@@UAEHH@Z 004730a0 f   object.obj
 0001:000721c0       ?PlaceInInventory@TObjectInstance@@UAEHH@Z 004731c0 f   object.obj
 0001:000721f0       ?SendToInventory@TObjectInstance@@UAEXHH@Z 004731f0 f   object.obj
 0001:00072220       ?AddToInventory@TObjectInstance@@UAEXPAV1@@Z 00473220 f   object.obj
 0001:00072260       ?RemoveFromInventory@TObjectInstance@@UAEXPAV1@@Z 00473260 f   object.obj
 0001:00072290       ?Use@TObjectInstance@@UAEHPAV1@H@Z 00473290 f   object.obj
 0001:000722a0       ?Face@TObjectInstance@@UAEXH@Z 004732a0 f   object.obj
 0001:000722c0       ?Pulse@TObjectInstance@@UAEXXZ 004732c0 f   object.obj
 0001:00072300       ?Move@TObjectInstance@@UAEKXZ 00473300 f   object.obj
 0001:00072730       ?Animate@TObjectInstance@@UAEXH@Z 00473730 f   object.obj
 0001:00072770       ?AI@TObjectInstance@@UAEXXZ 00473770 f   object.obj
 0001:00072780       ?OnScreen@TObjectInstance@@UAEXXZ 00473780 f   object.obj
 0001:00072880       ?OffScreen@TObjectInstance@@UAEXXZ 00473880 f   object.obj
 0001:000728f0       ?GetFacingBoundBox@TObjectInstance@@QAEXAAH000@Z 004738f0 f   object.obj
 0001:00072a40       ?RedrawBackground@TObjectInstance@@QAEXH@Z 00473a40 f   object.obj
 0001:00072a90       ?InitScript@TObjectInstance@@QAEXPAVTScript@@@Z 00473a90 f   object.obj
 0001:00072ad0       ?ResetScript@TObjectInstance@@QAEXXZ 00473ad0 f   object.obj
 0001:00072b00       ?ContinueScript@TObjectInstance@@QAEXXZ 00473b00 f   object.obj
 0001:00072b30       ?ScriptJump@TObjectInstance@@QAEXPAD@Z 00473b30 f   object.obj
 0001:00072b60       ?RedrawLight@TObjectInstance@@QAEXXZ 00473b60 f   object.obj
 0001:00072bb0       ?GetLightRect@TObjectInstance@@QAEXAAUSRect@@@Z 00473bb0 f   object.obj
 0001:00072cb0       ?SetLightIntensity@TObjectInstance@@QAEXE@Z 00473cb0 f   object.obj
 0001:00072d60       ?SetLightMultiplier@TObjectInstance@@QAEXH@Z 00473d60 f   object.obj
 0001:00072de0       ?SetLightPos@TObjectInstance@@QAEXAAUS3DPoint@@@Z 00473de0 f   object.obj
 0001:00072f00       ?SetLightColor@TObjectInstance@@QAEXUSColor@@@Z 00473f00 f   object.obj
 0001:00072ff0       ?DrawLight@TObjectInstance@@QAEXPAVTSurface@@H@Z 00473ff0 f   object.obj
 0001:00073110       ?SetCommandDone@TObjectInstance@@UAEXH@Z 00474110 f   object.obj
 0001:00073130       ?Load@TObjectInstance@@UAEXAAVTInputStream@@H@Z 00474130 f   object.obj
 0001:00073490       ?Save@TObjectInstance@@UAEXAAVTOutputStream@@@Z 00474490 f   object.obj
 0001:00073880       ??0TObjectClass@@QAE@PADHG@Z 00474880 f   object.obj
 0001:00073930       ?ObjectFlags@TObjectClass@@UAEKXZ 00474930 f i object.obj
 0001:00073950       ?AddType@TObjectClass@@QAEHAAUSObjectInfo@@@Z 00474950 f   object.obj
 0001:00073a70       ?RemoveType@TObjectClass@@QAEHH@Z 00474a70 f   object.obj
 0001:00073b20       ?NewObject@TObjectClass@@QAEPAVTObjectInstance@@PAVSObjectDef@@@Z 00474b20 f   object.obj
 0001:00073cb0       ?FindClass@TObjectClass@@SIHPAD@Z 00474cb0 f   object.obj
 0001:00073d20       ?FindObjType@TObjectClass@@QAEHPADH@Z 00474d20 f   object.obj
 0001:00073de0       ?FindObjType@TObjectClass@@QAEHK@Z 00474de0 f   object.obj
 0001:00073e70       ?FindStatistic@TObjectClass@@QAEHPAD@Z 00474e70 f   object.obj
 0001:00073f00       ?FindStatisticVal@TObjectClass@@QAEHHH@Z 00474f00 f   object.obj
 0001:00073f90       ?FindRandStatisticVal@TObjectClass@@QAEHHHPAH@Z 00474f90 f   object.obj
 0001:00074400       ?SetClassesDirty@TObjectClass@@SIXXZ 00475400 f   object.obj
 0001:00074410       ?LoadClasses@TObjectClass@@SIHHH@Z 00475410 f   object.obj
 0001:00074670       ?SaveClasses@TObjectClass@@SIHH@Z 00475670 f   object.obj
 0001:00074810       ?WriteClass@TObjectClass@@AAEHPAU_iobuf@@@Z 00475810 f   object.obj
 0001:00074bf0       ?ParseClass@TObjectClass@@CIHAAVTToken@@H@Z 00475bf0 f   object.obj
 0001:00075360       ?GenerateUniqueID@@YIKXZ   00476360 f   object.obj
 0001:000753e0       ??0TIdent@@QAE@XZ          004763e0 f   parse.obj
 0001:00075420       ?Find@TIdent@@QAEPAUIdent@@PADH@Z 00476420 f   parse.obj
 0001:000754a0       ?FindIndex@TIdent@@QAEHPADH@Z 004764a0 f   parse.obj
 0001:00075510       ?Add@TIdent@@QAEXPADHH@Z   00476510 f   parse.obj
 0001:00075590       ?Get@TToken@@QAEXXZ        00476590 f   parse.obj
 0001:00075f90       ?WhiteGet@TToken@@QAEXXZ   00476f90 f   parse.obj
 0001:00075fc0       ?LineGet@TToken@@QAEXXZ    00476fc0 f   parse.obj
 0001:00075ff0       ?SkipLine@TToken@@QAEXXZ   00476ff0 f   parse.obj
 0001:00076020       ?SkipBlanks@TToken@@QAEXXZ 00477020 f   parse.obj
 0001:00076050       ?abbrevcmp@@YIHPAD0@Z      00477050 f   parse.obj
 0001:000760e0       ?Is@TToken@@QAEHPADH@Z     004770e0 f   parse.obj
 0001:00076140       ?DoBegin@TToken@@QAEXXZ    00477140 f   parse.obj
 0001:000761b0       ?DoEnd@TToken@@QAEXXZ      004771b0 f   parse.obj
 0001:00076220       ?ParseAnything@@YIHHAAVTToken@@PAD1@Z 00477220 f   parse.obj
 0001:00076f60       ?Parse@@YAHAAVTToken@@PADZZ 00477f60 f   parse.obj
 0001:00076fa0       ?ParseString@@YAHPAD0ZZ    00477fa0 f   parse.obj
 0001:000770c0       ?AdjustSkill@TPlayer@@AAEHH@Z 004780c0 f   player.obj
 0001:00077190       ?ClearPlayer@TPlayer@@QAEXXZ 00478190 f   player.obj
 0001:00077280       ?Move@TPlayer@@UAEKXZ      00478280 f   player.obj
 0001:00077360       ?SwingRange@TPlayer@@UAEHXZ 00478360 f   player.obj
 0001:00077590       ?ThrustRange@TPlayer@@UAEHXZ 00478590 f   player.obj
 0001:000777c0       ?GetPoisonDamage@TPlayer@@UAEHXZ 004787c0 f   player.obj
 0001:00077900       ?Damage@TPlayer@@UAEXHH@Z  00478900 f   player.obj
 0001:00077940       ?GetResistance@TPlayer@@UAEHH@Z 00478940 f   player.obj
 0001:00077ae0       ?Build@TPlayerBuilder@@UAEPAVTObjectInstance@@PAVSObjectDef@@PAVTObjectImagery@@@Z 00478ae0 f i player.obj
 0001:00077bb0       ??_GTPlayer@@UAEPAXI@Z     00478bb0 f i player.obj
 0001:00077bb0       ??_ETPlayer@@UAEPAXI@Z     00478bb0 f i player.obj
 0001:00077be0       ??1TPlayer@@UAE@XZ         00478be0 f i player.obj
 0001:00077c00       ?GetZ@TPlayer@@UAEHPAVTSurface@@@Z 00478c00 f i player.obj
 0001:00077c50       ?AlwaysOnTop@TPlayer@@UAEHXZ 00478c50 f i player.obj
 0001:00077ca0       ?Use@TPlayer@@UAEHPAVTObjectInstance@@H@Z 00478ca0 f i player.obj
 0001:00077cb0       ?CursorType@TPlayer@@UAEHPAVTObjectInstance@@@Z 00478cb0 f i player.obj
 0001:00077cc0       ?AI@TPlayer@@UAEXXZ        00478cc0 f i player.obj
 0001:00077cd0       ?IsAggressive@TPlayer@@UAEHXZ 00478cd0 f i player.obj
 0001:00077ce0       ?Build@TPlayerBuilder@@UAEPAVTObjectInstance@@PAVTObjectImagery@@@Z 00478ce0 f i player.obj
 0001:00077db0       ?ResolveCombat@TPlayer@@UAEHPAVTActionBlock@@H@Z 00478db0 f   player.obj
 0001:00077e30       ?Equip@TPlayer@@QAEXPAVTObjectInstance@@H@Z 00478e30 f   player.obj
 0001:00077e60       ?GetOnYerHog@TPlayer@@QAEXXZ 00478e60 f   player.obj
 0001:00077fb0       ??0TPlayScreen@@QAE@XZ     00478fb0 f   playscreen.obj
 0001:00077fe0       ??_GTPlayScreen@@UAEPAXI@Z 00478fe0 f i playscreen.obj
 0001:00077fe0       ??_ETPlayScreen@@UAEPAXI@Z 00478fe0 f i playscreen.obj
 0001:00078010       ?Initialize@TPlayScreen@@UAEHXZ 00479010 f   playscreen.obj
 0001:00078480       ?Close@TPlayScreen@@UAEXXZ 00479480 f   playscreen.obj
 0001:00078590       ?DrawBackground@TPlayScreen@@UAEXXZ 00479590 f   playscreen.obj
 0001:00078700       ?Animate@TPlayScreen@@UAEXH@Z 00479700 f   playscreen.obj
 0001:000789a0       ?KeyPress@TPlayScreen@@UAEXHH@Z 004799a0 f   playscreen.obj
 0001:00078de0       ?MouseClick@TPlayScreen@@UAEXHHH@Z 00479de0 f   playscreen.obj
 0001:00078e30       ?CreateBackgroundAreas@TPlayScreen@@QAEXXZ 00479e30 f   playscreen.obj
 0001:00078ef0       ?DrawOverhangs@TPlayScreen@@QAEXH@Z 00479ef0 f   playscreen.obj
 0001:00078f80       ?LoadEnvironment@TPlayScreen@@QAEHPADH@Z 00479f80 f   playscreen.obj
 0001:000791e0       ?SaveEnvironment@TPlayScreen@@QAEHPAD@Z 0047a1e0 f   playscreen.obj
 0001:00079400       ?HideLowerPanes@TPlayScreen@@QAEXXZ 0047a400 f   playscreen.obj
 0001:00079460       ?ShowLowerPanes@TPlayScreen@@QAEXXZ 0047a460 f   playscreen.obj
 0001:00079550       ?Build@TRangedWeaponBuilder@@UAEPAVTObjectInstance@@PAVSObjectDef@@PAVTObjectImagery@@@Z 0047a550 f i rangedweapon.obj
 0001:000795e0       ??_ETRangedWeapon@@UAEPAXI@Z 0047a5e0 f i rangedweapon.obj
 0001:000795e0       ??_GTRangedWeapon@@UAEPAXI@Z 0047a5e0 f i rangedweapon.obj
 0001:00079610       ??1TRangedWeapon@@UAE@XZ   0047a610 f i rangedweapon.obj
 0001:00079630       ?Build@TRangedWeaponBuilder@@UAEPAVTObjectInstance@@PAVTObjectImagery@@@Z 0047a630 f i rangedweapon.obj
 0001:00079710       ?LoadResource@@YIPAXPADHPAK@Z 0047a710 f   resource.obj
 0001:00079cd0       ?LoadResourceHeader@@YIPAXPADHPAK@Z 0047acd0 f   resource.obj
 0001:00079ea0       ?SaveResource@@YIHPADPAXH@Z 0047aea0 f   resource.obj
 0001:0007a070       ?SaveResourceHeader@@YIHPADPAXHH@Z 0047b070 f   resource.obj
 0001:0007a430       ?ExtractSaveObj@TSaveGame@@IAEPAUSObjectList@@PAVTObjectInstance@@@Z 0047b430 f   savegame.obj
 0001:0007a520       ?Save@TSaveGame@@QAEHXZ    0047b520 f   savegame.obj
 0001:0007a5b0       ?RestoreObjList@TSaveGame@@IAEHPAUSObjectList@@PAVTObjectInstance@@@Z 0047b5b0 f   savegame.obj
 0001:0007a6f0       ?Restore@TSaveGame@@QAEHXZ 0047b6f0 f   savegame.obj
 0001:0007a8c0       ?PurgeObjList@TSaveGame@@IAEXPAUSObjectList@@@Z 0047b8c0 f   savegame.obj
 0001:0007a910       ?Purge@TSaveGame@@QAEXXZ   0047b910 f   savegame.obj
 0001:0007a970       ?WriteObjList@@YIHAAVTOutputStream@@PAUSObjectList@@@Z 0047b970 f   savegame.obj
 0001:0007aab0       ?WriteGame@TSaveGame@@QAEHXZ 0047bab0 f   savegame.obj
 0001:0007ac70       ?ReadObjList@@YIPAUSObjectList@@AAVTInputStream@@@Z 0047bc70 f   savegame.obj
 0001:0007ae10       ?ReadGame@TSaveGame@@QAEHXZ 0047be10 f   savegame.obj
 0001:0007b030       ??0TScreen@@QAE@XZ         0047c030 f   screen.obj
 0001:0007b070       ??_ETScreen@@UAEPAXI@Z     0047c070 f i screen.obj
 0001:0007b070       ??_GTScreen@@UAEPAXI@Z     0047c070 f i screen.obj
 0001:0007b0a0       ??1TScreen@@UAE@XZ         0047c0a0 f   screen.obj
 0001:0007b0c0       ?BeginScreen@TScreen@@AAEHXZ 0047c0c0 f   screen.obj
 0001:0007b160       ?EndScreen@TScreen@@AAEXXZ 0047c160 f   screen.obj
 0001:0007b1d0       ?FindPane@TScreen@@QAEHPAVTPane@@@Z 0047c1d0 f   screen.obj
 0001:0007b240       ?AddPane@TScreen@@QAEHPAVTPane@@H@Z 0047c240 f   screen.obj
 0001:0007b2f0       ?RemovePane@TScreen@@QAEPAVTPane@@H@Z 0047c2f0 f   screen.obj
 0001:0007b350       ?SetExclusivePane@TScreen@@QAEHHH@Z 0047c350 f   screen.obj
 0001:0007b3d0       ?ReleaseExclusivePane@TScreen@@QAEXH@Z 0047c3d0 f   screen.obj
 0001:0007b450       ?RedrawAllPanes@TScreen@@QAEXXZ 0047c450 f   screen.obj
 0001:0007b560       ?DrawBackground@TScreen@@UAEXXZ 0047c560 f   screen.obj
 0001:0007b6f0       ?Initialize@TScreen@@UAEHXZ 0047c6f0 f i screen.obj
 0001:0007b700       ?Close@TScreen@@UAEXXZ     0047c700 f i screen.obj
 0001:0007b710       ?Animate@TScreen@@UAEXH@Z  0047c710 f   screen.obj
 0001:0007b860       ?MouseClick@TScreen@@UAEXHHH@Z 0047c860 f   screen.obj
 0001:0007ba70       ?MouseMove@TScreen@@UAEXHHH@Z 0047ca70 f   screen.obj
 0001:0007bc30       ?KeyPress@TScreen@@UAEXHH@Z 0047cc30 f   screen.obj
 0001:0007bd60       ?CharPress@TScreen@@UAEXHH@Z 0047cd60 f   screen.obj
 0001:0007be90       ?Joystick@TScreen@@UAEXHHH@Z 0047ce90 f   screen.obj
 0001:0007bfd0       ?Command@TScreen@@UAEXH@Z  0047cfd0 f   screen.obj
 0001:0007bfe0       ?ShowScreen@TScreen@@SIPAV1@PAV1@H@Z 0047cfe0 f   screen.obj
 0001:0007c0f0       ?TimerTick@TScreen@@UAEHH@Z 0047d0f0 f   screen.obj
 0001:0007c300       ?TimerLoop@TScreen@@UAEHJ@Z 0047d300 f   screen.obj
 0001:0007c840       ?Initialize@TPane@@UAEHXZ  0047d840 f   screen.obj
 0001:0007c8b0       ?SetClipRect@TPane@@UAEXXZ 0047d8b0 f   screen.obj
 0001:0007c930       ?UpdateBackgroundScrollPos@TPane@@QAEXXZ 0047d930 f   screen.obj
 0001:0007c9a0       ?DrawRestoreRect@TPane@@QAEXHHHHK@Z 0047d9a0 f   screen.obj
 0001:0007c9e0       ?ScriptError@@YIXPADH@Z    0047d9e0 f   script.obj
 0001:0007ca20       ?SkipBlock@@YIXAAVTToken@@@Z 0047da20 f   script.obj
 0001:0007cb20       ??0TScript@@QAE@PAVTScriptProto@@@Z 0047db20 f   script.obj
 0001:0007cb80       ??1TScript@@QAE@XZ         0047db80 f   script.obj
 0001:0007cb90       ?Load@TScript@@QAEHPAD@Z   0047db90 f   script.obj
 0001:0007cbb0       ?Save@TScript@@QAEHPAD@Z   0047dbb0 f   script.obj
 0001:0007cbd0       ?SetText@TScript@@QAEXPAD@Z 0047dbd0 f   script.obj
 0001:0007cc00       ?Start@TScript@@QAEXPADH@Z 0047dc00 f   script.obj
 0001:0007cc90       ?Triggered@@YIHAAVTToken@@PAVTObjectInstance@@@Z 0047dc90 f   script.obj
 0001:0007d240       ?Continue@TScript@@QAEXPAVTObjectInstance@@@Z 0047e240 f   script.obj
 0001:0007d8a0       ?Jump@TScript@@QAEXPAVTObjectInstance@@PAD@Z 0047e8a0 f   script.obj
 0001:0007dab0       ?Break@TScript@@QAEXXZ     0047eab0 f   script.obj
 0001:0007dad0       ?Resume@TScript@@QAEXXZ    0047ead0 f   script.obj
 0001:0007daf0       ?End@TScript@@QAEXXZ       0047eaf0 f   script.obj
 0001:0007db10       ?FitsCriteria@TScriptProto@@QAEHPAVTObjectInstance@@@Z 0047eb10 f   script.obj
 0001:0007dc30       ?SetBuffer@TScriptProto@@QAEXPAD@Z 0047ec30 f   script.obj
 0001:0007dc50       ?ParseCriteria@TScriptProto@@QAEHAAVTToken@@@Z 0047ec50 f   script.obj
 0001:0007dd80       ?ParseScript@TScriptProto@@QAEHPAD@Z 0047ed80 f   script.obj
 0001:0007dfc0       ?WriteScript@TScriptProto@@QAEHPAU_iobuf@@@Z 0047efc0 f   script.obj
 0001:0007e070       ?Load@TGameState@@QAEHPAD@Z 0047f070 f   script.obj
 0001:0007e240       ?Save@TGameState@@QAEHPAD@Z 0047f240 f   script.obj
 0001:0007e260       ?Initialize@TScriptManager@@QAEHXZ 0047f260 f   script.obj
 0001:0007e2b0       ?Close@TScriptManager@@QAEXXZ 0047f2b0 f   script.obj
 0001:0007e390       ?Load@TScriptManager@@QAEHPAD@Z 0047f390 f   script.obj
 0001:0007e4c0       ?Save@TScriptManager@@QAEHPAD@Z 0047f4c0 f   script.obj
 0001:0007e5b0       ?ParseScripts@TScriptManager@@QAEXPAD@Z 0047f5b0 f   script.obj
 0001:0007e670       ?ObjectScript@TScriptManager@@QAEPAVTScript@@PAVTObjectInstance@@@Z 0047f670 f   script.obj
 0001:0007e720       ?FindLocalVal@TScriptManager@@QAEHPAD@Z 0047f720 f   script.obj
 0001:0007e780       ?SetLocalVal@TScriptManager@@QAEXHH@Z 0047f780 f   script.obj
 0001:0007e7a0       ?GetLocalVal@TScriptManager@@QAEHH@Z 0047f7a0 f   script.obj
 0001:0007e7d0       ?GameState@TScriptManager@@QAEHPAD@Z 0047f7d0 f   script.obj
 0001:0007e9e0       ?SetText@TScroll@@QAEXPAD@Z 0047f9e0 f   scroll.obj
 0001:0007ea60       ?Load@TScroll@@UAEXAAVTInputStream@@H@Z 0047fa60 f   scroll.obj
 0001:0007eb30       ?Build@TScrollBuilder@@UAEPAVTObjectInstance@@PAVSObjectDef@@PAVTObjectImagery@@@Z 0047fb30 f i scroll.obj
 0001:0007ebc0       ??_GTScroll@@UAEPAXI@Z     0047fbc0 f i scroll.obj
 0001:0007ebc0       ??_ETScroll@@UAEPAXI@Z     0047fbc0 f i scroll.obj
 0001:0007ebf0       ??1TScroll@@UAE@XZ         0047fbf0 f i scroll.obj
 0001:0007ec10       ?CursorType@TScroll@@UAEHPAVTObjectInstance@@@Z 0047fc10 f i scroll.obj
 0001:0007ec30       ?Build@TScrollBuilder@@UAEPAVTObjectInstance@@PAVTObjectImagery@@@Z 0047fc30 f i scroll.obj
 0001:0007ecc0       ?Save@TScroll@@UAEXAAVTOutputStream@@@Z 0047fcc0 f   scroll.obj
 0001:0007ed80       ?Use@TScroll@@UAEHPAVTObjectInstance@@H@Z 0047fd80 f   scroll.obj
 0001:0007ee50       ?ScrollBtnScrollUp@@YIXXZ  0047fe50 f   scroll.obj
 0001:0007ee70       ?ScrollBtnScrollDown@@YIXXZ 0047fe70 f   scroll.obj
 0001:0007ee90       ?ScrollBtnExit@@YIXXZ      0047fe90 f   scroll.obj
 0001:0007eea0       ?Initialize@TScrollPane@@UAEHXZ 0047fea0 f   scroll.obj
 0001:0007f0f0       ?Close@TScrollPane@@UAEXXZ 004800f0 f   scroll.obj
 0001:0007f170       ?DrawBackground@TScrollPane@@UAEXXZ 00480170 f   scroll.obj
 0001:0007f3a0       ?KeyPress@TScrollPane@@UAEXHH@Z 004803a0 f   scroll.obj
 0001:0007f430       ?SetScroll@TScrollPane@@QAEXPAVTScroll@@@Z 00480430 f   scroll.obj
 0001:0007f4c0       ?Scroll@TScrollPane@@QAEXH@Z 004804c0 f   scroll.obj
 0001:0007f550       ?BookBtnScrollUp@@YIXXZ    00480550 f   scroll.obj
 0001:0007f570       ?BookBtnScrollDown@@YIXXZ  00480570 f   scroll.obj
 0001:0007f590       ?BookBtnExit@@YIXXZ        00480590 f   scroll.obj
 0001:0007f5a0       ?Initialize@TBookPane@@UAEHXZ 004805a0 f   scroll.obj
 0001:0007f7f0       ?DrawBackground@TBookPane@@UAEXXZ 004807f0 f   scroll.obj
 0001:0007fb20       ??0TSector@@QAE@HHH@Z      00480b20 f   Sector.obj
 0001:0007fbc0       ??1TSector@@QAE@XZ         00480bc0 f   Sector.obj
 0001:0007fce0       ?Load@TSector@@QAEHH@Z     00480ce0 f   Sector.obj
 0001:00080090       ?Save@TSector@@QAEXXZ      00481090 f   Sector.obj
 0001:000802f0       ?GetMaxScreenRect@TSector@@QAEXAAUSRect@@@Z 004812f0 f   Sector.obj
 0001:000803a0       ?GetMaxMapRect@TSector@@QAEXAAUS3DRect@@@Z 004813a0 f   Sector.obj
 0001:00080450       ?AddObject@TSector@@QAEHPAVTObjectInstance@@H@Z 00481450 f   Sector.obj
 0001:000805a0       ?SetObject@TSector@@QAEHPAVTObjectInstance@@H@Z 004815a0 f   Sector.obj
 0001:00080640       ?RemoveObject@TSector@@QAEPAVTObjectInstance@@H@Z 00481640 f   Sector.obj
 0001:000806a0       ?FindObject@TSector@@QAEHPAVTObjectInstance@@@Z 004816a0 f   Sector.obj
 0001:00080720       ?FindObject@TSector@@QAEHPADAAHH@Z 00481720 f   Sector.obj
 0001:00080880       ?FindClosestObject@TSector@@QAEHPADAAUS3DPoint@@H@Z 00481880 f   Sector.obj
 0001:00080c80       ?WalkmapHandler@TSector@@QAEXHPAEHHHHHHH@Z 00481c80 f   Sector.obj
 0001:00080f30       ?ReturnWalkmap@TSector@@QAEHAAUS3DPoint@@@Z 00481f30 f   Sector.obj
 0001:00080f70       ?SetWalkmap@TSector@@QAEXAAUS3DPoint@@@Z 00481f70 f   Sector.obj
 0001:00081010       ?Build@TShadowBuilder@@UAEPAVTObjectInstance@@PAVSObjectDef@@PAVTObjectImagery@@@Z 00482010 f i shadow.obj
 0001:000810a0       ??_GTShadow@@UAEPAXI@Z     004820a0 f i shadow.obj
 0001:000810a0       ??_ETShadow@@UAEPAXI@Z     004820a0 f i shadow.obj
 0001:000810d0       ??1TShadow@@UAE@XZ         004820d0 f i shadow.obj
 0001:000810f0       ?Build@TShadowBuilder@@UAEPAVTObjectInstance@@PAVTObjectImagery@@@Z 004820f0 f i shadow.obj
 0001:00081170       ?CDPlayTrack@@YIXH@Z       00482170 f   sound.obj
 0001:00081270       ?CDPlayRandomTrack@@YIXXZ  00482270 f   sound.obj
 0001:000813b0       ?CDStop@@YIXXZ             004823b0 f   sound.obj
 0001:000813e0       ?CDPlaying@@YIHXZ          004823e0 f   sound.obj
 0001:00081410       ?CDSetVolume@@YIXG@Z       00482410 f   sound.obj
 0001:00081490       ?Load@TSound@@SIPAV1@H@Z   00482490 f   sound.obj
 0001:000814c0       ?Load@TSound@@SIPAV1@PAVTWaveData@@@Z 004824c0 f   sound.obj
 0001:000816f0       ??_GTSound@@QAEPAXI@Z      004826f0 f i sound.obj
 0001:00081770       ?Duplicate@TSound@@QAEPAV1@XZ 00482770 f   sound.obj
 0001:000818b0       ?Play@TSound@@QAEXH@Z      004828b0 f   sound.obj
 0001:00081960       ?Stop@TSound@@QAEXXZ       00482960 f   sound.obj
 0001:000819b0       ?GetStatus@TSound@@QAEKXZ  004829b0 f   sound.obj
 0001:00081a10       ?Initialize@TSoundPlayer@@QAEHXZ 00482a10 f   sound.obj
 0001:00081b20       ?Close@TSoundPlayer@@QAEXXZ 00482b20 f   sound.obj
 0001:00081b80       ?Pause@TSoundPlayer@@QAEXXZ 00482b80 f   sound.obj
 0001:00081bd0       ?Unpause@TSoundPlayer@@QAEXXZ 00482bd0 f   sound.obj
 0001:00081c20       ?SetVolume@TSoundPlayer@@QAEXH@Z 00482c20 f   sound.obj
 0001:00081c70       ?FindSound@TSoundPlayer@@AAEPAUSSoundRef@@PADH@Z 00482c70 f   sound.obj
 0001:00081d30       ?UpdateDying@TSoundPlayer@@AAEXXZ 00482d30 f   sound.obj
 0001:00081f80       ?Mount@TSoundPlayer@@QAEXPADH@Z 00482f80 f   sound.obj
 0001:00082030       ?Unmount@TSoundPlayer@@QAEXPADH@Z 00483030 f   sound.obj
 0001:000821b0       ?Play@TSoundPlayer@@QAEXPADHH@Z 004831b0 f   sound.obj
 0001:00082290       ?Stop@TSoundPlayer@@QAEXPAD@Z 00483290 f   sound.obj
 0001:00082300       ?ReadSoundList@TSoundPlayer@@AAEHXZ 00483300 f   sound.obj
 0001:00082500       ?DestroySoundList@TSoundPlayer@@AAEXXZ 00483500 f   sound.obj
 0001:00082550       ?Draw@TTalismanButton@@UAEXXZ 00483550 f   spell.obj
 0001:00082620       ?AddTalisman@TTalismanButton@@QAEXH@Z 00483620 f   spell.obj
 0001:00082660       ?Backspace@TTalismanButton@@QAEXXZ 00483660 f   spell.obj
 0001:00082690       ?Clear@TTalismanButton@@QAEXXZ 00483690 f   spell.obj
 0001:000826c0       ?Invoke@TTalismanButton@@QAEXXZ 004836c0 f   spell.obj
 0001:00082700       ?BtnSpellPane@@YIXXZ       00483700 f   spell.obj
 0001:00082710       ?BtnSpellBook@@YIXXZ       00483710 f   spell.obj
 0001:00082720       ?BtnSpellAdd@@YIXXZ        00483720 f   spell.obj
 0001:00082730       ?BtnSpellBack@@YIXXZ       00483730 f   spell.obj
 0001:00082750       ?BtnSpellDown@@YIXXZ       00483750 f   spell.obj
 0001:00082770       ?BtnSpellUp@@YIXXZ         00483770 f   spell.obj
 0001:00082790       ?BtnSpellMin@@YIXXZ        00483790 f   spell.obj
 0001:000827a0       ?Initialize@TSpellPane@@UAEHXZ 004837a0 f   spell.obj
 0001:00082d60       ?DrawBackground@TSpellPane@@UAEXXZ 00483d60 f   spell.obj
 0001:00083420       ?MouseClick@TSpellPane@@UAEXHHH@Z 00484420 f   spell.obj
 0001:000834d0       ?MouseMove@TSpellPane@@UAEXHHH@Z 004844d0 f   spell.obj
 0001:00083570       ?OnTal@TSpellPane@@AAEHHH@Z 00484570 f   spell.obj
 0001:000836d0       ?Scroll@TSpellPane@@QAEXH@Z 004846d0 f   spell.obj
 0001:00083740       ?ToggleTalismanNames@TSpellPane@@QAEXXZ 00484740 f   spell.obj
 0001:00083770       ?AddTal@TSpellPane@@QAEHH@Z 00484770 f   spell.obj
 0001:000837a0       ?RemoveTal@TSpellPane@@QAEHH@Z 004847a0 f   spell.obj
 0001:000837f0       ?Invoke@TSpellPane@@QAEXXZ 004847f0 f   spell.obj
 0001:00083820       ?BtnSpellOne@@YIXXZ        00484820 f   spell.obj
 0001:00083840       ?BtnSpellTwo@@YIXXZ        00484840 f   spell.obj
 0001:00083860       ?BtnSpellThree@@YIXXZ      00484860 f   spell.obj
 0001:00083880       ?BtnSpellFour@@YIXXZ       00484880 f   spell.obj
 0001:000838a0       ?Initialize@TQuickSpellPane@@UAEHXZ 004848a0 f   spell.obj
 0001:00083ca0       ?DrawBackground@TQuickSpellPane@@UAEXXZ 00484ca0 f   spell.obj
 0001:00083cc0       ?Invoke@TQuickSpellPane@@QAEXH@Z 00484cc0 f   spell.obj
 0001:00083cf0       ?Clear@TSprite@@QAEXXZ     00484cf0 f   sprite.obj
 0001:00083d00       ?Move@TSprite@@QAEXHH@Z    00484d00 f   sprite.obj
 0001:00083d10       ?Goto@TSprite@@QAEXHH@Z    00484d10 f   sprite.obj
 0001:00083d20       ?NumSprites@@YIHXZ         00484d20 f   spritelist.obj
 0001:00083d30       ?FreeSprites@@YIHXZ        00484d30 f   spritelist.obj
 0001:00083d40       ?AllocPlayer@TSpriteList@@IAEPAVTAnimSprite@@PAVTAnimation@@@Z 00484d40 f   spritelist.obj
 0001:00083d50       ?FreePlayer@TSpriteList@@IAEXPAVTAnimSprite@@@Z 00484d50 f   spritelist.obj
 0001:00083d60       ?AnimationDone@TSpriteList@@IAEHPAVTAnimSprite@@@Z 00484d60 f   spritelist.obj
 0001:00083d70       ?Clear@TSpriteList@@IAEXXZ 00484d70 f   spritelist.obj
 0001:00083d80       ?Animate@TSpriteList@@IAEXPAVTSurface@@@Z 00484d80 f   spritelist.obj
 0001:00083d90       ?BtnStatStats@@YIXXZ       00484d90 f   statpane.obj
 0001:00083db0       ?BtnStatSkills@@YIXXZ      00484db0 f   statpane.obj
 0001:00083dd0       ?BtnStatMin@@YIXXZ         00484dd0 f   statpane.obj
 0001:00083df0       ?BtnStatMax@@YIXXZ         00484df0 f   statpane.obj
 0001:00083e10       ?BtnStatUp@@YIXXZ          00484e10 f   statpane.obj
 0001:00083e30       ?BtnStatDown@@YIXXZ        00484e30 f   statpane.obj
 0001:00083e50       ?Initialize@TStatPane@@UAEHXZ 00484e50 f   statpane.obj
 0001:000840e0       ?Close@TStatPane@@UAEXXZ   004850e0 f   statpane.obj
 0001:00084100       ?DrawBackground@TStatPane@@UAEXXZ 00485100 f   statpane.obj
 0001:00084920       ?MouseClick@TStatPane@@UAEXHHH@Z 00485920 f   statpane.obj
 0001:000849a0       ?MouseMove@TStatPane@@UAEXHHH@Z 004859a0 f   statpane.obj
 0001:000849d0       ?Scroll@TStatPane@@QAEXH@Z 004859d0 f   statpane.obj
 0001:00084a60       ?SetAllExpanded@TStatPane@@IAEXH@Z 00485a60 f   statpane.obj
 0001:00084ae0       ?OnSlot@TStatPane@@IAEHHH@Z 00485ae0 f   statpane.obj
 0001:00084bf0       ?Initialize@TStatusBar@@UAEHXZ 00485bf0 f   statusbar.obj
 0001:00084c40       ?Close@TStatusBar@@UAEXXZ  00485c40 f   statusbar.obj
 0001:00084c70       ?DrawBackground@TStatusBar@@UAEXXZ 00485c70 f   statusbar.obj
 0001:00084e50       ?Initialize@THealthBar@@UAEHXZ 00485e50 f   statusbar.obj
 0001:00084e90       ?GetHue@THealthBar@@UAEHXZ 00485e90 f   statusbar.obj
 0001:00084ed0       ?Initialize@TStaminaBar@@UAEHXZ 00485ed0 f   statusbar.obj
 0001:00084f10       ?GetHue@TStaminaBar@@UAEHXZ 00485f10 f   statusbar.obj
 0001:00084f40       ??0TOutputStream@@QAE@HH@Z 00485f40 f   Stream.obj
 0001:00084f90       ??_GTOutputStream@@UAEPAXI@Z 00485f90 f i Stream.obj
 0001:00084f90       ??_ETOutputStream@@UAEPAXI@Z 00485f90 f i Stream.obj
 0001:00084fc0       ??1TOutputStream@@UAE@XZ   00485fc0 f   Stream.obj
 0001:00084ff0       ?MakeFreeSpace@TOutputStream@@QAEXH@Z 00485ff0 f   Stream.obj
 0001:00085060       ??0TSurface@@QAE@XZ        00486060 f   surface.obj
 0001:000850d0       ??_GTSurface@@UAEPAXI@Z    004860d0 f i surface.obj
 0001:000850d0       ??_ETSurface@@UAEPAXI@Z    004860d0 f i surface.obj
 0001:00085100       ??1TSurface@@UAE@XZ        00486100 f   surface.obj
 0001:00085120       ?Reset@TSurface@@UAEXXZ    00486120 f   surface.obj
 0001:00085170       ?ParamDrawSetup@TSurface@@QAEHAAUSDrawParam@@PAVTBitmap@@@Z 00486170 f   surface.obj
 0001:00085310       ?SurfaceType@TSurface@@UAEHXZ 00486310 f i surface.obj
 0001:00085320       ?ParamDraw@TSurface@@UAEHPAUSDrawParam@@PAVTBitmap@@@Z 00486320 f   surface.obj
 0001:00085790       ?ParamBlitSetup@TSurface@@QAEHAAUSDrawParam@@PAV1@HPAU_DDBLTFX@@@Z 00486790 f   surface.obj
 0001:00085880       ?BlitHandler@TSurface@@UAEHPAUSDrawParam@@PAV1@HPAU_DDBLTFX@@@Z 00486880 f   surface.obj
 0001:00085a70       ?ParamBlit@TSurface@@UAEHPAUSDrawParam@@PAV1@HPAU_DDBLTFX@@@Z 00486a70 f   surface.obj
 0001:00085c50       ?ParamGetBlit@TSurface@@UAEHPAUSDrawParam@@PAV1@HPAU_DDBLTFX@@@Z 00486c50 f   surface.obj
 0001:00085c80       ?Put@TSurface@@QAEHHHPAVTBitmap@@KPAUSColor@@@Z 00486c80 f   surface.obj
 0001:00085d80       ?PutHue@TSurface@@QAEHHHPAVTBitmap@@KH@Z 00486d80 f   surface.obj
 0001:00085e70       ?PutSV@TSurface@@QAEHHHPAVTBitmap@@KHH@Z 00486e70 f   surface.obj
 0001:00085f70       ?PutDim@TSurface@@QAEHHHPAVTBitmap@@KH@Z 00486f70 f   surface.obj
 0001:00086070       ?ZPut@TSurface@@UAEHHHHPAVTBitmap@@K@Z 00487070 f   surface.obj
 0001:00086140       ?ZPutDim@TSurface@@QAEHHHHPAVTBitmap@@KHPAUSColor@@@Z 00487140 f   surface.obj
 0001:00086250       ?ZFind@TSurface@@QAEKHHHPAVTBitmap@@K@Z 00487250 f   surface.obj
 0001:00086330       ?Box@TSurface@@UAEHHHHHKGGK@Z 00487330 f   surface.obj
 0001:00086420       ?Line@TSurface@@QAEHHHHHAAUSColor@@K@Z 00487420 f   surface.obj
 0001:00086520       ?Rect@TSurface@@QAEHHHHHAAUSColor@@K@Z 00487520 f   surface.obj
 0001:00086620       ?WriteText@TSurface@@QAEHPADHHHPAVTFont@@PAUSColor@@KHHHH@Z 00487620 f   surface.obj
 0001:000867b0       ?WriteTextShadow@TSurface@@QAEHPADHHHPAVTFont@@PAUSColor@@KHHHH@Z 004877b0 f   surface.obj
 0001:000868a0       ?AddToInventory@TTalisman@@UAEXPAVTObjectInstance@@@Z 004878a0 f   talisman.obj
 0001:00086960       ?Build@TTalismanBuilder@@UAEPAVTObjectInstance@@PAVSObjectDef@@PAVTObjectImagery@@@Z 00487960 f i talisman.obj
 0001:000869f0       ??_ETTalisman@@UAEPAXI@Z   004879f0 f i talisman.obj
 0001:000869f0       ??_GTTalisman@@UAEPAXI@Z   004879f0 f i talisman.obj
 0001:00086a20       ??1TTalisman@@UAE@XZ       00487a20 f i talisman.obj
 0001:00086a40       ?Build@TTalismanBuilder@@UAEPAVTObjectInstance@@PAVTObjectImagery@@@Z 00487a40 f i talisman.obj
 0001:00086ac0       ??0TTerrainTemplate@@QAE@XZ 00487ac0 f   template.obj
 0001:00086b40       ??0SObjectRef@@QAE@XZ      00487b40 f i template.obj
 0001:00086b50       ??1TTerrainTemplate@@QAE@XZ 00487b50 f   template.obj
 0001:00086b70       ?Load@TTerrainTemplate@@QAEHXZ 00487b70 f   template.obj
 0001:00087140       ?Save@TTerrainTemplate@@QAEHXZ 00488140 f   template.obj
 0001:00087300       ?NewTemplate@TTerrainTemplate@@QAEHPAD@Z 00488300 f   template.obj
 0001:000873a0       ?AddObject@TTerrainTemplate@@QAEHHPAVTObjectInstance@@US3DPoint@@@Z 004883a0 f   template.obj
 0001:00087510       ?ApplyTemplate@TTerrainTemplate@@QAEXPAVTObjectInstance@@PAVTSector@@H@Z 00488510 f   template.obj
 0001:00087880       ?Initialize@TTextBar@@UAEHXZ 00488880 f   textbar.obj
 0001:000878c0       ?Close@TTextBar@@UAEXXZ    004888c0 f   textbar.obj
 0001:000878d0       ?DrawBackground@TTextBar@@UAEXXZ 004888d0 f   textbar.obj
 0001:00087bb0       ?Print@TTextBar@@QAEXPAD@Z 00488bb0 f   textbar.obj
 0001:00087c00       ?SetHealthDisplay@TTextBar@@QAEXPADH@Z 00488c00 f   textbar.obj
 0001:00087c80       ?ClearHealthDisplay@TTextBar@@QAEXXZ 00488c80 f   textbar.obj
 0001:00087d10       ?Build@TTileBuilder@@UAEPAVTObjectInstance@@PAVSObjectDef@@PAVTObjectImagery@@@Z 00488d10 f i tile.obj
 0001:00087db0       ??_GTTile@@UAEPAXI@Z       00488db0 f i tile.obj
 0001:00087db0       ??_ETTile@@UAEPAXI@Z       00488db0 f i tile.obj
 0001:00087de0       ??1TTile@@UAE@XZ           00488de0 f i tile.obj
 0001:00087e00       ?Build@TTileBuilder@@UAEPAVTObjectInstance@@PAVTObjectImagery@@@Z 00488e00 f i tile.obj
 0001:00087e90       ?TimerCallback@TTimer@@SGXIIKKK@Z 00488e90 f   timer.obj
 0001:00087ec0       ??0TTimer@@QAE@XZ          00488ec0 f   timer.obj
 0001:00087ef0       ??1TTimer@@QAE@XZ          00488ef0 f   timer.obj
 0001:00087f30       ?Initialize@TTimer@@QAEHXZ 00488f30 f   timer.obj
 0001:00088000       ?Close@TTimer@@QAEXXZ      00489000 f   timer.obj
 0001:00088050       ?WaitForTick@TTimer@@QAEXXZ 00489050 f   timer.obj
 0001:00088080       ?ResetTick@TTimer@@QAEXXZ  00489080 f   timer.obj
 0001:00088100       ?Use@TTool@@UAEHPAVTObjectInstance@@H@Z 00489100 f   tool.obj
 0001:00088110       ?CursorType@TTool@@UAEHPAVTObjectInstance@@@Z 00489110 f   tool.obj
 0001:00088120       ?Build@TToolBuilder@@UAEPAVTObjectInstance@@PAVSObjectDef@@PAVTObjectImagery@@@Z 00489120 f i tool.obj
 0001:000881b0       ??_ETTool@@UAEPAXI@Z       004891b0 f i tool.obj
 0001:000881b0       ??_GTTool@@UAEPAXI@Z       004891b0 f i tool.obj
 0001:000881e0       ??1TTool@@UAE@XZ           004891e0 f i tool.obj
 0001:00088200       ?Build@TToolBuilder@@UAEPAVTObjectInstance@@PAVTObjectImagery@@@Z 00489200 f i tool.obj
 0001:000882e0       ?ClearWeapon@TWeapon@@QAEXXZ 004892e0 f   weapon.obj
 0001:00088300       ?Use@TWeapon@@UAEHPAVTObjectInstance@@H@Z 00489300 f   weapon.obj
 0001:000884f0       ?CursorType@TWeapon@@UAEHPAVTObjectInstance@@@Z 004894f0 f   weapon.obj
 0001:00088660       ?Build@TWeaponBuilder@@UAEPAVTObjectInstance@@PAVSObjectDef@@PAVTObjectImagery@@@Z 00489660 f i weapon.obj
 0001:00088700       ??_ETWeapon@@UAEPAXI@Z     00489700 f i weapon.obj
 0001:00088700       ??_GTWeapon@@UAEPAXI@Z     00489700 f i weapon.obj
 0001:00088730       ??1TWeapon@@UAE@XZ         00489730 f i weapon.obj
 0001:00088750       ?Build@TWeaponBuilder@@UAEPAVTObjectInstance@@PAVTObjectImagery@@@Z 00489750 f i weapon.obj
 0001:000887e0       ?GetPoison@TWeapon@@QAEHXZ 004897e0 f   weapon.obj
 0001:00088900       ?Load@TWeapon@@UAEXAAVTInputStream@@H@Z 00489900 f   weapon.obj
 0001:00088940       ?Save@TWeapon@@UAEXAAVTOutputStream@@@Z 00489940 f   weapon.obj
 0001:000889f0       ?Load@TWeb@@UAEXAAVTInputStream@@H@Z 004899f0 f   web.obj
 0001:00088a30       ?Save@TWeb@@UAEXAAVTOutputStream@@@Z 00489a30 f   web.obj
 0001:00088a80       ?Build@TWebBuilder@@UAEPAVTObjectInstance@@PAVSObjectDef@@PAVTObjectImagery@@@Z 00489a80 f i web.obj
 0001:00088b20       ??_ETWeb@@UAEPAXI@Z        00489b20 f i web.obj
 0001:00088b20       ??_GTWeb@@UAEPAXI@Z        00489b20 f i web.obj
 0001:00088b50       ??1TWeb@@UAE@XZ            00489b50 f i web.obj
 0001:00088b70       ?Build@TWebBuilder@@UAEPAVTObjectInstance@@PAVTObjectImagery@@@Z 00489b70 f i web.obj
 0001:00088c10       ?ReadFile@@YIIPADPAIPAX@Z  00489c10 f   zcomp.obj
 0001:00088c80       ?WriteFile@@YIXPADPAIPAX@Z 00489c80 f   zcomp.obj
 0001:00088cc0       ?ReadBuff@@YIIPADPAIPAX@Z  00489cc0 f   zcomp.obj
 0001:00088d40       ?WriteBuff@@YIXPADPAIPAX@Z 00489d40 f   zcomp.obj
 0001:00088d90       ?cfopen@@YIPAU_iobuf@@PBD0HH@Z 00489d90 f   zcomp.obj
 0001:00088e50       ?cfread@@YIIPAXJIPAU_iobuf@@@Z 00489e50 f   zcomp.obj
 0001:00088ee0       ?cfwrite@@YIIPBXJIPAU_iobuf@@@Z 00489ee0 f   zcomp.obj
 0001:00088f70       ?cfclose@@YIHPAU_iobuf@@@Z 00489f70 f   zcomp.obj
 0001:00088fa0       ?getCompSize@@YIJXZ        00489fa0 f   zcomp.obj
 0001:00088faa       ___CxxFrameHandler         00489faa f   msvcrt:MSVCRT.dll
 0001:00088fb0       _memcpy                    00489fb0 f   msvcrt:MSVCRT.dll
 0001:00088fb6       _memset                    00489fb6 f   msvcrt:MSVCRT.dll
 0001:00088fbc       __ftol                     00489fbc f   msvcrt:MSVCRT.dll
 0001:00088fc2       _strdup                    00489fc2 f   msvcrt:MSVCRT.dll
 0001:00088fc2       __strdup                   00489fc2 f   msvcrt:MSVCRT.dll
 0001:00088fc8       _sqrt                      00489fc8 f   msvcrt:MSVCRT.dll
 0001:00088fce       _memcmp                    00489fce f   msvcrt:MSVCRT.dll
 0001:00088fd4       _calloc                    00489fd4 f   msvcrt:MSVCRT.dll
 0001:00088fda       _fwrite                    00489fda f   msvcrt:MSVCRT.dll
 0001:00088fe0       _fread                     00489fe0 f   msvcrt:MSVCRT.dll
 0001:00088fe6       _fclose                    00489fe6 f   msvcrt:MSVCRT.dll
 0001:00088fec       _fopen                     00489fec f   msvcrt:MSVCRT.dll
 0001:00088ff2       _remove                    00489ff2 f   msvcrt:MSVCRT.dll
 0001:00088ff8       _strcpy                    00489ff8 f   msvcrt:MSVCRT.dll
 0001:00089000       __chkstk                   0048a000     msvcrt:chkstk.obj
 0001:00089000       __alloca_probe             0048a000     msvcrt:chkstk.obj
 0001:00089030       _memmove                   0048a030 f   msvcrt:MSVCRT.dll
 0001:00089036       _strlen                    0048a036 f   msvcrt:MSVCRT.dll
 0001:0008903c       _sprintf                   0048a03c f   msvcrt:MSVCRT.dll
 0001:00089042       _cos                       0048a042 f   msvcrt:MSVCRT.dll
 0001:00089048       _atan2                     0048a048 f   msvcrt:MSVCRT.dll
 0001:0008904e       _sin                       0048a04e f   msvcrt:MSVCRT.dll
 0001:00089054       _strcat                    0048a054 f   msvcrt:MSVCRT.dll
 0001:0008905a       _strcmp                    0048a05a f   msvcrt:MSVCRT.dll
 0001:00089060       __onexit                   0048a060 f   msvcrt:atonexit.obj
 0001:00089090       _atexit                    0048a090 f   msvcrt:atonexit.obj
 0001:000890b0       _fseek                     0048a0b0 f   msvcrt:MSVCRT.dll
 0001:000890b6       _strchr                    0048a0b6 f   msvcrt:MSVCRT.dll
 0001:000890bc       __purecall                 0048a0bc f   msvcrt:MSVCRT.dll
 0001:000890c2       _getc                      0048a0c2 f   msvcrt:MSVCRT.dll
 0001:000890c8       _ftell                     0048a0c8 f   msvcrt:MSVCRT.dll
 0001:000890ce       _strncmp                   0048a0ce f   msvcrt:MSVCRT.dll
 0001:000890d4       _toupper                   0048a0d4 f   msvcrt:MSVCRT.dll
 0001:000890da       _atoi                      0048a0da f   msvcrt:MSVCRT.dll
 0001:000890e0       _fprintf                   0048a0e0 f   msvcrt:MSVCRT.dll
 0001:000890e6       _exit                      0048a0e6 f   msvcrt:MSVCRT.dll
 0001:000890ec       _malloc                    0048a0ec f   msvcrt:MSVCRT.dll
 0001:000890f2       _realloc                   0048a0f2 f   msvcrt:MSVCRT.dll
 0001:000890f8       __msize                    0048a0f8 f   msvcrt:MSVCRT.dll
 0001:000890fe       _free                      0048a0fe f   msvcrt:MSVCRT.dll
 0001:00089104       _rand                      0048a104 f   msvcrt:MSVCRT.dll
 0001:0008910a       _strstr                    0048a10a f   msvcrt:MSVCRT.dll
 0001:00089110       __chdir                    0048a110 f   msvcrt:MSVCRT.dll
 0001:00089116       _srand                     0048a116 f   msvcrt:MSVCRT.dll
 0001:0008911c       _time                      0048a11c f   msvcrt:MSVCRT.dll
 0001:00089122       __set_sbh_threshold        0048a122 f   msvcrt:MSVCRT.dll
 0001:00089128       __errno                    0048a128 f   msvcrt:MSVCRT.dll
 0001:0008912e       _rename                    0048a12e f   msvcrt:MSVCRT.dll
 0001:00089134       _strncpy                   0048a134 f   msvcrt:MSVCRT.dll
 0001:0008913a       __beginthread              0048a13a f   msvcrt:MSVCRT.dll
 0001:00089140       _isalnum                   0048a140 f   msvcrt:MSVCRT.dll
 0001:00089146       _atof                      0048a146 f   msvcrt:MSVCRT.dll
 0001:0008914c       _tolower                   0048a14c f   msvcrt:MSVCRT.dll
 0001:00089152       _isalpha                   0048a152 f   msvcrt:MSVCRT.dll
 0001:00089158       _isdigit                   0048a158 f   msvcrt:MSVCRT.dll
 0001:0008915e       _fputc                     0048a15e f   msvcrt:MSVCRT.dll
 0001:00089164       _rewind                    0048a164 f   msvcrt:MSVCRT.dll
 0001:0008916a       __filelength               0048a16a f   msvcrt:MSVCRT.dll
 0001:0008916a       _filelength                0048a16a f   msvcrt:MSVCRT.dll
 0001:00089170       _isspace                   0048a170 f   msvcrt:MSVCRT.dll
 0001:00089176       _fputs                     0048a176 f   msvcrt:MSVCRT.dll
 0001:0008917c       _atol                      0048a17c f   msvcrt:MSVCRT.dll
 0001:00089190       _WinMainCRTStartup         0048a190 f   msvcrt:crtexew.obj
 0001:00089340       ___dllonexit               0048a340 f   msvcrt:MSVCRT.dll
 0001:00089346       __exit                     0048a346 f   msvcrt:MSVCRT.dll
 0001:0008934c       __XcptFilter               0048a34c f   msvcrt:MSVCRT.dll
 0001:00089352       ___getmainargs             0048a352 f   msvcrt:MSVCRT.dll
 0001:00089358       __initterm                 0048a358 f   msvcrt:MSVCRT.dll
 0001:00089360       __setdefaultprecision      0048a360 f   msvcrt:fp8.obj
 0001:00089380       ___setusermatherr          0048a380 f   msvcrt:MSVCRT.dll
 0001:00089390       __matherr                  0048a390 f   msvcrt:merr.obj
 0001:000893a0       __setargv                  0048a3a0 f   msvcrt:dllargv.obj
 0001:000893b0       ___p__commode              0048a3b0 f   msvcrt:MSVCRT.dll
 0001:000893b6       ___p__fmode                0048a3b6 f   msvcrt:MSVCRT.dll
 0001:000893bc       ___set_app_type            0048a3bc f   msvcrt:MSVCRT.dll
 0001:000893c2       __except_handler3          0048a3c2 f   msvcrt:MSVCRT.dll
 0001:000893c8       __controlfp                0048a3c8 f   msvcrt:MSVCRT.dll
 0001:000893ce       _mciSendStringA@16         0048a3ce f   winmm:WINMM.dll
 0001:000893d4       _auxSetVolume@8            0048a3d4 f   winmm:WINMM.dll
 0001:000893da       _auxGetDevCapsA@12         0048a3da f   winmm:WINMM.dll
 0001:000893e0       _auxGetNumDevs@0           0048a3e0 f   winmm:WINMM.dll
 0001:000893e6       _timeKillEvent@4           0048a3e6 f   winmm:WINMM.dll
 0001:000893ec       _timeEndPeriod@4           0048a3ec f   winmm:WINMM.dll
 0001:000893f2       _timeSetEvent@20           0048a3f2 f   winmm:WINMM.dll
 0001:000893f8       _timeBeginPeriod@4         0048a3f8 f   winmm:WINMM.dll
 0001:000893fe       _timeGetDevCaps@8          0048a3fe f   winmm:WINMM.dll
 0001:00089404       _DirectDrawCreate@12       0048a404 f   ddraw:DDRAW.dll
 0001:0008940a       _DirectDrawEnumerateA@8    0048a40a f   ddraw:DDRAW.dll
 0001:00089410       _DirectSoundCreate@12      0048a410 f   dsound:DSOUND.dll
 0001:00089416       _SystemTimeToFileTime@8    0048a416 f   kernel32:KERNEL32.dll
 0001:0008941c       _GetSystemTime@4           0048a41c f   kernel32:KERNEL32.dll
 0001:00089422       _VirtualLock@8             0048a422 f   kernel32:KERNEL32.dll
 0001:00089428       _LeaveCriticalSection@4    0048a428 f   kernel32:KERNEL32.dll
 0001:0008942e       _EnterCriticalSection@4    0048a42e f   kernel32:KERNEL32.dll
 0001:00089434       _VirtualUnlock@8           0048a434 f   kernel32:KERNEL32.dll
 0001:0008943a       _Sleep@4                   0048a43a f   kernel32:KERNEL32.dll
 0001:00089440       _SetThreadPriority@8       0048a440 f   kernel32:KERNEL32.dll
 0001:00089446       _CreateThread@24           0048a446 f   kernel32:KERNEL32.dll
 0001:0008944c       _CreateEventA@16           0048a44c f   kernel32:KERNEL32.dll
 0001:00089452       _CloseHandle@4             0048a452 f   kernel32:KERNEL32.dll
 0001:00089458       _WaitForSingleObject@8     0048a458 f   kernel32:KERNEL32.dll
 0001:0008945e       _SetEvent@4                0048a45e f   kernel32:KERNEL32.dll
 0001:00089464       _WaitForMultipleObjects@16 0048a464 f   kernel32:KERNEL32.dll
 0001:0008946a       _ResetEvent@4              0048a46a f   kernel32:KERNEL32.dll
 0001:00089470       _GlobalMemoryStatus@4      0048a470 f   kernel32:KERNEL32.dll
 0001:00089476       _CreateProcessA@40         0048a476 f   kernel32:KERNEL32.dll
 0001:0008947c       _GetProcAddress@8          0048a47c f   kernel32:KERNEL32.dll
 0001:00089482       _GetModuleHandleA@4        0048a482 f   kernel32:KERNEL32.dll
 0001:00089488       _InitializeCriticalSection@4 0048a488 f   kernel32:KERNEL32.dll
 0001:0008948e       _lstrcpyA@8                0048a48e f   kernel32:KERNEL32.dll
 0001:00089494       _GetModuleFileNameA@12     0048a494 f   kernel32:KERNEL32.dll
 0001:0008949a       _CreateMutexA@12           0048a49a f   kernel32:KERNEL32.dll
 0001:000894a0       _GetVersion@0              0048a4a0 f   kernel32:KERNEL32.dll
 0001:000894a6       _SetErrorMode@4            0048a4a6 f   kernel32:KERNEL32.dll
 0001:000894ac       _GetTickCount@0            0048a4ac f   kernel32:KERNEL32.dll
 0001:000894b2       _PulseEvent@4              0048a4b2 f   kernel32:KERNEL32.dll
 0001:000894b8       _ReleaseMutex@4            0048a4b8 f   kernel32:KERNEL32.dll
 0001:000894be       _GetCurrentThread@0        0048a4be f   kernel32:KERNEL32.dll
 0001:000894c4       _GlobalSize@4              0048a4c4 f   kernel32:KERNEL32.dll
 0001:000894ca       _GlobalHandle@4            0048a4ca f   kernel32:KERNEL32.dll
 0001:000894d0       _GetStartupInfoA@4         0048a4d0 f   kernel32:KERNEL32.dll
 0001:000894d6       _ClipCursor@4              0048a4d6 f   user32:USER32.dll
 0001:000894dc       _SetCursorPos@8            0048a4dc f   user32:USER32.dll
 0001:000894e2       _ClientToScreen@8          0048a4e2 f   user32:USER32.dll
 0001:000894e8       _GetClientRect@8           0048a4e8 f   user32:USER32.dll
 0001:000894ee       _PostQuitMessage@4         0048a4ee f   user32:USER32.dll
 0001:000894f4       _GetSystemMetrics@4        0048a4f4 f   user32:USER32.dll
 0001:000894fa       _DispatchMessageA@4        0048a4fa f   user32:USER32.dll
 0001:00089500       _TranslateMessage@4        0048a500 f   user32:USER32.dll
 0001:00089506       _PeekMessageA@20           0048a506 f   user32:USER32.dll
 0001:0008950c       _ReleaseCapture@0          0048a50c f   user32:USER32.dll
 0001:00089512       _GetWindowRect@8           0048a512 f   user32:USER32.dll
 0001:00089518       _SystemParametersInfoA@16  0048a518 f   user32:USER32.dll
 0001:0008951e       _MessageBoxA@16            0048a51e f   user32:USER32.dll
 0001:00089524       _ShowWindow@8              0048a524 f   user32:USER32.dll
 0001:0008952a       _IntersectRect@12          0048a52a f   user32:USER32.dll
 0001:00089530       _MapWindowPoints@16        0048a530 f   user32:USER32.dll
 0001:00089536       _WindowFromDC@4            0048a536 f   user32:USER32.dll
 0001:0008953c       _ValidateRect@8            0048a53c f   user32:USER32.dll
 0001:00089542       _SetFocus@4                0048a542 f   user32:USER32.dll
 0001:00089548       _UpdateWindow@4            0048a548 f   user32:USER32.dll
 0001:0008954e       _ShowCursor@4              0048a54e f   user32:USER32.dll
 0001:00089554       _CreateWindowExA@48        0048a554 f   user32:USER32.dll
 0001:0008955a       _LoadMenuA@8               0048a55a f   user32:USER32.dll
 0001:00089560       _AdjustWindowRectEx@16     0048a560 f   user32:USER32.dll
 0001:00089566       _RegisterClassA@4          0048a566 f   user32:USER32.dll
 0001:0008956c       _LoadCursorA@8             0048a56c f   user32:USER32.dll
 0001:00089572       _LoadIconA@8               0048a572 f   user32:USER32.dll
 0001:00089578       _DefWindowProcA@16         0048a578 f   user32:USER32.dll
 0001:0008957e       _wsprintfA                 0048a57e f   user32:USER32.dll
 0001:00089584       _GetCursorPos@4            0048a584 f   user32:USER32.dll
 0001:0008958a       _GetMessageA@16            0048a58a f   user32:USER32.dll
 0001:00089590       _GetClipBox@8              0048a590 f   gdi32:GDI32.dll
 0001:000895a0       @explode@16                0048a5a0 f   implode:expfast.obj
 0001:00089c40       @implode@24                0048ac40 f   implode:impfast.obj
 0001:0008a684       _DirectInputCreateA@16     0048b684 f   dinput:DINPUT.dll
 0001:0008a950       _c_dfDIJoystick            0048b950     dinput:dilib3.obj
 0001:0008a970       _stricmp                   0048b970 f   msvcrt:MSVCRT.dll
 0001:0008a970       __stricmp                  0048b970 f   msvcrt:MSVCRT.dll
 0001:0008a976       _lseek                     0048b976 f   msvcrt:MSVCRT.dll
 0001:0008a976       __lseek                    0048b976 f   msvcrt:MSVCRT.dll
 0001:0008a97c       __read                     0048b97c f   msvcrt:MSVCRT.dll
 0001:0008a97c       _read                      0048b97c f   msvcrt:MSVCRT.dll
 0001:0008a982       _close                     0048b982 f   msvcrt:MSVCRT.dll
 0001:0008a982       __close                    0048b982 f   msvcrt:MSVCRT.dll
 0001:0008a988       __write                    0048b988 f   msvcrt:MSVCRT.dll
 0001:0008a988       _write                     0048b988 f   msvcrt:MSVCRT.dll
 0001:0008a98e       __open                     0048b98e f   msvcrt:MSVCRT.dll
 0001:0008a98e       _open                      0048b98e f   msvcrt:MSVCRT.dll
 0001:0008a994       __chsize                   0048b994 f   msvcrt:MSVCRT.dll
 0001:0008a994       _chsize                    0048b994 f   msvcrt:MSVCRT.dll
 0001:0008a99a       _strupr                    0048b99a f   msvcrt:MSVCRT.dll
 0001:0008a99a       __strupr                   0048b99a f   msvcrt:MSVCRT.dll
 0001:0008a9a0       __strcmpi                  0048b9a0 f   msvcrt:MSVCRT.dll
 0001:0008a9a0       _strcmpi                   0048b9a0 f   msvcrt:MSVCRT.dll
 0001:0008a9a6       __itoa                     0048b9a6 f   msvcrt:MSVCRT.dll
 0001:0008a9a6       _itoa                      0048b9a6 f   msvcrt:MSVCRT.dll
 0001:0008a9ac       __strnicmp                 0048b9ac f   msvcrt:MSVCRT.dll
 0001:0008a9ac       _strnicmp                  0048b9ac f   msvcrt:MSVCRT.dll
 0001:0008a9b2       _mkdir                     0048b9b2 f   msvcrt:MSVCRT.dll
 0001:0008a9b2       __mkdir                    0048b9b2 f   msvcrt:MSVCRT.dll
 0001:0008a9b8       __unlink                   0048b9b8 f   msvcrt:MSVCRT.dll
 0001:0008a9b8       _unlink                    0048b9b8 f   msvcrt:MSVCRT.dll
 0001:0008a9be       _access                    0048b9be f   msvcrt:MSVCRT.dll
 0001:0008a9be       __access                   0048b9be f   msvcrt:MSVCRT.dll
 0001:0008a9c4       __fileno                   0048b9c4 f   msvcrt:MSVCRT.dll
 0001:0008a9c4       _fileno                    0048b9c4 f   msvcrt:MSVCRT.dll
 0002:00000054       ??_7T3DImageryBuilder@@6B@ 0048d054     3dimage.obj
 0002:00000058       ??_7T3DImagery@@6B@        0048d058     3dimage.obj
 0002:00000138       ??_7T3DAnimatorBuilder@@6B@ 0048d138     3dimage.obj
 0002:00000140       ??_7T3DAnimator@@6B@       0048d140     3dimage.obj
 0002:000001b0       ??_7T3dSurface@@6B@        0048d1b0     3dsurface.obj
 0002:00000218       ??_7TAmmoBuilder@@6B@      0048d218     ammo.obj
 0002:00000220       ??_7TAmmo@@6B@             0048d220     ammo.obj
 0002:000002e0       ??_7TAnimImageryBuilder@@6B@ 0048d2e0     animimage.obj
 0002:000002e8       ??_7TAnimImagery@@6B@      0048d2e8     animimage.obj
 0002:000003b8       ??_7TAnimAnimator@@6B@     0048d3b8     animimage.obj
 0002:000003d0       ??_7TArmorBuilder@@6B@     0048d3d0     armor.obj
 0002:000003d8       ??_7TArmor@@6B@            0048d3d8     armor.obj
 0002:00000498       ??_7TBitmapSurface@@6B@    0048d498     bmsurface.obj
 0002:00000508       ??_7TButton@@6B@           0048d508     button.obj
 0002:00000510       ??_7TCharacterBuilder@@6B@ 0048d510     character.obj
 0002:00000518       ??_7TCharacter@@6B@        0048d518     character.obj
 0002:00000640       ??_7TComplexObject@@6B@    0048d640     character.obj
 0002:0000071c       ??_7TCharAnimatorBuilder@@6B@ 0048d71c     character.obj
 0002:00000720       ??_7TPlayerAnimatorBuilder@@6B@ 0048d720     character.obj
 0002:00000728       ??_7TPlayerAnimator@@6B@   0048d728     character.obj
 0002:00000750       ??_7TCharAnimator@@6B@     0048d750     character.obj
 0002:00000820       ??_7TContainerBuilder@@6B@ 0048d820     container.obj
 0002:00000828       ??_7TContainer@@6B@        0048d828     container.obj
 0002:000008e8       ??_7TVialRackBuilder@@6B@  0048d8e8     container.obj
 0002:000008f0       ??_7TVialRack@@6B@         0048d8f0     container.obj
 0002:00000a08       ??_7TVideoSurface@@6B@     0048da08     ddsurface.obj
 0002:00000a68       ??_7TDeathPane@@6B@        0048da68     death.obj
 0002:00000ac0       ??_7TButtonPane@@6B@       0048dac0     death.obj
 0002:00000b18       ??_7TPane@@6B@             0048db18     death.obj
 0002:00000b70       ??_7TDialogPane@@6B@       0048db70     dialog.obj
 0002:00000bc8       _CLSID_DirectDraw          0048dbc8     directdraw.obj
 0002:00000bd8       _CLSID_DirectDrawClipper   0048dbd8     directdraw.obj
 0002:00000be8       _IID_IDirectDraw           0048dbe8     directdraw.obj
 0002:00000bf8       _IID_IDirectDraw2          0048dbf8     directdraw.obj
 0002:00000c08       _IID_IDirectDrawSurface    0048dc08     directdraw.obj
 0002:00000c18       _IID_IDirectDrawSurface2   0048dc18     directdraw.obj
 0002:00000c28       _IID_IDirectDrawSurface3   0048dc28     directdraw.obj
 0002:00000c38       _IID_IDirectDrawPalette    0048dc38     directdraw.obj
 0002:00000c48       _IID_IDirectDrawClipper    0048dc48     directdraw.obj
 0002:00000c58       _IID_IDirectDrawColorControl 0048dc58     directdraw.obj
 0002:00000c68       _IID_IDirect3D             0048dc68     directdraw.obj
 0002:00000c78       _IID_IDirect3D2            0048dc78     directdraw.obj
 0002:00000c88       _IID_IDirect3DRampDevice   0048dc88     directdraw.obj
 0002:00000c98       _IID_IDirect3DRGBDevice    0048dc98     directdraw.obj
 0002:00000ca8       _IID_IDirect3DHALDevice    0048dca8     directdraw.obj
 0002:00000cb8       _IID_IDirect3DMMXDevice    0048dcb8     directdraw.obj
 0002:00000cc8       _IID_IDirect3DDevice       0048dcc8     directdraw.obj
 0002:00000cd8       _IID_IDirect3DDevice2      0048dcd8     directdraw.obj
 0002:00000ce8       _IID_IDirect3DTexture      0048dce8     directdraw.obj
 0002:00000cf8       _IID_IDirect3DTexture2     0048dcf8     directdraw.obj
 0002:00000d08       _IID_IDirect3DLight        0048dd08     directdraw.obj
 0002:00000d18       _IID_IDirect3DMaterial     0048dd18     directdraw.obj
 0002:00000d28       _IID_IDirect3DMaterial2    0048dd28     directdraw.obj
 0002:00000d38       _IID_IDirect3DExecuteBuffer 0048dd38     directdraw.obj
 0002:00000d48       _IID_IDirect3DViewport     0048dd48     directdraw.obj
 0002:00000d58       _IID_IDirect3DViewport2    0048dd58     directdraw.obj
 0002:00000d68       _CLSID_CDirect3DRMDevice   0048dd68     directdraw.obj
 0002:00000d78       _CLSID_CDirect3DRMViewport 0048dd78     directdraw.obj
 0002:00000d88       _CLSID_CDirect3DRMFrame    0048dd88     directdraw.obj
 0002:00000d98       _CLSID_CDirect3DRMMesh     0048dd98     directdraw.obj
 0002:00000da8       _CLSID_CDirect3DRMMeshBuilder 0048dda8     directdraw.obj
 0002:00000db8       _CLSID_CDirect3DRMFace     0048ddb8     directdraw.obj
 0002:00000dc8       _CLSID_CDirect3DRMLight    0048ddc8     directdraw.obj
 0002:00000dd8       _CLSID_CDirect3DRMTexture  0048ddd8     directdraw.obj
 0002:00000de8       _CLSID_CDirect3DRMWrap     0048dde8     directdraw.obj
 0002:00000df8       _CLSID_CDirect3DRMMaterial 0048ddf8     directdraw.obj
 0002:00000e08       _CLSID_CDirect3DRMAnimation 0048de08     directdraw.obj
 0002:00000e18       _CLSID_CDirect3DRMAnimationSet 0048de18     directdraw.obj
 0002:00000e28       _CLSID_CDirect3DRMUserVisual 0048de28     directdraw.obj
 0002:00000e38       _CLSID_CDirect3DRMShadow   0048de38     directdraw.obj
 0002:00000e48       _CLSID_CDirect3DRMViewportInterpolator 0048de48     directdraw.obj
 0002:00000e58       _CLSID_CDirect3DRMFrameInterpolator 0048de58     directdraw.obj
 0002:00000e68       _CLSID_CDirect3DRMMeshInterpolator 0048de68     directdraw.obj
 0002:00000e78       _CLSID_CDirect3DRMLightInterpolator 0048de78     directdraw.obj
 0002:00000e88       _CLSID_CDirect3DRMMaterialInterpolator 0048de88     directdraw.obj
 0002:00000e98       _CLSID_CDirect3DRMTextureInterpolator 0048de98     directdraw.obj
 0002:00000ea8       _CLSID_CDirect3DRMProgressiveMesh 0048dea8     directdraw.obj
 0002:00000eb8       _IID_IDirect3DRMObject     0048deb8     directdraw.obj
 0002:00000ec8       _IID_IDirect3DRMDevice     0048dec8     directdraw.obj
 0002:00000ed8       _IID_IDirect3DRMDevice2    0048ded8     directdraw.obj
 0002:00000ee8       _IID_IDirect3DRMViewport   0048dee8     directdraw.obj
 0002:00000ef8       _IID_IDirect3DRMFrame      0048def8     directdraw.obj
 0002:00000f08       _IID_IDirect3DRMFrame2     0048df08     directdraw.obj
 0002:00000f18       _IID_IDirect3DRMVisual     0048df18     directdraw.obj
 0002:00000f28       _IID_IDirect3DRMMesh       0048df28     directdraw.obj
 0002:00000f38       _IID_IDirect3DRMMeshBuilder 0048df38     directdraw.obj
 0002:00000f48       _IID_IDirect3DRMMeshBuilder2 0048df48     directdraw.obj
 0002:00000f58       _IID_IDirect3DRMFace       0048df58     directdraw.obj
 0002:00000f68       _IID_IDirect3DRMLight      0048df68     directdraw.obj
 0002:00000f78       _IID_IDirect3DRMTexture    0048df78     directdraw.obj
 0002:00000f88       _IID_IDirect3DRMTexture2   0048df88     directdraw.obj
 0002:00000f98       _IID_IDirect3DRMWrap       0048df98     directdraw.obj
 0002:00000fa8       _IID_IDirect3DRMMaterial   0048dfa8     directdraw.obj
 0002:00000fb8       _IID_IDirect3DRMAnimation  0048dfb8     directdraw.obj
 0002:00000fc8       _IID_IDirect3DRMAnimationSet 0048dfc8     directdraw.obj
 0002:00000fd8       _IID_IDirect3DRMObjectArray 0048dfd8     directdraw.obj
 0002:00000fe8       _IID_IDirect3DRMDeviceArray 0048dfe8     directdraw.obj
 0002:00000ff8       _IID_IDirect3DRMViewportArray 0048dff8     directdraw.obj
 0002:00001008       _IID_IDirect3DRMFrameArray 0048e008     directdraw.obj
 0002:00001018       _IID_IDirect3DRMVisualArray 0048e018     directdraw.obj
 0002:00001028       _IID_IDirect3DRMLightArray 0048e028     directdraw.obj
 0002:00001038       _IID_IDirect3DRMPickedArray 0048e038     directdraw.obj
 0002:00001048       _IID_IDirect3DRMFaceArray  0048e048     directdraw.obj
 0002:00001058       _IID_IDirect3DRMUserVisual 0048e058     directdraw.obj
 0002:00001068       _IID_IDirect3DRMShadow     0048e068     directdraw.obj
 0002:00001078       _IID_IDirect3DRMInterpolator 0048e078     directdraw.obj
 0002:00001088       _IID_IDirect3DRMProgressiveMesh 0048e088     directdraw.obj
 0002:00001098       _IID_IDirect3DRMPicked2Array 0048e098     directdraw.obj
 0002:000010a8       _IID_IDirect3DRM           0048e0a8     directdraw.obj
 0002:000010b8       _IID_IDirect3DRM2          0048e0b8     directdraw.obj
 0002:000010c8       _IID_IDirect3DRMWinDevice  0048e0c8     directdraw.obj
 0002:000010d8       _CLSID_DirectInput         0048e0d8     directinput.obj
 0002:000010e8       _CLSID_DirectInputDevice   0048e0e8     directinput.obj
 0002:000010f8       _IID_IDirectInputA         0048e0f8     directinput.obj
 0002:00001108       _IID_IDirectInputW         0048e108     directinput.obj
 0002:00001118       _IID_IDirectInput2A        0048e118     directinput.obj
 0002:00001128       _IID_IDirectInput2W        0048e128     directinput.obj
 0002:00001138       _IID_IDirectInputDeviceA   0048e138     directinput.obj
 0002:00001148       _IID_IDirectInputDeviceW   0048e148     directinput.obj
 0002:00001158       _IID_IDirectInputDevice2A  0048e158     directinput.obj
 0002:00001168       _IID_IDirectInputDevice2W  0048e168     directinput.obj
 0002:00001178       _IID_IDirectInputEffect    0048e178     directinput.obj
 0002:00001188       _GUID_XAxis                0048e188     directinput.obj
 0002:00001198       _GUID_YAxis                0048e198     directinput.obj
 0002:000011a8       _GUID_ZAxis                0048e1a8     directinput.obj
 0002:000011b8       _GUID_RxAxis               0048e1b8     directinput.obj
 0002:000011c8       _GUID_RyAxis               0048e1c8     directinput.obj
 0002:000011d8       _GUID_RzAxis               0048e1d8     directinput.obj
 0002:000011e8       _GUID_Slider               0048e1e8     directinput.obj
 0002:000011f8       _GUID_Button               0048e1f8     directinput.obj
 0002:00001208       _GUID_Key                  0048e208     directinput.obj
 0002:00001218       _GUID_POV                  0048e218     directinput.obj
 0002:00001228       _GUID_Unknown              0048e228     directinput.obj
 0002:00001238       _GUID_SysMouse             0048e238     directinput.obj
 0002:00001248       _GUID_SysKeyboard          0048e248     directinput.obj
 0002:00001258       _GUID_Joystick             0048e258     directinput.obj
 0002:00001268       _GUID_ConstantForce        0048e268     directinput.obj
 0002:00001278       _GUID_RampForce            0048e278     directinput.obj
 0002:00001288       _GUID_Square               0048e288     directinput.obj
 0002:00001298       _GUID_Sine                 0048e298     directinput.obj
 0002:000012a8       _GUID_Triangle             0048e2a8     directinput.obj
 0002:000012b8       _GUID_SawtoothUp           0048e2b8     directinput.obj
 0002:000012c8       _GUID_SawtoothDown         0048e2c8     directinput.obj
 0002:000012d8       _GUID_Spring               0048e2d8     directinput.obj
 0002:000012e8       _GUID_Damper               0048e2e8     directinput.obj
 0002:000012f8       _GUID_Inertia              0048e2f8     directinput.obj
 0002:00001308       _GUID_Friction             0048e308     directinput.obj
 0002:00001318       _GUID_CustomForce          0048e318     directinput.obj
 0002:00001328       ??_7TDisplay@@6B@          0048e328     display.obj
 0002:00001390       ??_7TMultiSurface@@6B@     0048e390     display.obj
 0002:000013e8       ??_7TEditStatusPane@@6B@   0048e3e8     editor.obj
 0002:00001440       ??_7TEditToolsPane@@6B@    0048e440     editor.obj
 0002:00001498       ??_7TEditClassPane@@6B@    0048e498     editor.obj
 0002:000014f0       ??_7TScrollEditorPane@@6B@ 0048e4f0     editor.obj
 0002:00001550       ??_7TTextPane@@6B@         0048e550     editor.obj
 0002:000015b0       ??_7TScriptPane@@6B@       0048e5b0     editor.obj
 0002:00001610       ??_7TConsolePane@@6B@      0048e610     editor.obj
 0002:00001670       ??_7TStringParseStream@@6B@ 0048e670     editor.obj
 0002:00001688       ??_7TParseStream@@6B@      0048e688     editor.obj
 0002:000016a0       ??_7TFileParseStream@@6B@  0048e6a0     editor.obj
 0002:000016c8       ??_7TEffectBuilder@@6B@    0048e6c8     effect.obj
 0002:000016d0       ??_7TEffect@@6B@           0048e6d0     effect.obj
 0002:00001790       ??_7TFireEffectBuilder@@6B@ 0048e790     effect.obj
 0002:00001798       ??_7TFireEffect@@6B@       0048e798     effect.obj
 0002:00001858       ??_7TLightningEffectBuilder@@6B@ 0048e858     effect.obj
 0002:00001860       ??_7TLightningEffect@@6B@  0048e860     effect.obj
 0002:00001920       ??_7TIceEffectBuilder@@6B@ 0048e920     effect.obj
 0002:00001928       ??_7TIceEffect@@6B@        0048e928     effect.obj
 0002:000019e8       ??_7TPhotonEffectBuilder@@6B@ 0048e9e8     effect.obj
 0002:000019f0       ??_7TPhotonEffect@@6B@     0048e9f0     effect.obj
 0002:00001ab8       ??_7TMissileEffect@@6B@    0048eab8     effect.obj
 0002:00001b80       ??_7TFireBallEffectBuilder@@6B@ 0048eb80     effect.obj
 0002:00001b88       ??_7TFireBallEffect@@6B@   0048eb88     effect.obj
 0002:00001c50       ??_7THealEffectBuilder@@6B@ 0048ec50     effect.obj
 0002:00001c58       ??_7THealEffect@@6B@       0048ec58     effect.obj
 0002:00001d18       ??_7TLightning2EffectBuilder@@6B@ 0048ed18     effect.obj
 0002:00001d20       ??_7TLightning2Effect@@6B@ 0048ed20     effect.obj
 0002:00001de0       ??_7TTest3DAnimatorBuilder@@6B@ 0048ede0     effect.obj
 0002:00001de8       ??_7TTest3DAnimator@@6B@   0048ede8     effect.obj
 0002:00001e24       ??_7TFlareAnimatorBuilder@@6B@ 0048ee24     effect.obj
 0002:00001e28       ??_7TFlareAnimator@@6B@    0048ee28     effect.obj
 0002:00001e60       ??_7TFireAnimatorBuilder@@6B@ 0048ee60     effect.obj
 0002:00001e68       ??_7TFireAnimator@@6B@     0048ee68     effect.obj
 0002:00001e98       ??_7TPhotonAnimatorBuilder@@6B@ 0048ee98     effect.obj
 0002:00001ea0       ??_7TPhotonAnimator@@6B@   0048eea0     effect.obj
 0002:00001ef8       ??_7TIceAnimatorBuilder@@6B@ 0048eef8     effect.obj
 0002:00001f00       ??_7TIceAnimator@@6B@      0048ef00     effect.obj
 0002:00001f38       ??_7THealAnimatorBuilder@@6B@ 0048ef38     effect.obj
 0002:00001f40       ??_7THealAnimator@@6B@     0048ef40     effect.obj
 0002:00001fa0       ??_7TLightningAnimatorBuilder@@6B@ 0048efa0     effect.obj
 0002:00001fa8       ??_7TLightningAnimator@@6B@ 0048efa8     effect.obj
 0002:00001ff8       ??_7TCyanFountainAnimatorBuilder@@6B@ 0048eff8     effect.obj
 0002:00002000       ??_7TCyanFountainAnimator@@6B@ 0048f000     effect.obj
 0002:00002028       ??_7TFountainAnimator@@6B@ 0048f028     effect.obj
 0002:00002050       ??_7TRedFountainAnimatorBuilder@@6B@ 0048f050     effect.obj
 0002:00002058       ??_7TRedFountainAnimator@@6B@ 0048f058     effect.obj
 0002:00002080       ??_7TGreenFountainAnimatorBuilder@@6B@ 0048f080     effect.obj
 0002:00002088       ??_7TGreenFountainAnimator@@6B@ 0048f088     effect.obj
 0002:000020b0       ??_7TBlueFountainAnimatorBuilder@@6B@ 0048f0b0     effect.obj
 0002:000020b8       ??_7TBlueFountainAnimator@@6B@ 0048f0b8     effect.obj
 0002:000020e0       ??_7TRibbonAnimatorBuilder@@6B@ 0048f0e0     effect.obj
 0002:000020e8       ??_7TRibbonAnimator@@6B@   0048f0e8     effect.obj
 0002:00002144       ??_7TShieldAnimatorBuilder@@6B@ 0048f144     effect.obj
 0002:00002148       ??_7TShieldAnimator@@6B@   0048f148     effect.obj
 0002:0000216c       ??_7TFlameAnimatorBuilder@@6B@ 0048f16c     effect.obj
 0002:00002170       ??_7TFlameAnimator@@6B@    0048f170     effect.obj
 0002:00002198       ??_7TFireBallAnimatorBuilder@@6B@ 0048f198     effect.obj
 0002:000021a0       ??_7TFireBallAnimator@@6B@ 0048f1a0     effect.obj
 0002:000021f4       ??_7TSymGlowAnimatorBuilder@@6B@ 0048f1f4     effect.obj
 0002:000021f8       ??_7TSymGlowAnimator@@6B@  0048f1f8     effect.obj
 0002:00002240       ??_7TExitBuilder@@6B@      0048f240     exit.obj
 0002:00002248       ??_7TExit@@6B@             0048f248     exit.obj
 0002:00002310       ??_7TElevatorBuilder@@6B@  0048f310     exit.obj
 0002:00002318       ??_7TElevator@@6B@         0048f318     exit.obj
 0002:000023e0       ??_7TElevGlowAnimatorBuilder@@6B@ 0048f3e0     exit.obj
 0002:000023e8       ??_7TElevGlowAnimator@@6B@ 0048f3e8     exit.obj
 0002:00002410       ??_7TRotateWallBuilder@@6B@ 0048f410     exit.obj
 0002:00002418       ??_7TRotateWall@@6B@       0048f418     exit.obj
 0002:000024e0       ??_7TPressPlateBuilder@@6B@ 0048f4e0     exit.obj
 0002:000024e8       ??_7TPressPlate@@6B@       0048f4e8     exit.obj
 0002:000025b0       ??_7TUpBlockBuilder@@6B@   0048f5b0     exit.obj
 0002:000025b8       ??_7TUpBlock@@6B@          0048f5b8     exit.obj
 0002:00002680       ??_7TStatPane@@6B@         0048f680     exlmain.obj
 0002:000026d8       ??_7TQuickSpellPane@@6B@   0048f6d8     exlmain.obj
 0002:00002730       ??_7TSpellPane@@6B@        0048f730     exlmain.obj
 0002:00002788       ??_7TAutoMap@@6B@          0048f788     exlmain.obj
 0002:000027e0       ??_7TMultiCtrlPane@@6B@    0048f7e0     exlmain.obj
 0002:00002838       ??_7TInventory@@6B@        0048f838     exlmain.obj
 0002:00002890       ??_7TMapPane@@6B@          0048f890     exlmain.obj
 0002:000028e8       ??_7THealthBar@@6B@        0048f8e8     exlmain.obj
 0002:00002940       ??_7TStatusBar@@6B@        0048f940     exlmain.obj
 0002:00002998       ??_7TStaminaBar@@6B@       0048f998     exlmain.obj
 0002:000029f0       ??_7TTextBar@@6B@          0048f9f0     exlmain.obj
 0002:00002a48       ??_7TEquipPane@@6B@        0048fa48     exlmain.obj
 0002:00002a9c       ??_7TMainWindow@@6B@       0048fa9c     exlmain.obj
 0002:00002aa0       ??_7TFoodBuilder@@6B@      0048faa0     food.obj
 0002:00002aa8       ??_7TFood@@6B@             0048faa8     food.obj
 0002:00002bc0       ??_7THelperBuilder@@6B@    0048fbc0     helper.obj
 0002:00002bc8       ??_7THelper@@6B@           0048fbc8     helper.obj
 0002:00002c88       ??_7THelperAnimatorBuilder@@6B@ 0048fc88     helper.obj
 0002:00002c90       ??_7THelperAnimator@@6B@   0048fc90     helper.obj
 0002:00002cd0       ??_7TObjectAnimator@@6B@   0048fcd0     imagery.obj
 0002:00002ce4       ??_7TImageryBuilder@@6B@   0048fce4     imagery.obj
 0002:00002ce8       ??_7TObjectImagery@@6B@    0048fce8     imagery.obj
 0002:00002db8       ??_7TKeyBuilder@@6B@       0048fdb8     key.obj
 0002:00002dc0       ??_7TKey@@6B@              0048fdc0     key.obj
 0002:00002e80       ??_7TLightSourceBuilder@@6B@ 0048fe80     lightsource.obj
 0002:00002e88       ??_7TLightSource@@6B@      0048fe88     lightsource.obj
 0002:00002f48       ??_7TLogoScreen@@6B@       0048ff48     logoscreen.obj
 0002:00002f80       ??_7TMosaicSurface@@6B@    0048ff80     Mappane.obj
 0002:00003000       ??_7TMoneyBuilder@@6B@     00490000     money.obj
 0002:00003008       ??_7TMoney@@6B@            00490008     money.obj
 0002:000030c8       ??_7TMultiAnimImageryBuilder@@6B@ 004900c8     multianimimage.obj
 0002:000030d0       ??_7TMultiAnimImagery@@6B@ 004900d0     multianimimage.obj
 0002:000031a0       ??_7TMultiImageryBuilder@@6B@ 004901a0     multiimage.obj
 0002:000031a8       ??_7TMultiImagery@@6B@     004901a8     multiimage.obj
 0002:00003280       ??_7TObjectBuilder@@6B@    00490280     object.obj
 0002:00003288       ??_7TObjectInstance@@6B@   00490288     object.obj
 0002:00003348       ??_7TObjectClass@@6B@      00490348     object.obj
 0002:00003370       ??_7TPlayerBuilder@@6B@    00490370     player.obj
 0002:00003378       ??_7TPlayer@@6B@           00490378     player.obj
 0002:000034a0       ??_7TPlayScreen@@6B@       004904a0     playscreen.obj
 0002:000034d8       ??_7TRangedWeaponBuilder@@6B@ 004904d8     rangedweapon.obj
 0002:000034e0       ??_7TRangedWeapon@@6B@     004904e0     rangedweapon.obj
 0002:000035a0       ??_7TScreen@@6B@           004905a0     screen.obj
 0002:000035f0       ??_7TScrollBuilder@@6B@    004905f0     scroll.obj
 0002:000035f8       ??_7TScrollPane@@6B@       004905f8     scroll.obj
 0002:00003650       ??_7TBookPane@@6B@         00490650     scroll.obj
 0002:000036a8       ??_7TScroll@@6B@           004906a8     scroll.obj
 0002:00003768       ??_7TShadowBuilder@@6B@    00490768     shadow.obj
 0002:00003770       ??_7TShadow@@6B@           00490770     shadow.obj
 0002:00003830       ??_7TTalismanButton@@6B@   00490830     spell.obj
 0002:00003834       ??_7TOutputStream@@6B@     00490834     Stream.obj
 0002:00003838       ??_7TSurface@@6B@          00490838     surface.obj
 0002:00003890       ??_7TTalismanBuilder@@6B@  00490890     talisman.obj
 0002:00003898       ??_7TTalisman@@6B@         00490898     talisman.obj
 0002:00003958       ??_7TTileBuilder@@6B@      00490958     tile.obj
 0002:00003960       ??_7TTile@@6B@             00490960     tile.obj
 0002:00003a20       ??_7TToolBuilder@@6B@      00490a20     tool.obj
 0002:00003a28       ??_7TTool@@6B@             00490a28     tool.obj
 0002:00003ae8       ??_7TWeaponBuilder@@6B@    00490ae8     weapon.obj
 0002:00003af0       ??_7TWeapon@@6B@           00490af0     weapon.obj
 0002:00003bb0       ??_7TWebBuilder@@6B@       00490bb0     web.obj
 0002:00003bb8       ??_7TWeb@@6B@              00490bb8     web.obj
 0003:00000000       ___xc_a                    00493000     msvcrt:cinitexe.obj
 0003:000001e0       ___xc_z                    004931e0     msvcrt:cinitexe.obj
 0003:000001e4       ___xi_a                    004931e4     msvcrt:cinitexe.obj
 0003:000001e8       ___xi_z                    004931e8     msvcrt:cinitexe.obj
 0003:00000418       ?UseTextures@@3HA          00493418     3dscene.obj
 0003:0000041c       ?DitherEnable@@3HA         0049341c     3dscene.obj
 0003:00000420       ?BlendEnable@@3HA          00493420     3dscene.obj
 0003:00000424       ?SpecularEnable@@3HA       00493424     3dscene.obj
 0003:00000428       ?ZEnable@@3HA              00493428     3dscene.obj
 0003:000004b0       ?identity@@3U_D3DMATRIX@@A 004934b0     3dscene.obj
 0003:000007c0       ?AmmoPos@@3PAU__unnamed@@A 004937c0     ammo.obj
 0003:00000948       ??_C@_04IJOI@AMMO?$AA@     00493948     ammo.obj
 0003:00000964       ??_C@_05MKBI@ARMOR?$AA@    00493964     armor.obj
 0003:00000c2c       ??_C@_09MFPK@Character?$AA@ 00493c2c     character.obj
 0003:00000c38       ??_C@_05KECD@stand?$AA@    00493c38     character.obj
 0003:00000c40       ??_C@_06JEIN@combat?$AA@   00493c40     character.obj
 0003:00000c48       ??_C@_05BOEP@sleep?$AA@    00493c48     character.obj
 0003:00000c50       ??_C@_07HHLL@sleeper?$AA@  00493c50     character.obj
 0003:00000c58       ??_C@_05ENHL@still?$AA@    00493c58     character.obj
 0003:00000c60       ??_C@_0L@HKNK@Aggressive?$AA@ 00493c60     character.obj
 0003:00000c6c       ??_C@_06CCHE@Radius?$AA@   00493c6c     character.obj
 0003:00000c74       ??_C@_0L@DJOC@SwingRange?$AA@ 00493c74     character.obj
 0003:00000c80       ??_C@_0M@LHHB@ThrustRange?$AA@ 00493c80     character.obj
 0003:00000c8c       ??_C@_06PMBG@poison?$AA@   00493c8c     character.obj
 0003:00000c94       ??_C@_09MNBH@CHARACTER?$AA@ 00493c94     character.obj
 0003:00000ca0       ??_C@_06BCGP@PLAYER?$AA@   00493ca0     character.obj
 0003:00000cb8       ?maxintensity@@3HA         00493cb8     colortable.obj
 0003:00000cc0       ?attrange@@3NA             00493cc0     colortable.obj
 0003:00000cc8       ?falloff@@3NA              00493cc8     colortable.obj
 0003:00000cd0       ?AmbientColor@@3USColor@@A 00493cd0     colortable.obj
 0003:00000cd8       ?AmbientMultiplier@@3NA    00493cd8     colortable.obj
 0003:00000ce0       ?LightColors@@3PAUSColor@@A 00493ce0     colortable.obj
 0003:00000cf0       ?LightMultipliers@@3PAHA   00493cf0     colortable.obj
 0003:00000d00       ?Commands@@3PAUSCommand@@A 00493d00     command.obj
 0003:00002678       ?Operators@@3PAPADA        00495678     command.obj
 0003:0000285c       ??_C@_09IAJN@CONTAINER?$AA@ 0049585c     container.obj
 0003:00002868       ??_C@_08CAJN@Openable?$AA@ 00495868     container.obj
 0003:00002874       ??_C@_0BA@KAO@LiquidContainer?$AA@ 00495874     container.obj
 0003:00002884       ??_C@_04BMFB@Pick?$AA@     00495884     container.obj
 0003:0000288c       ??_C@_09CGDO@VIAL?5RACK?$AA@ 0049588c     container.obj
 0003:00002898       ?oldcursorx@@3HA           00495898     cursor.obj
 0003:0000289c       ?oldcursory@@3HA           0049589c     cursor.obj
 0003:000028a0       ?CursorTypes@@3PAPADA      004958a0     cursor.obj
 0003:00002b20       ??_C@_03NJAM@say?$AA@      00495b20     dialog.obj
 0003:0000487c       ?ambient@@3HA              0049787c     dls.obj
 0003:00004880       ?objflags@@3PAPADA         00497880     editor.obj
 0003:000048c8       ?lightflags@@3PAPADA       004978c8     editor.obj
 0003:000048d8       ?contflags@@3PAPADA        004978d8     editor.obj
 0003:000048e0       ?MakeRCInclude@@3PADA      004978e0     editor.obj
 0003:000048e4       ?MakeRCImagery@@3PADA      004978e4     editor.obj
 0003:000048e8       ?MakeRCBegin@@3PADA        004978e8     editor.obj
 0003:000048ec       ?MakeRCBitmap@@3PADA       004978ec     editor.obj
 0003:000048f0       ?MakeRCFlags@@3PADA        004978f0     editor.obj
 0003:000048f4       ?MakeRCEnd@@3PADA          004978f4     editor.obj
 0003:000048f8       ?RCClassDirs@@3PAPADA      004978f8     editor.obj
 0003:00004960       ?RCTileDirs@@3PAPADA       00497960     editor.obj
 0003:00004990       ?RCPrefixes@@3PAPADA       00497990     editor.obj
 0003:00004cc8       ?zstart@@3PAHA             00497cc8     editor.obj
 0003:00004ce8       ?TerrainCodes@@3PAU__unnamed@@A 00497ce8     editor.obj
 0003:00005d58       ?ToolList@@3PAU__unnamed@@A 00498d58     editor.obj
 0003:0000667c       ??_C@_06EBJL@EFFECT?$AA@   0049967c     effect.obj
 0003:00006684       ??_C@_04IEDC@FIRE?$AA@     00499684     effect.obj
 0003:0000668c       ??_C@_09NHFC@LIGHTNING?$AA@ 0049968c     effect.obj
 0003:00006698       ??_C@_09JGLK@lightning?$AA@ 00499698     effect.obj
 0003:000066a4       ??_C@_03HDFI@ICE?$AA@      004996a4     effect.obj
 0003:000066a8       ??_C@_06CCOK@PHOTON?$AA@   004996a8     effect.obj
 0003:000066b0       ??_C@_08KDFP@FIREBALL?$AA@ 004996b0     effect.obj
 0003:000066bc       ??_C@_04GNI@HEAL?$AA@      004996bc     effect.obj
 0003:000066c4       ??_C@_0L@LKGJ@LIGHTNING2?$AA@ 004996c4     effect.obj
 0003:000066d0       ??_C@_06EFME@Sphere?$AA@   004996d0     effect.obj
 0003:000066d8       ??_C@_05NCBN@Flare?$AA@    004996d8     effect.obj
 0003:000066e0       ??_C@_04EBFF@Fire?$AA@     004996e0     effect.obj
 0003:000066e8       ??_C@_06EJGF@Photon?$AA@   004996e8     effect.obj
 0003:000066f0       ??_C@_07HA@CRYSTAL?$AA@    004996f0     effect.obj
 0003:000066f8       ??_C@_08BOCB@CYANFONT?$AA@ 004996f8     effect.obj
 0003:00006704       ??_C@_07NNAE@REDFONT?$AA@  00499704     effect.obj
 0003:0000670c       ??_C@_09HIDE@GREENFONT?$AA@ 0049970c     effect.obj
 0003:00006718       ??_C@_08MGFB@BLUEFONT?$AA@ 00499718     effect.obj
 0003:00006724       ??_C@_06POBI@RIBBON?$AA@   00499724     effect.obj
 0003:0000672c       ??_C@_06KPD@SHIELD?$AA@    0049972c     effect.obj
 0003:00006734       ??_C@_05DJA@FLAME?$AA@     00499734     effect.obj
 0003:0000673c       ??_C@_08ECC@FireBall?$AA@  0049973c     effect.obj
 0003:00006748       ??_C@_07LMKO@SymGlow?$AA@  00499748     effect.obj
 0003:00006750       ?EquipLoc@@3PAY08U__unnamed@@A 00499750     equip.obj
 0003:0000692c       ??_C@_04HPFN@EXIT?$AA@     0049992c     exit.obj
 0003:00006934       ??_C@_09KMMJ@UseCenter?$AA@ 00499934     exit.obj
 0003:00006940       ??_C@_05BBKO@Delay?$AA@    00499940     exit.obj
 0003:00006948       ??_C@_0L@EHFJ@StopMoving?$AA@ 00499948     exit.obj
 0003:00006954       ??_C@_08NCCC@ELEVATOR?$AA@ 00499954     exit.obj
 0003:00006960       ??_C@_08BLKH@ElevGlow?$AA@ 00499960     exit.obj
 0003:0000696c       ??_C@_0L@IBDN@ROTATEWALL?$AA@ 0049996c     exit.obj
 0003:00006978       ??_C@_0L@KDPG@PressPlate?$AA@ 00499978     exit.obj
 0003:00006984       ??_C@_07KHHN@UpBlock?$AA@  00499984     exit.obj
 0003:00006a0c       ?Display@@3PAVTDisplay@@A  00499a0c     exlmain.obj
 0003:00006a10       ?CheckColorMode@@3HA       00499a10     exlmain.obj
 0003:00006a14       ?ClearBeforeDraw@@3HA      00499a14     exlmain.obj
 0003:00006a18       ?NoScrollZBuffer@@3HA      00499a18     exlmain.obj
 0003:00006a1c       ?WaitVertRetrace@@3HA      00499a1c     exlmain.obj
 0003:00006a20       ?NoNormals@@3HA            00499a20     exlmain.obj
 0003:00006a24       ?SmoothScroll@@3HA         00499a24     exlmain.obj
 0003:00006a28       ?ScrollLock@@3HA           00499a28     exlmain.obj
 0003:00006a2c       ?DrawRealtimeShadows@@3HA  00499a2c     exlmain.obj
 0003:00006a30       ?Show3D@@3HA               00499a30     exlmain.obj
 0003:00006a34       ?DoPageFlip@@3HA           00499a34     exlmain.obj
 0003:00006a38       ?MonitorW@@3HA             00499a38     exlmain.obj
 0003:00006a3c       ?MonitorH@@3HA             00499a3c     exlmain.obj
 0003:00006a40       ?SoundSystemOn@@3HA        00499a40     exlmain.obj
 0003:00006cc8       ??_C@_04OOPF@FONT?$AA@     00499cc8     exlmain.obj
 0003:00006cd8       ??_C@_04FBCP@FOOD?$AA@     00499cd8     food.obj
 0003:00006d3c       ??_C@_06BMEK@HELPER?$AA@   00499d3c     helper.obj
 0003:00006d44       ??_C@_03IAJJ@Box?$AA@      00499d44     helper.obj
 0003:00006ea8       ??_C@_03PHBO@KEY?$AA@      00499ea8     key.obj
 0003:00006eb8       ??_C@_0M@FMNI@LIGHTSOURCE?$AA@ 00499eb8     lightsource.obj
 0003:00006ec8       ?table@@3PAUSColor@@A      00499ec8     logoscreen.obj
 0003:00006fb8       ?KeyDirs@@3PAU__unnamed@@A 00499fb8     Mappane.obj
 0003:00006ff8       ?Directions@@3PAPADA       00499ff8     Mappane.obj
 0003:000071a8       ?ModeCursorName@@3PAPADA   0049a1a8     Mappane.obj
 0003:000071d0       ??_C@_0CD@CFCI@Couldn?8t?5initialize?5mosaic?5surfa@ 0049a1d0     Mappane.obj
 0003:000071f4       ??_C@_0M@FECB@Wait?5Failed?$AA@ 0049a1f4     Mappane.obj
 0003:00007200       ??_C@_04IBJ@walk?$AA@      0049a200     Mappane.obj
 0003:00007208       ??_C@_05KBGO@Value?$AA@    0049a208     Mappane.obj
 0003:00007210       ?MoneyPos@@3PAU__unnamed@@A 0049a210     money.obj
 0003:00007418       ??_C@_05EBDH@MONEY?$AA@    0049a418     money.obj
 0003:000074b8       ?MultiPanes@@3PAPAVTPane@@A 0049a4b8     multictrl.obj
 0003:00007938       ?keywords@@3PAPADA         0049a938     parse.obj
 0003:00007a60       ?StatNames@@3PAPADA        0049aa60     player.obj
 0003:00007a78       ?SkillTree@@3PAUSSkill@@A  0049aa78     player.obj
 0003:00007d60       ??_C@_06HJOA@Player?$AA@   0049ad60     player.obj
 0003:00007d68       ??_C@_0N@JKPH@ResistPoison?$AA@ 0049ad68     player.obj
 0003:00007d78       ?oh@@3PAU__unnamed@@A      0049ad78     playscreen.obj
 0003:000080e4       ??_C@_0N@GPGG@RANGEDWEAPON?$AA@ 0049b0e4     rangedweapon.obj
 0003:00008620       ?LocalScriptVals@@3PAU__unnamed@@A 0049b620     script.obj
 0003:00008740       ??_C@_06JLNB@SCROLL?$AA@   0049b740     scroll.obj
 0003:00008748       ?sectorfilename@@3PADA     0049b748     Sector.obj
 0003:00008798       ?SectrorMapFCC@@3KA        0049b798     Sector.obj
 0003:0000885c       ??_C@_06BPED@SHADOW?$AA@   0049b85c     shadow.obj
 0003:00008978       ?Talismans@@3PAPADA        0049b978     spell.obj
 0003:00008d94       ??_C@_08MKNM@TALISMAN?$AA@ 0049bd94     talisman.obj
 0003:00008f4c       ??_C@_04DDLF@TILE?$AA@     0049bf4c     tile.obj
 0003:00008f54       ?period@@3KA               0049bf54     timer.obj
 0003:00008f60       ??_C@_04BKBC@TOOL?$AA@     0049bf60     tool.obj
 0003:00008fa0       ??_C@_06FGDG@WEAPON?$AA@   0049bfa0     weapon.obj
 0003:00008fa8       ??_C@_04PIKN@type?$AA@     0049bfa8     weapon.obj
 0003:00008fb4       ??_C@_03MOK@WEB?$AA@       0049bfb4     web.obj
 0003:00008fc0       ___defaultmatherr          0049bfc0     msvcrt:merr.obj
 0003:000098d8       ?T3DAnimatorBuilderInstance@@3VT3DAnimatorBuilder@@A 0049c8d8     3dimage.obj
 0003:000098e0       ?T3DImageryBuilderInstance@@3VT3DImageryBuilder@@A 0049c8e0     3dimage.obj
 0003:000098e8       ?builders@T3DAnimatorBuilder@@0PAPAV1@A 0049c8e8     3dimage.obj
 0003:00009ae8       ?numanimtypes@T3DAnimatorBuilder@@0HA 0049cae8     3dimage.obj
 0003:00009b30       ?hProj@@3KA                0049cb30     3dscene.obj
 0003:00009ca4       ?hView@@3KA                0049cca4     3dscene.obj
 0003:00009eb8       ?hPos@@3KA                 0049ceb8     3dscene.obj
 0003:00009ee8       ?hWorld@@3KA               0049cee8     3dscene.obj
 0003:0000b9f0       ?FlatShade@@3HA            0049e9f0     3dscene.obj
 0003:0000b9f4       ?SimpleLight@@3HA          0049e9f4     3dscene.obj
 0003:0000b9f8       ?BilinearFilter@@3HA       0049e9f8     3dscene.obj
 0003:0000b9fc       ?NoUpdateRects@@3HA        0049e9fc     3dscene.obj
 0003:0000ba08       ?ammogrounditem@@3PAY0CA@PAVTBitmap@@A 0049ea08     ammo.obj
 0003:0000bc08       ?TAmmoBuilderInstance@@3VTAmmoBuilder@@A 0049ec08     ammo.obj
 0003:0000bc10       ?AmmoClass@@3VTObjectClass@@A 0049ec10     ammo.obj
 0003:008e2030       ?ammogroundusecount@@3PAY0CA@HA 00d75030     ammo.obj
 0003:008e2230       ?ammoinvitem@@3PAY0CA@PAVTBitmap@@A 00d75230     ammo.obj
 0003:008e2430       ?ammoinvusecount@@3PAY0CA@HA 00d75430     ammo.obj
 0003:008e2630       ?TAnimImageryBuilderInstance@@3VTAnimImageryBuilder@@A 00d75630     animimage.obj
 0003:008e2638       ?TArmorBuilderInstance@@3VTArmorBuilder@@A 00d75638     armor.obj
 0003:008e2640       ?ArmorClass@@3VTObjectClass@@A 00d75640     armor.obj
 0003:011b8a60       ?CRCTable@@3PAKA           0164ba60     Box.obj
 0003:011b8e60       ?CRCTableInitialized@@3HA  0164be60     Box.obj
 0003:011b8e68       ?TCharacterBuilderInstance@@3VTCharacterBuilder@@A 0164be68     character.obj
 0003:011b8e78       ?TPlayerAnimatorBuilderInstance@@3VTPlayerAnimatorBuilder@@A 0164be78     character.obj
 0003:011b8e80       ?TCharAnimatorBuilderInstance@@3VTCharAnimatorBuilder@@A 0164be80     character.obj
 0003:011b8e88       ?CharacterClass@@3VTObjectClass@@A 0164be88     character.obj
 0003:01a8f2a8       ?LightTableRed@@3PAEA      01f222a8     colortable.obj
 0003:01a8f2b0       ?DistTable@@3PAY0BAA@EA    01f222b0     colortable.obj
 0003:01a9f2b0       ?IntCos@@3PAEA             01f322b0     colortable.obj
 0003:01aaf2b0       ?LightTableBuffer@@3PAEA   01f422b0     colortable.obj
 0003:01aef2d0       ?LightDropOffTable@@3PAEA  01f822d0     colortable.obj
 0003:01af72d0       ?ColorTable16@@3PAEA       01f8a2d0     colortable.obj
 0003:01af92d0       ?BrightnessTable@@3PAEA    01f8c2d0     colortable.obj
 0003:01afb2d0       ?IntensityTableUpper@@3PAEA 01f8e2d0     colortable.obj
 0003:01afb3d0       ?Conv16to32Upper@@3PAKA    01f8e3d0     colortable.obj
 0003:01afb5d0       ?ColorTable@@3PAEA         01f8e5d0     colortable.obj
 0003:01afd5d0       ?DistX@@3PAFA              01f905d0     colortable.obj
 0003:01afd7d0       ?DistY@@3PAFA              01f907d0     colortable.obj
 0003:01afd9d0       ?attmin@@3NA               01f909d0     colortable.obj
 0003:01afd9d8       ?ColorTableUpperLo@@3PAEA  01f909d8     colortable.obj
 0003:01aff9d8       ?ColorTableUpperHi@@3PAEA  01f929d8     colortable.obj
 0003:01b019d8       ?IntensityTableLower@@3PAEA 01f949d8     colortable.obj
 0003:01b01ad8       ?SinSin@@3PAEA             01f94ad8     colortable.obj
 0003:01b05ad8       ?Conv16to32Lower@@3PAKA    01f98ad8     colortable.obj
 0003:01b05ed8       ?LightTable@@3PAEA         01f98ed8     colortable.obj
 0003:01b05edc       ?LightTableGreen@@3PAGA    01f98edc     colortable.obj
 0003:01b05ee0       ?AngleTable@@3PAY0BAA@EA   01f98ee0     colortable.obj
 0003:01b15ee0       ?ColorTableLower@@3PAEA    01fa8ee0     colortable.obj
 0003:01b17ee0       ?CosCos@@3PAEA             01faaee0     colortable.obj
 0003:01b1bee0       ?LightTableBlue@@3PAEA     01faeee0     colortable.obj
 0003:01b1bee8       ?MonoPercent@@3NA          01faeee8     colortable.obj
 0003:01b1bef0       ?LightUseCount@@3PAHA      01faeef0     colortable.obj
 0003:01b1bf08       ?ContainerClass@@3VTObjectClass@@A 01faef08     container.obj
 0003:023f2328       ?TVialRackBuilderInstance@@3VTVialRackBuilder@@A 02885328     container.obj
 0003:023f2330       ?TContainerBuilderInstance@@3VTContainerBuilder@@A 02885330     container.obj
 0003:023f2338       ?grabx@@3HA                02885338     cursor.obj
 0003:023f233c       ?graby@@3HA                0288533c     cursor.obj
 0003:023f2340       ?priority@@3HA             02885340     cursor.obj
 0003:023f2344       ?MouseCursor@@3PAVTBitmap@@A 02885344     cursor.obj
 0003:023f2348       ?MouseShadow@@3PAVTBitmap@@A 02885348     cursor.obj
 0003:023f234c       ?shadowoffsetx@@3HA        0288534c     cursor.obj
 0003:023f2350       ?shadowoffsety@@3HA        02885350     cursor.obj
 0003:023f2354       ?MouseCursorAdd@@3PAVTBitmap@@A 02885354     cursor.obj
 0003:023f2358       ?DragBitmap@@3PAVTBitmap@@A 02885358     cursor.obj
 0003:023f235c       ?DragObj@@3PAVTObjectInstance@@A 0288535c     cursor.obj
 0003:023f2360       ?cleardragbitmap@@3HA      02885360     cursor.obj
 0003:023f2368       ?DeathPane@@3VTDeathPane@@A 02885368     death.obj
 0003:023f24b0       ?OldScrollLock@@3HA        028854b0     dialog.obj
 0003:023f24b8       ?DialogPane@@3VTDialogPane@@A 028854b8     dialog.obj
 0003:023f2530       ?Direct3D@@3PAUIDirect3D2@@A 02885530     directdraw.obj
 0003:023f2534       ?Device@@3PAUIDirect3DDevice@@A 02885534     directdraw.obj
 0003:023f2538       ?GDIMem@@3KA               02885538     directdraw.obj
 0003:023f2540       ?DDHELCaps@@3U_DDCAPS@@A   02885540     directdraw.obj
 0003:023f26b0       ?HWCaps@@3U_DDCAPS@@A      028856b0     directdraw.obj
 0003:023f281c       ?ZBufferBitDepth@@3KA      0288581c     directdraw.obj
 0003:023f2820       ?D3DHWCaps@@3U_D3DDeviceDesc@@A 02885820     directdraw.obj
 0003:023f28ec       ?Device2@@3PAUIDirect3DDevice2@@A 028858ec     directdraw.obj
 0003:023f28f0       ?HELCaps@@3U_DDCAPS@@A     028858f0     directdraw.obj
 0003:023f2a5c       ?BlitHardware@@3HA         02885a5c     directdraw.obj
 0003:023f2a60       ?DirectDraw@@3PAUIDirectDraw@@A 02885a60     directdraw.obj
 0003:023f2a68       ?DDHWCaps@@3U_DDCAPS@@A    02885a68     directdraw.obj
 0003:023f2bd4       ?DeviceGuid@@3PAU_GUID@@A  02885bd4     directdraw.obj
 0003:023f2bd8       ?DeviceInfo@@3U_D3DDeviceInfo@@A 02885bd8     directdraw.obj
 0003:023f2d7c       ?Viewport@@3PAUIDirect3DViewport2@@A 02885d7c     directdraw.obj
 0003:023f2d80       ?DirectDraw2@@3PAUIDirectDraw2@@A 02885d80     directdraw.obj
 0003:023f2d88       ?D3DHELCaps@@3U_D3DDeviceDesc@@A 02885d88     directdraw.obj
 0003:023f2e54       ?Hardware3D@@3HA           02885e54     directdraw.obj
 0003:023f2e58       ?UsingHardware@@3HA        02885e58     directdraw.obj
 0003:023f2e80       ?DirectInput@@3PAUIDirectInputA@@A 02885e80     directinput.obj
 0003:023f2e88       ?RestoreBufs@@3PAURestoreBuf@@A 02885e88     display.obj
 0003:023f3158       ?clipper@@3PAUIDirectDrawClipper@@A 02886158     display.obj
 0003:023f315c       ?back@@3PAUIDirectDrawSurface@@A 0288615c     display.obj
 0003:023f3160       ?zbuffer@@3PAUIDirectDrawSurface@@A 02886160     display.obj
 0003:023f3164       ?front@@3PAUIDirectDrawSurface@@A 02886164     display.obj
 0003:023f3170       ?dirintensity@@3HA         02886170     dls.obj
 0003:023f3174       ?dirnormal@@3HA            02886174     dls.obj
 0003:023f3178       ?buf@@3PADA                02886178     editor.obj
 0003:023f3578       ?ExileRCPath@@3PADA        02886578     editor.obj
 0003:023f3680       ?ClassDefPath@@3PADA       02886680     editor.obj
 0003:023f3788       ?ToolBar@@3VTEditToolsPane@@A 02886788     editor.obj
 0003:023f390c       ?EditorData@@3PAVTMulti@@A 0288690c     editor.obj
 0003:023f3910       ?Console@@3VTConsolePane@@A 02886910     editor.obj
 0003:023f39b0       ?ResourcePath@@3PADA       028869b0     editor.obj
 0003:023f3ab4       ?startx@@3HA               02886ab4     editor.obj
 0003:023f3ab8       ?starty@@3HA               02886ab8     editor.obj
 0003:023f3ac0       ?ScriptEditor@@3VTScriptPane@@A 02886ac0     editor.obj
 0003:023f3b38       ?cmdline@TConsolePane@@0PADA 02886b38     editor.obj
 0003:023f3b40       ?ScrollEditor@@3VTScrollEditorPane@@A 02886b40     editor.obj
 0003:023f3bb8       ?startpos@@3US3DPoint@@A   02886bb8     editor.obj
 0003:023f3bc8       ?StatusBar@@3VTEditStatusPane@@A 02886bc8     editor.obj
 0003:023f4d20       ?MapLocations@@3PAU__unnamed@@A 02887d20     editor.obj
 0003:023f5320       ?ClassPane@@3VTEditClassPane@@A 02888320     editor.obj
 0003:023f5488       ?cmdevents@TConsolePane@@0PAPAXA 02888488     editor.obj
 0003:023f5490       ?cmdchar@TConsolePane@@0HA 02888490     editor.obj
 0003:023f5494       ?TerrainTemplates@@3PAVTTerrainTemplate@@A 02888494     editor.obj
 0003:023f54a0       ?numlocations@@3HA         028884a0     editor.obj
 0003:023f54b0       ?TSymGlowAnimatorBuilderInstance@@3VTSymGlowAnimatorBuilder@@A 028884b0     effect.obj
 0003:023f54b8       ?TFireBallEffectBuilderInstance@@3VTFireBallEffectBuilder@@A 028884b8     effect.obj
 0003:023f54c0       ?TIceEffectBuilderInstance@@3VTIceEffectBuilder@@A 028884c0     effect.obj
 0003:023f54c8       ?EffectClass@@3VTObjectClass@@A 028884c8     effect.obj
 0003:02ccb8e8       ?TPhotonAnimatorBuilderInstance@@3VTPhotonAnimatorBuilder@@A 0315e8e8     effect.obj
 0003:02ccb8f0       ?TFlameAnimatorBuilderInstance@@3VTFlameAnimatorBuilder@@A 0315e8f0     effect.obj
 0003:02ccb8f8       ?TRedFountainAnimatorBuilderInstance@@3VTRedFountainAnimatorBuilder@@A 0315e8f8     effect.obj
 0003:02ccb900       ?SaveZEnable@@3KA          0315e900     effect.obj
 0003:02ccb908       ?TEffectBuilderInstance@@3VTEffectBuilder@@A 0315e908     effect.obj
 0003:02ccb910       ?TFireEffectBuilderInstance@@3VTFireEffectBuilder@@A 0315e910     effect.obj
 0003:02ccb918       ?THealAnimatorBuilderInstance@@3VTHealAnimatorBuilder@@A 0315e918     effect.obj
 0003:02ccb920       ?SaveZWriteEnable@@3KA     0315e920     effect.obj
 0003:02ccb928       ?THealEffectBuilderInstance@@3VTHealEffectBuilder@@A 0315e928     effect.obj
 0003:02ccb930       ?TLightning2EffectBuilderInstance@@3VTLightning2EffectBuilder@@A 0315e930     effect.obj
 0003:02ccb938       ?TFireBallAnimatorBuilderInstance@@3VTFireBallAnimatorBuilder@@A 0315e938     effect.obj
 0003:02ccb940       ?TTest3DAnimatorBuilderInstance@@3VTTest3DAnimatorBuilder@@A 0315e940     effect.obj
 0003:02ccb948       ?TIceAnimatorBuilderInstance@@3VTIceAnimatorBuilder@@A 0315e948     effect.obj
 0003:02ccb950       ?TRibbonAnimatorBuilderInstance@@3VTRibbonAnimatorBuilder@@A 0315e950     effect.obj
 0003:02ccb958       ?TCyanFountainAnimatorBuilderInstance@@3VTCyanFountainAnimatorBuilder@@A 0315e958     effect.obj
 0003:02ccb960       ?SaveBlendMode@@3KA        0315e960     effect.obj
 0003:02ccb968       ?TGreenFountainAnimatorBuilderInstance@@3VTGreenFountainAnimatorBuilder@@A 0315e968     effect.obj
 0003:02ccb970       ?TShieldAnimatorBuilderInstance@@3VTShieldAnimatorBuilder@@A 0315e970     effect.obj
 0003:02ccb978       ?TFireAnimatorBuilderInstance@@3VTFireAnimatorBuilder@@A 0315e978     effect.obj
 0003:02ccb980       ?TLightningEffectBuilderInstance@@3VTLightningEffectBuilder@@A 0315e980     effect.obj
 0003:02ccb988       ?TLightningAnimatorBuilderInstance@@3VTLightningAnimatorBuilder@@A 0315e988     effect.obj
 0003:02ccb990       ?TBlueFountainAnimatorBuilderInstance@@3VTBlueFountainAnimatorBuilder@@A 0315e990     effect.obj
 0003:02ccb998       ?TFlareAnimatorBuilderInstance@@3VTFlareAnimatorBuilder@@A 0315e998     effect.obj
 0003:02ccb9a0       ?TPhotonEffectBuilderInstance@@3VTPhotonEffectBuilder@@A 0315e9a0     effect.obj
 0003:02ccb9a8       ?exitlist@@3PAUSExitRef@@A 0315e9a8     exit.obj
 0003:02ccb9b0       ?TElevGlowAnimatorBuilderInstance@@3VTElevGlowAnimatorBuilder@@A 0315e9b0     exit.obj
 0003:02ccb9b8       ?TElevatorBuilderInstance@@3VTElevatorBuilder@@A 0315e9b8     exit.obj
 0003:02ccb9c0       ?TPressPlateBuilderInstance@@3VTPressPlateBuilder@@A 0315e9c0     exit.obj
 0003:02ccb9c8       ?TRotateWallBuilderInstance@@3VTRotateWallBuilder@@A 0315e9c8     exit.obj
 0003:02ccb9d0       ?ExitClass@@3VTObjectClass@@A 0315e9d0     exit.obj
 0003:035a1df0       ?TUpBlockBuilderInstance@@3VTUpBlockBuilder@@A 03a34df0     exit.obj
 0003:035a1df8       ?OldElevScrollLock@@3HA    03a34df8     exit.obj
 0003:035a1dfc       ?OldRotateScrollLock@@3HA  03a34dfc     exit.obj
 0003:035a1e00       ?TExitBuilderInstance@@3VTExitBuilder@@A 03a34e00     exit.obj
 0003:035a1e08       ?exitlistdirty@@3HA        03a34e08     exit.obj
 0003:035a1e10       _g_pfnMonitorFromRect      03a34e10     exlmain.obj
 0003:035a1e14       ?Scene3D@@3VT3DScene@@A    03a34e14     exlmain.obj
 0003:035a1e18       ?display@@3VTDisplay@@A    03a34e18     exlmain.obj
 0003:035a1e78       ?SaveGame@@3VTSaveGame@@A  03a34e78     exlmain.obj
 0003:035a1ea0       ?HealthBar@@3VTHealthBar@@A 03a34ea0     exlmain.obj
 0003:035a1ef0       ?JoyInfo@@3Ujoyinfo_tag@@A 03a34ef0     exlmain.obj
 0003:035a1f00       ?GameData@@3PAVTMulti@@A   03a34f00     exlmain.obj
 0003:035a1f04       _g_pfnGetMonitorInfo       03a34f04     exlmain.obj
 0003:035a1f08       ?StatPane@@3VTStatPane@@A  03a34f08     exlmain.obj
 0003:035a2094       _g_pfnMonitorFromWindow    03a35094     exlmain.obj
 0003:035a2098       ?AutoMap@@3VTAutoMap@@A    03a35098     exlmain.obj
 0003:035a2150       ?CriticalSection@@3U_RTL_CRITICAL_SECTION@@A 03a35150     exlmain.obj
 0003:035a2168       ?EquipPane@@3VTEquipPane@@A 03a35168     exlmain.obj
 0003:035a22c0       ?MainWindow@@3VTMainWindow@@A 03a352c0     exlmain.obj
 0003:035a22c8       ?LogoScreen@@3VTLogoScreen@@A 03a352c8     exlmain.obj
 0003:035a2388       ?ShiftDown@@3HA            03a35388     exlmain.obj
 0003:035a238c       _g_pfnGetSystemMetrics     03a3538c     exlmain.obj
 0003:035a2390       ?TotalAllocated@@3HA       03a35390     exlmain.obj
 0003:035a2394       ?SystemFont@@3PAVTFont@@A  03a35394     exlmain.obj
 0003:035a2398       ?StaminaBar@@3VTStaminaBar@@A 03a35398     exlmain.obj
 0003:035a23e4       ?PauseMutex@@3PAXA         03a353e4     exlmain.obj
 0003:035a23e8       _g_pfnMonitorFromPoint     03a353e8     exlmain.obj
 0003:035a23f0       ?MonitorInfo@@3UtagMONITORINFOEX@@A 03a353f0     exlmain.obj
 0003:035a2438       ?Timer@@3VTTimer@@A        03a35438     exlmain.obj
 0003:035a2440       ?TextBar@@3VTTextBar@@A    03a35440     exlmain.obj
 0003:035a2530       ?QuickSpells@@3VTQuickSpellPane@@A 03a35530     exlmain.obj
 0003:035a2674       ?AltDown@@3HA              03a35674     exlmain.obj
 0003:035a2678       ?Locke@@3PAVTPlayer@@A     03a35678     exlmain.obj
 0003:035a2680       ?CtrlDown@@3HA             03a35680     exlmain.obj
 0003:035a2688       ?PlayScreen@@3VTPlayScreen@@A 03a35688     exlmain.obj
 0003:035a2c88       ?SavePath@@3PADA           03a35c88     exlmain.obj
 0003:035a2cf0       ?MultiCtrl@@3VTMultiCtrlPane@@A 03a35cf0     exlmain.obj
 0003:035a2e40       ?Inventory@@3VTInventory@@A 03a35e40     exlmain.obj
 0003:035a2e98       ?ScriptManager@@3VTScriptManager@@A 03a35e98     exlmain.obj
 0003:035aaea8       ?SpellPane@@3VTSpellPane@@A 03a3dea8     exlmain.obj
 0003:035aaffc       _g_pfnEnumDisplayMonitors  03a3dffc     exlmain.obj
 0003:035ab000       ?NextScreen@@3PAVTScreen@@A 03a3e000     exlmain.obj
 0003:035ab008       ?RunPath@@3PADA            03a3e008     exlmain.obj
 0003:035ab070       ?MapPane@@3VTMapPane@@A    03a3e070     exlmain.obj
 0003:035ab6e0       ?StartMemory@@3U_MEMORYSTATUS@@A 03a3e6e0     exlmain.obj
 0003:035ab700       ?ChunkCache@@3VTChunkCache@@A 03a3e700     exlmain.obj
 0003:035ab730       ?SoundPlayer@@3VTSoundPlayer@@A 03a3e730     exlmain.obj
 0003:035ab73c       ?hInstance@@3PAXA          03a3e73c     exlmain.obj
 0003:035ab740       ?MaxAllocated@@3HA         03a3e740     exlmain.obj
 0003:035ab744       ?LastFrameTicks@@3HA       03a3e744     exlmain.obj
 0003:035ab748       ?CurrentScreen@@3PAVTScreen@@A 03a3e748     exlmain.obj
 0003:035ab74c       ?NoFrameSkip@@3HA          03a3e74c     exlmain.obj
 0003:035ab750       ?ShowDrawing@@3HA          03a3e750     exlmain.obj
 0003:035ab754       ?PauseWhenNotActive@@3HA   03a3e754     exlmain.obj
 0003:035ab758       ?MonitorNum@@3HA           03a3e758     exlmain.obj
 0003:035ab75c       ?MonitorX@@3HA             03a3e75c     exlmain.obj
 0003:035ab760       ?MonitorY@@3HA             03a3e760     exlmain.obj
 0003:035ab764       ?Monitor@@3PAXA            03a3e764     exlmain.obj
 0003:035ab768       ?Windowed@@3HA             03a3e768     exlmain.obj
 0003:035ab76c       ?Borderless@@3HA           03a3e76c     exlmain.obj
 0003:035ab770       ?Debug@@3HA                03a3e770     exlmain.obj
 0003:035ab774       ?Ignore3D@@3HA             03a3e774     exlmain.obj
 0003:035ab778       ?Editor@@3HA               03a3e778     exlmain.obj
 0003:035ab77c       ?StartInEditor@@3HA        03a3e77c     exlmain.obj
 0003:035ab780       ?Force15Bit@@3HA           03a3e780     exlmain.obj
 0003:035ab784       ?Force16Bit@@3HA           03a3e784     exlmain.obj
 0003:035ab788       ?ShowZBuffer@@3HA          03a3e788     exlmain.obj
 0003:035ab78c       ?ShowNormalBuffer@@3HA     03a3e78c     exlmain.obj
 0003:035ab790       ?FullScreen@@3HA           03a3e790     exlmain.obj
 0003:035ab794       ?TickOccured@@3HA          03a3e794     exlmain.obj
 0003:035ab798       ?DisableTimer@@3HA         03a3e798     exlmain.obj
 0003:035ab79c       ?ShowFramesPerSecond@@3HA  03a3e79c     exlmain.obj
 0003:035ab7a0       ?GridSnap@@3HA             03a3e7a0     exlmain.obj
 0003:035ab7a4       ?Closing@@3HA              03a3e7a4     exlmain.obj
 0003:035ab7a8       ?UpdatingBoundingRect@@3HA 03a3e7a8     exlmain.obj
 0003:035ab7ac       ?HasJoyStick@@3HA          03a3e7ac     exlmain.obj
 0003:035ab7b0       ?ImageryMemUsage@@3KA      03a3e7b0     exlmain.obj
 0003:035ab7b4       ?ThreadsPaused@@3HA        03a3e7b4     exlmain.obj
 0003:035ab7b8       ?FoodClass@@3VTObjectClass@@A 03a3e7b8     food.obj
 0003:03e81bd8       ?TFoodBuilderInstance@@3VTFoodBuilder@@A 04314bd8     food.obj
 0003:03e81be0       ?THelperBuilderInstance@@3VTHelperBuilder@@A 04314be0     helper.obj
 0003:03e81be8       ?HelperClass@@3VTObjectClass@@A 04314be8     helper.obj
 0003:04758008       ?THelperAnimatorBuilderInstance@@3VTHelperAnimatorBuilder@@A 04beb008     helper.obj
 0003:04794020       ?builders@TImageryBuilder@@0PAPAV1@A 04c27020     imagery.obj
 0003:047940ec       ?numimagerytypes@TImageryBuilder@@0HA 04c270ec     imagery.obj
 0003:047940f0       ?KeyClass@@3VTObjectClass@@A 04c270f0     key.obj
 0003:0506a510       ?TKeyBuilderInstance@@3VTKeyBuilder@@A 054fd510     key.obj
 0003:0506a518       ?TLightSourceBuilderInstance@@3VTLightSourceBuilder@@A 054fd518     lightsource.obj
 0003:0506a520       ?LightSourceClass@@3VTObjectClass@@A 054fd520     lightsource.obj
 0003:05941144       ?x@@3HA                    05dd4144     logoscreen.obj
 0003:05941148       ?y@@3HA                    05dd4148     logoscreen.obj
 0003:05941468       ?AppActive@@3HA            05dd4468     Mainwnd.obj
 0003:05945a44       ?TimeSinceInput@@3HA       05dd8a44     Mappane.obj
 0003:05945a48       ?keys@@3PAHA               05dd8a48     Mappane.obj
 0003:05945a90       ?groundusecount@@3PAY0EA@HA 05dd8a90     money.obj
 0003:05945b90       ?invusecount@@3PAY0EA@HA   05dd8b90     money.obj
 0003:05945c90       ?TMoneyBuilderInstance@@3VTMoneyBuilder@@A 05dd8c90     money.obj
 0003:05945c98       ?invitem@@3PAY0EA@PAVTBitmap@@A 05dd8c98     money.obj
 0003:05945d98       ?MoneyClass@@3VTObjectClass@@A 05dd8d98     money.obj
 0003:0621c1b8       ?grounditem@@3PAY0EA@PAVTBitmap@@A 066af1b8     money.obj
 0003:0621c2b8       ?TMultiAnimImageryBuilderInstance@@3VTMultiAnimImageryBuilder@@A 066af2b8     multianimimage.obj
 0003:0621c2c0       ?TMultiImageryBuilderInstance@@3VTMultiImageryBuilder@@A 066af2c0     multiimage.obj
 0003:0621c2c8       ?classesdirty@@3HA         066af2c8     object.obj
 0003:0621c2cc       ?UniqueTypeID@@3GA         066af2cc     object.obj
 0003:0621c2d0       ?builders@TObjectBuilder@@0PAPAV1@A 066af2d0     object.obj
 0003:0621c6d0       ?classes@TObjectClass@@0PAPAV1@A 066af6d0     object.obj
 0003:0621c7d0       ?numclasses@TObjectClass@@0HA 066af7d0     object.obj
 0003:0621c7d4       ?numobjtypes@TObjectBuilder@@0HA 066af7d4     object.obj
 0003:0621c7d8       ?idents@@3VTIdent@@A       066af7d8     parse.obj
 0003:0621c7e0       ?PlayerClass@@3VTObjectClass@@A 066af7e0     player.obj
 0003:06af2c00       ?TPlayerBuilderInstance@@3VTPlayerBuilder@@A 06f85c00     player.obj
 0003:06af2c10       ?overhang@@3PAPAVTBitmap@@A 06f85c10     playscreen.obj
 0003:06af2c54       ?HandCursor@@3PAVTBitmap@@A 06f85c54     playscreen.obj
 0003:06af2c58       ?bitmap@@3PAVTBitmap@@A    06f85c58     playscreen.obj
 0003:06af2c5c       ?PointerCursor@@3PAVTBitmap@@A 06f85c5c     playscreen.obj
 0003:06af2c60       ?DynamicIntensity@@3HA     06f85c60     playscreen.obj
 0003:06af2c68       ?TRangedWeaponBuilderInstance@@3VTRangedWeaponBuilder@@A 06f85c68     rangedweapon.obj
 0003:06af2c70       ?RangedWeaponClass@@3VTObjectClass@@A 06f85c70     rangedweapon.obj
 0003:073c9248       ?ImageryBox@@3VCBox@@A     0785c248     resource.obj
 0003:073c92e8       ?cursorx@@3HA              0785c2e8     screen.obj
 0003:073c92ec       ?cursory@@3HA              0785c2ec     screen.obj
 0003:073c92f0       ?mousebutton@@3HA          0785c2f0     screen.obj
 0003:073c9334       ?TakenObject@@3PAVTObjectInstance@@A 0785c334     script.obj
 0003:073c9338       ?DroppedObject@@3PAVTObjectInstance@@A 0785c338     script.obj
 0003:073c9340       ?ScrollClass@@3VTObjectClass@@A 0785c340     scroll.obj
 0003:07c9f760       ?TScrollBuilderInstance@@3VTScrollBuilder@@A 08132760     scroll.obj
 0003:07c9f768       ?BookPane@@3VTBookPane@@A  08132768     scroll.obj
 0003:07c9f8c0       ?ScrollPane@@3VTScrollPane@@A 081328c0     scroll.obj
 0003:07c9fa18       ?TShadowBuilderInstance@@3VTShadowBuilder@@A 08132a18     shadow.obj
 0003:07c9fa20       ?ShadowClass@@3VTObjectClass@@A 08132a20     shadow.obj
 0003:08575ea8       ?TTalismanBuilderInstance@@3VTTalismanBuilder@@A 08a08ea8     talisman.obj
 0003:08575eb0       ?TalismanClass@@3VTObjectClass@@A 08a08eb0     talisman.obj
 0003:08e4c2d0       ?TileClass@@3VTObjectClass@@A 092df2d0     tile.obj
 0003:097226f0       ?TTileBuilderInstance@@3VTTileBuilder@@A 09bb56f0     tile.obj
 0003:097226f8       ?clockticks@TTimer@@0KA    09bb56f8     timer.obj
 0003:097226fc       ?tickevent@@3PAXA          09bb56fc     timer.obj
 0003:09722700       ?ToolClass@@3VTObjectClass@@A 09bb5700     tool.obj
 0003:09ff8b20       ?TToolBuilderInstance@@3VTToolBuilder@@A 0a48bb20     tool.obj
 0003:09ff8b28       ?TWeaponBuilderInstance@@3VTWeaponBuilder@@A 0a48bb28     weapon.obj
 0003:09ff8b30       ?WeaponClass@@3VTObjectClass@@A 0a48bb30     weapon.obj
 0003:0a8cef50       ?TWebBuilderInstance@@3VTWebBuilder@@A 0ad61f50     web.obj
 0003:0a8cef58       ?WebClass@@3VTObjectClass@@A 0ad61f58     web.obj
 0003:0b1a5378       ?OUTFILE@@3PAU_iobuf@@A    0b638378     zcomp.obj
 0003:0b1a537c       ?gDsize@@3IA               0b63837c     zcomp.obj
 0003:0b1a5380       ?compSize@@3JA             0b638380     zcomp.obj
 0003:0b1a5384       ?WorkBuf@@3PADA            0b638384     zcomp.obj
 0003:0b1a5388       ?cmpError@@3HA             0b638388     zcomp.obj
 0003:0b1a538c       ?gType@@3IA                0b63838c     zcomp.obj
 0003:0b1a5390       ?INFILE@@3PAU_iobuf@@A     0b638390     zcomp.obj
 0003:0b1a5394       ?OUTBUF@@3PADA             0b638394     zcomp.obj
 0003:0b1a5398       ?INBUF@@3PADA              0b638398     zcomp.obj
 0003:0b1a539c       ?INPOS@@3JA                0b63839c     zcomp.obj
 0003:0b1a53a0       ?OUTPOS@@3JA               0b6383a0     zcomp.obj
 0003:0b1a53a4       __dowildcard               0b6383a4     msvcrt:wildcard.obj
 0003:0b1a53a8       __newmode                  0b6383a8     msvcrt:_newmode.obj
 0003:0b1a53ac       __commode                  0b6383ac     msvcrt:xncommod.obj
 0003:0b1a53b0       __fmode                    0b6383b0     msvcrt:xtxtmode.obj
 0003:0b1a53b4       __adjust_fdiv              0b6383b4     <common>
 0003:0b1a53b8       ___onexitend               0b6383b8     <common>
 0003:0b1a53bc       ___onexitbegin             0b6383bc     <common>
 0004:00000000       __IMPORT_DESCRIPTOR_MSVCRT 0b639000     msvcrt:MSVCRT.dll
 0004:00000014       __IMPORT_DESCRIPTOR_WINMM  0b639014     winmm:WINMM.dll
 0004:00000028       __IMPORT_DESCRIPTOR_DDRAW  0b639028     ddraw:DDRAW.dll
 0004:0000003c       __IMPORT_DESCRIPTOR_DSOUND 0b63903c     dsound:DSOUND.dll
 0004:00000050       __IMPORT_DESCRIPTOR_KERNEL32 0b639050     kernel32:KERNEL32.dll
 0004:00000064       __IMPORT_DESCRIPTOR_USER32 0b639064     user32:USER32.dll
 0004:00000078       __IMPORT_DESCRIPTOR_GDI32  0b639078     gdi32:GDI32.dll
 0004:0000008c       __IMPORT_DESCRIPTOR_DINPUT 0b63908c     dinput:DINPUT.dll
 0004:000000a0       __NULL_IMPORT_DESCRIPTOR   0b6390a0     msvcrt:MSVCRT.dll
 0004:00000360       __imp__DirectDrawEnumerateA@8 0b639360     ddraw:DDRAW.dll
 0004:00000364       __imp__DirectDrawCreate@12 0b639364     ddraw:DDRAW.dll
 0004:00000368       \177DDRAW_NULL_THUNK_DATA  0b639368     ddraw:DDRAW.dll
 0004:0000036c       __imp__DirectInputCreateA@16 0b63936c     dinput:DINPUT.dll
 0004:00000370       \177DINPUT_NULL_THUNK_DATA 0b639370     dinput:DINPUT.dll
 0004:00000374       __imp__DirectSoundCreate@12 0b639374     dsound:DSOUND.dll
 0004:00000378       \177DSOUND_NULL_THUNK_DATA 0b639378     dsound:DSOUND.dll
 0004:0000037c       __imp__GetClipBox@8        0b63937c     gdi32:GDI32.dll
 0004:00000380       \177GDI32_NULL_THUNK_DATA  0b639380     gdi32:GDI32.dll
 0004:00000384       __imp__GetSystemTime@4     0b639384     kernel32:KERNEL32.dll
 0004:00000388       __imp__LeaveCriticalSection@4 0b639388     kernel32:KERNEL32.dll
 0004:0000038c       __imp__EnterCriticalSection@4 0b63938c     kernel32:KERNEL32.dll
 0004:00000390       __imp__CreateMutexA@12     0b639390     kernel32:KERNEL32.dll
 0004:00000394       __imp__GetModuleFileNameA@12 0b639394     kernel32:KERNEL32.dll
 0004:00000398       __imp__lstrcpyA@8          0b639398     kernel32:KERNEL32.dll
 0004:0000039c       __imp__InitializeCriticalSection@4 0b63939c     kernel32:KERNEL32.dll
 0004:000003a0       __imp__GetModuleHandleA@4  0b6393a0     kernel32:KERNEL32.dll
 0004:000003a4       __imp__GetProcAddress@8    0b6393a4     kernel32:KERNEL32.dll
 0004:000003a8       __imp__CreateProcessA@40   0b6393a8     kernel32:KERNEL32.dll
 0004:000003ac       __imp__GlobalMemoryStatus@4 0b6393ac     kernel32:KERNEL32.dll
 0004:000003b0       __imp__ResetEvent@4        0b6393b0     kernel32:KERNEL32.dll
 0004:000003b4       __imp__WaitForMultipleObjects@16 0b6393b4     kernel32:KERNEL32.dll
 0004:000003b8       __imp__SetEvent@4          0b6393b8     kernel32:KERNEL32.dll
 0004:000003bc       __imp__WaitForSingleObject@8 0b6393bc     kernel32:KERNEL32.dll
 0004:000003c0       __imp__CloseHandle@4       0b6393c0     kernel32:KERNEL32.dll
 0004:000003c4       __imp__CreateEventA@16     0b6393c4     kernel32:KERNEL32.dll
 0004:000003c8       __imp__CreateThread@24     0b6393c8     kernel32:KERNEL32.dll
 0004:000003cc       __imp__SetThreadPriority@8 0b6393cc     kernel32:KERNEL32.dll
 0004:000003d0       __imp__Sleep@4             0b6393d0     kernel32:KERNEL32.dll
 0004:000003d4       __imp__VirtualUnlock@8     0b6393d4     kernel32:KERNEL32.dll
 0004:000003d8       __imp__GetVersion@0        0b6393d8     kernel32:KERNEL32.dll
 0004:000003dc       __imp__SetErrorMode@4      0b6393dc     kernel32:KERNEL32.dll
 0004:000003e0       __imp__GetTickCount@0      0b6393e0     kernel32:KERNEL32.dll
 0004:000003e4       __imp__PulseEvent@4        0b6393e4     kernel32:KERNEL32.dll
 0004:000003e8       __imp__ReleaseMutex@4      0b6393e8     kernel32:KERNEL32.dll
 0004:000003ec       __imp__GetCurrentThread@0  0b6393ec     kernel32:KERNEL32.dll
 0004:000003f0       __imp__GlobalSize@4        0b6393f0     kernel32:KERNEL32.dll
 0004:000003f4       __imp__GlobalHandle@4      0b6393f4     kernel32:KERNEL32.dll
 0004:000003f8       __imp__GetStartupInfoA@4   0b6393f8     kernel32:KERNEL32.dll
 0004:000003fc       __imp__VirtualLock@8       0b6393fc     kernel32:KERNEL32.dll
 0004:00000400       __imp__SystemTimeToFileTime@8 0b639400     kernel32:KERNEL32.dll
 0004:00000404       \177KERNEL32_NULL_THUNK_DATA 0b639404     kernel32:KERNEL32.dll
 0004:00000408       __imp__isdigit             0b639408     msvcrt:MSVCRT.dll
 0004:0000040c       __imp__rename              0b63940c     msvcrt:MSVCRT.dll
 0004:00000410       __imp__strncpy             0b639410     msvcrt:MSVCRT.dll
 0004:00000414       __imp___beginthread        0b639414     msvcrt:MSVCRT.dll
 0004:00000418       __imp__isalnum             0b639418     msvcrt:MSVCRT.dll
 0004:0000041c       __imp__atof                0b63941c     msvcrt:MSVCRT.dll
 0004:00000420       __imp__tolower             0b639420     msvcrt:MSVCRT.dll
 0004:00000424       __imp___set_sbh_threshold  0b639424     msvcrt:MSVCRT.dll
 0004:00000428       __imp___errno              0b639428     msvcrt:MSVCRT.dll
 0004:0000042c       __imp__fputc               0b63942c     msvcrt:MSVCRT.dll
 0004:00000430       __imp__rewind              0b639430     msvcrt:MSVCRT.dll
 0004:00000434       __imp___filelength         0b639434     msvcrt:MSVCRT.dll
 0004:00000438       __imp__isspace             0b639438     msvcrt:MSVCRT.dll
 0004:0000043c       __imp__srand               0b63943c     msvcrt:MSVCRT.dll
 0004:00000440       __imp__time                0b639440     msvcrt:MSVCRT.dll
 0004:00000444       __imp____dllonexit         0b639444     msvcrt:MSVCRT.dll
 0004:00000448       __imp__isalpha             0b639448     msvcrt:MSVCRT.dll
 0004:0000044c       __imp___chdir              0b63944c     msvcrt:MSVCRT.dll
 0004:00000450       __imp__atoi                0b639450     msvcrt:MSVCRT.dll
 0004:00000454       __imp__fprintf             0b639454     msvcrt:MSVCRT.dll
 0004:00000458       __imp____getmainargs       0b639458     msvcrt:MSVCRT.dll
 0004:0000045c       __imp___initterm           0b63945c     msvcrt:MSVCRT.dll
 0004:00000460       __imp____setusermatherr    0b639460     msvcrt:MSVCRT.dll
 0004:00000464       __imp___adjust_fdiv        0b639464     msvcrt:MSVCRT.dll
 0004:00000468       __imp____p__commode        0b639468     msvcrt:MSVCRT.dll
 0004:0000046c       __imp____p__fmode          0b63946c     msvcrt:MSVCRT.dll
 0004:00000470       __imp____set_app_type      0b639470     msvcrt:MSVCRT.dll
 0004:00000474       __imp___except_handler3    0b639474     msvcrt:MSVCRT.dll
 0004:00000478       __imp___controlfp          0b639478     msvcrt:MSVCRT.dll
 0004:0000047c       __imp__strstr              0b63947c     msvcrt:MSVCRT.dll
 0004:00000480       __imp__rand                0b639480     msvcrt:MSVCRT.dll
 0004:00000484       __imp__free                0b639484     msvcrt:MSVCRT.dll
 0004:00000488       __imp___msize              0b639488     msvcrt:MSVCRT.dll
 0004:0000048c       __imp__realloc             0b63948c     msvcrt:MSVCRT.dll
 0004:00000490       __imp__malloc              0b639490     msvcrt:MSVCRT.dll
 0004:00000494       __imp__exit                0b639494     msvcrt:MSVCRT.dll
 0004:00000498       __imp__atol                0b639498     msvcrt:MSVCRT.dll
 0004:0000049c       __imp__fputs               0b63949c     msvcrt:MSVCRT.dll
 0004:000004a0       __imp___onexit             0b6394a0     msvcrt:MSVCRT.dll
 0004:000004a4       __imp__sqrt                0b6394a4     msvcrt:MSVCRT.dll
 0004:000004a8       __imp___strdup             0b6394a8     msvcrt:MSVCRT.dll
 0004:000004ac       __imp___ftol               0b6394ac     msvcrt:MSVCRT.dll
 0004:000004b0       __imp____CxxFrameHandler   0b6394b0     msvcrt:MSVCRT.dll
 0004:000004b4       __imp__fread               0b6394b4     msvcrt:MSVCRT.dll
 0004:000004b8       __imp___exit               0b6394b8     msvcrt:MSVCRT.dll
 0004:000004bc       __imp__memcmp              0b6394bc     msvcrt:MSVCRT.dll
 0004:000004c0       __imp__toupper             0b6394c0     msvcrt:MSVCRT.dll
 0004:000004c4       __imp__fclose              0b6394c4     msvcrt:MSVCRT.dll
 0004:000004c8       __imp__remove              0b6394c8     msvcrt:MSVCRT.dll
 0004:000004cc       __imp__strncmp             0b6394cc     msvcrt:MSVCRT.dll
 0004:000004d0       __imp__ftell               0b6394d0     msvcrt:MSVCRT.dll
 0004:000004d4       __imp__getc                0b6394d4     msvcrt:MSVCRT.dll
 0004:000004d8       __imp___purecall           0b6394d8     msvcrt:MSVCRT.dll
 0004:000004dc       __imp__strchr              0b6394dc     msvcrt:MSVCRT.dll
 0004:000004e0       __imp__fseek               0b6394e0     msvcrt:MSVCRT.dll
 0004:000004e4       __imp__strcmp              0b6394e4     msvcrt:MSVCRT.dll
 0004:000004e8       __imp__strcat              0b6394e8     msvcrt:MSVCRT.dll
 0004:000004ec       __imp__sin                 0b6394ec     msvcrt:MSVCRT.dll
 0004:000004f0       __imp__atan2               0b6394f0     msvcrt:MSVCRT.dll
 0004:000004f4       __imp__cos                 0b6394f4     msvcrt:MSVCRT.dll
 0004:000004f8       __imp__sprintf             0b6394f8     msvcrt:MSVCRT.dll
 0004:000004fc       __imp__strlen              0b6394fc     msvcrt:MSVCRT.dll
 0004:00000500       __imp__memmove             0b639500     msvcrt:MSVCRT.dll
 0004:00000504       __imp__strcpy              0b639504     msvcrt:MSVCRT.dll
 0004:00000508       __imp___acmdln             0b639508     msvcrt:MSVCRT.dll
 0004:0000050c       __imp___XcptFilter         0b63950c     msvcrt:MSVCRT.dll
 0004:00000510       __imp__fopen               0b639510     msvcrt:MSVCRT.dll
 0004:00000514       __imp___close              0b639514     msvcrt:MSVCRT.dll
 0004:00000518       __imp___fileno             0b639518     msvcrt:MSVCRT.dll
 0004:0000051c       __imp___access             0b63951c     msvcrt:MSVCRT.dll
 0004:00000520       __imp___unlink             0b639520     msvcrt:MSVCRT.dll
 0004:00000524       __imp___mkdir              0b639524     msvcrt:MSVCRT.dll
 0004:00000528       __imp___strnicmp           0b639528     msvcrt:MSVCRT.dll
 0004:0000052c       __imp___itoa               0b63952c     msvcrt:MSVCRT.dll
 0004:00000530       __imp___strcmpi            0b639530     msvcrt:MSVCRT.dll
 0004:00000534       __imp___strupr             0b639534     msvcrt:MSVCRT.dll
 0004:00000538       __imp___chsize             0b639538     msvcrt:MSVCRT.dll
 0004:0000053c       __imp___lseek              0b63953c     msvcrt:MSVCRT.dll
 0004:00000540       __imp___stricmp            0b639540     msvcrt:MSVCRT.dll
 0004:00000544       __imp__memcpy              0b639544     msvcrt:MSVCRT.dll
 0004:00000548       __imp__memset              0b639548     msvcrt:MSVCRT.dll
 0004:0000054c       __imp__calloc              0b63954c     msvcrt:MSVCRT.dll
 0004:00000550       __imp__fwrite              0b639550     msvcrt:MSVCRT.dll
 0004:00000554       __imp___open               0b639554     msvcrt:MSVCRT.dll
 0004:00000558       __imp___write              0b639558     msvcrt:MSVCRT.dll
 0004:0000055c       __imp___read               0b63955c     msvcrt:MSVCRT.dll
 0004:00000560       \177MSVCRT_NULL_THUNK_DATA 0b639560     msvcrt:MSVCRT.dll
 0004:00000564       __imp__ReleaseCapture@0    0b639564     user32:USER32.dll
 0004:00000568       __imp__SystemParametersInfoA@16 0b639568     user32:USER32.dll
 0004:0000056c       __imp__MessageBoxA@16      0b63956c     user32:USER32.dll
 0004:00000570       __imp__PeekMessageA@20     0b639570     user32:USER32.dll
 0004:00000574       __imp__TranslateMessage@4  0b639574     user32:USER32.dll
 0004:00000578       __imp__GetWindowRect@8     0b639578     user32:USER32.dll
 0004:0000057c       __imp__ShowWindow@8        0b63957c     user32:USER32.dll
 0004:00000580       __imp__WindowFromDC@4      0b639580     user32:USER32.dll
 0004:00000584       __imp__ValidateRect@8      0b639584     user32:USER32.dll
 0004:00000588       __imp__GetSystemMetrics@4  0b639588     user32:USER32.dll
 0004:0000058c       __imp__DispatchMessageA@4  0b63958c     user32:USER32.dll
 0004:00000590       __imp__PostQuitMessage@4   0b639590     user32:USER32.dll
 0004:00000594       __imp__CreateWindowExA@48  0b639594     user32:USER32.dll
 0004:00000598       __imp__LoadMenuA@8         0b639598     user32:USER32.dll
 0004:0000059c       __imp__AdjustWindowRectEx@16 0b63959c     user32:USER32.dll
 0004:000005a0       __imp__RegisterClassA@4    0b6395a0     user32:USER32.dll
 0004:000005a4       __imp__LoadCursorA@8       0b6395a4     user32:USER32.dll
 0004:000005a8       __imp__LoadIconA@8         0b6395a8     user32:USER32.dll
 0004:000005ac       __imp__DefWindowProcA@16   0b6395ac     user32:USER32.dll
 0004:000005b0       __imp__wsprintfA           0b6395b0     user32:USER32.dll
 0004:000005b4       __imp__GetCursorPos@4      0b6395b4     user32:USER32.dll
 0004:000005b8       __imp__GetMessageA@16      0b6395b8     user32:USER32.dll
 0004:000005bc       __imp__GetClientRect@8     0b6395bc     user32:USER32.dll
 0004:000005c0       __imp__ClientToScreen@8    0b6395c0     user32:USER32.dll
 0004:000005c4       __imp__SetCursorPos@8      0b6395c4     user32:USER32.dll
 0004:000005c8       __imp__ClipCursor@4        0b6395c8     user32:USER32.dll
 0004:000005cc       __imp__SetFocus@4          0b6395cc     user32:USER32.dll
 0004:000005d0       __imp__UpdateWindow@4      0b6395d0     user32:USER32.dll
 0004:000005d4       __imp__IntersectRect@12    0b6395d4     user32:USER32.dll
 0004:000005d8       __imp__MapWindowPoints@16  0b6395d8     user32:USER32.dll
 0004:000005dc       __imp__ShowCursor@4        0b6395dc     user32:USER32.dll
 0004:000005e0       \177USER32_NULL_THUNK_DATA 0b6395e0     user32:USER32.dll
 0004:000005e4       __imp__timeKillEvent@4     0b6395e4     winmm:WINMM.dll
 0004:000005e8       __imp__mciSendStringA@16   0b6395e8     winmm:WINMM.dll
 0004:000005ec       __imp__auxSetVolume@8      0b6395ec     winmm:WINMM.dll
 0004:000005f0       __imp__auxGetDevCapsA@12   0b6395f0     winmm:WINMM.dll
 0004:000005f4       __imp__auxGetNumDevs@0     0b6395f4     winmm:WINMM.dll
 0004:000005f8       __imp__timeEndPeriod@4     0b6395f8     winmm:WINMM.dll
 0004:000005fc       __imp__timeSetEvent@20     0b6395fc     winmm:WINMM.dll
 0004:00000600       __imp__timeBeginPeriod@4   0b639600     winmm:WINMM.dll
 0004:00000604       __imp__timeGetDevCaps@8    0b639604     winmm:WINMM.dll
 0004:00000608       \177WINMM_NULL_THUNK_DATA  0b639608     winmm:WINMM.dll

 entry point at        0001:00089190

 Static symbols

 0001:00088990       _$E14                      00489990 f   web.obj
 0001:000889a0       _$E11                      004899a0 f   web.obj
 0001:000889b0       _$E10                      004899b0 f   web.obj
 0001:000889d0       _$E13                      004899d0 f   web.obj
 0001:00088280       _$E12                      00489280 f   weapon.obj
 0001:00088290       _$E9                       00489290 f   weapon.obj
 0001:000882a0       _$E8                       004892a0 f   weapon.obj
 0001:000882c0       _$E11                      004892c0 f   weapon.obj
 0001:000880a0       _$E12                      004890a0 f   tool.obj
 0001:000880b0       _$E9                       004890b0 f   tool.obj
 0001:000880c0       _$E8                       004890c0 f   tool.obj
 0001:000880e0       _$E11                      004890e0 f   tool.obj
 0001:00087cb0       _$E12                      00488cb0 f   tile.obj
 0001:00087cc0       _$E9                       00488cc0 f   tile.obj
 0001:00087cd0       _$E8                       00488cd0 f   tile.obj
 0001:00087cf0       _$E11                      00488cf0 f   tile.obj
 0001:00086840       _$E12                      00487840 f   talisman.obj
 0001:00086850       _$E9                       00487850 f   talisman.obj
 0001:00086860       _$E8                       00487860 f   talisman.obj
 0001:00086880       _$E11                      00487880 f   talisman.obj
 0001:00080fb0       _$E12                      00481fb0 f   shadow.obj
 0001:00080fc0       _$E9                       00481fc0 f   shadow.obj
 0001:00080fd0       _$E8                       00481fd0 f   shadow.obj
 0001:00080ff0       _$E11                      00481ff0 f   shadow.obj
 0001:0007e870       _$E18                      0047f870 f   scroll.obj
 0001:0007e880       _$E15                      0047f880 f   scroll.obj
 0001:0007e890       _$E12                      0047f890 f   scroll.obj
 0001:0007e8a0       _$E9                       0047f8a0 f   scroll.obj
 0001:0007e8b0       _$E8                       0047f8b0 f   scroll.obj
 0001:0007e8d0       _$E11                      0047f8d0 f   scroll.obj
 0001:0007e8f0       _$E14                      0047f8f0 f   scroll.obj
 0001:0007e960       _$E17                      0047f960 f   scroll.obj
 0001:000796b0       _$E4                       0047a6b0 f   resource.obj
 0001:000796c0       _$E3                       0047a6c0 f   resource.obj
 0001:000796e0       _$E2                       0047a6e0 f   resource.obj
 0001:000796f0       _$E1                       0047a6f0 f   resource.obj
 0001:000794f0       _$E12                      0047a4f0 f   rangedweapon.obj
 0001:00079500       _$E9                       0047a500 f   rangedweapon.obj
 0001:00079510       _$E8                       0047a510 f   rangedweapon.obj
 0001:00079530       _$E11                      0047a530 f   rangedweapon.obj
 0001:00077060       _$E12                      00478060 f   player.obj
 0001:00077070       _$E9                       00478070 f   player.obj
 0001:00077080       _$E8                       00478080 f   player.obj
 0001:000770a0       _$E11                      004780a0 f   player.obj
 0001:000753c0       _$E2                       004763c0 f   parse.obj
 0001:000753d0       _$E1                       004763d0 f   parse.obj
 0001:00070650       _$E9                       00471650 f   multiimage.obj
 0001:00070660       _$E8                       00471660 f   multiimage.obj
 0001:0006ff70       _$E9                       00470f70 f   multianimimage.obj
 0001:0006ff80       _$E8                       00470f80 f   multianimimage.obj
 0001:0006d5b0       _$E12                      0046e5b0 f   money.obj
 0001:0006d5c0       _$E9                       0046e5c0 f   money.obj
 0001:0006d5d0       _$E8                       0046e5d0 f   money.obj
 0001:0006d5f0       _$E11                      0046e5f0 f   money.obj
 0001:00061870       _$E15                      00462870 f   Mappane.obj
 0001:00061880       _$E12                      00462880 f   Mappane.obj
 0001:00067f30       _$E11                      00468f30 f   Mappane.obj
 0001:00067f70       _$E14                      00468f70 f   Mappane.obj
 0001:0006c4b0       _$E18                      0046d4b0 f   Mappane.obj
 0001:00060ef0       ?MainWndProc@@YGJPAXIIJ@Z  00461ef0 f   Mainwnd.obj
 0001:0005f690       _$E3                       00460690 f   logoscreen.obj
 0001:0005ee60       _$E12                      0045fe60 f   lightsource.obj
 0001:0005ee70       _$E9                       0045fe70 f   lightsource.obj
 0001:0005ee80       _$E8                       0045fe80 f   lightsource.obj
 0001:0005eea0       _$E11                      0045fea0 f   lightsource.obj
 0001:0005eca0       _$E12                      0045fca0 f   key.obj
 0001:0005ecb0       _$E9                       0045fcb0 f   key.obj
 0001:0005ecc0       _$E8                       0045fcc0 f   key.obj
 0001:0005ece0       _$E11                      0045fce0 f   key.obj
 0001:0005c5b0       _$E9                       0045d5b0 f   imagery.obj
 0001:0005c5c0       _$E8                       0045d5c0 f   imagery.obj
 0001:0005bf60       _$E17                      0045cf60 f   helper.obj
 0001:0005bf70       _$E14                      0045cf70 f   helper.obj
 0001:0005bf80       _$E11                      0045cf80 f   helper.obj
 0001:0005bf90       _$E10                      0045cf90 f   helper.obj
 0001:0005bfb0       _$E13                      0045cfb0 f   helper.obj
 0001:0005c150       _$E16                      0045d150 f   helper.obj
 0001:000468d0       _$E12                      004478d0 f   food.obj
 0001:000468e0       _$E9                       004478e0 f   food.obj
 0001:000468f0       _$E8                       004478f0 f   food.obj
 0001:00046910       _$E11                      00447910 f   food.obj
 0001:000448d0       _$E108                     004458d0 f   exlmain.obj
 0001:000448e0       _$E105                     004458e0 f   exlmain.obj
 0001:000448f0       _$E104                     004458f0 f   exlmain.obj
 0001:00044910       _$E103                     00445910 f   exlmain.obj
 0001:00044920       _$E100                     00445920 f   exlmain.obj
 0001:00044930       _$E99                      00445930 f   exlmain.obj
 0001:00044950       _$E98                      00445950 f   exlmain.obj
 0001:00044960       _$E95                      00445960 f   exlmain.obj
 0001:00044970       _$E94                      00445970 f   exlmain.obj
 0001:00044990       _$E93                      00445990 f   exlmain.obj
 0001:000449a0       _$E90                      004459a0 f   exlmain.obj
 0001:000449b0       _$E87                      004459b0 f   exlmain.obj
 0001:000449c0       _$E86                      004459c0 f   exlmain.obj
 0001:000449e0       _$E85                      004459e0 f   exlmain.obj
 0001:000449f0       _$E82                      004459f0 f   exlmain.obj
 0001:00044a00       _$E81                      00445a00 f   exlmain.obj
 0001:00044a20       _$E80                      00445a20 f   exlmain.obj
 0001:00044a90       _$E77                      00445a90 f   exlmain.obj
 0001:00044aa0       _$E76                      00445aa0 f   exlmain.obj
 0001:00044ac0       _$E75                      00445ac0 f   exlmain.obj
 0001:00044ad0       _$E72                      00445ad0 f   exlmain.obj
 0001:00044ae0       _$E71                      00445ae0 f   exlmain.obj
 0001:00044b00       _$E70                      00445b00 f   exlmain.obj
 0001:00044b10       _$E67                      00445b10 f   exlmain.obj
 0001:00044b20       _$E66                      00445b20 f   exlmain.obj
 0001:00044b40       _$E65                      00445b40 f   exlmain.obj
 0001:00044b50       _$E62                      00445b50 f   exlmain.obj
 0001:00044b60       _$E61                      00445b60 f   exlmain.obj
 0001:00044b80       _$E60                      00445b80 f   exlmain.obj
 0001:00044b90       _$E57                      00445b90 f   exlmain.obj
 0001:00044ba0       _$E54                      00445ba0 f   exlmain.obj
 0001:00044bb0       _$E53                      00445bb0 f   exlmain.obj
 0001:00044bd0       _$E52                      00445bd0 f   exlmain.obj
 0001:00044be0       _$E49                      00445be0 f   exlmain.obj
 0001:00044bf0       _$E46                      00445bf0 f   exlmain.obj
 0001:00044c00       _$E43                      00445c00 f   exlmain.obj
 0001:00044c10       _$E40                      00445c10 f   exlmain.obj
 0001:00044c20       _$E39                      00445c20 f   exlmain.obj
 0001:00044c40       _$E38                      00445c40 f   exlmain.obj
 0001:00044c50       _$E35                      00445c50 f   exlmain.obj
 0001:00044c60       _$E34                      00445c60 f   exlmain.obj
 0001:00044c80       _$E33                      00445c80 f   exlmain.obj
 0001:00044c90       _$E30                      00445c90 f   exlmain.obj
 0001:00044ca0       _$E29                      00445ca0 f   exlmain.obj
 0001:00044cc0       _$E28                      00445cc0 f   exlmain.obj
 0001:00044cf0       _$E25                      00445cf0 f   exlmain.obj
 0001:00044d00       _$E24                      00445d00 f   exlmain.obj
 0001:00044d20       _$E23                      00445d20 f   exlmain.obj
 0001:00044d50       _$E20                      00445d50 f   exlmain.obj
 0001:00044d60       _$E19                      00445d60 f   exlmain.obj
 0001:00044d80       _$E18                      00445d80 f   exlmain.obj
 0001:00044d90       _$E15                      00445d90 f   exlmain.obj
 0001:00044da0       _$E14                      00445da0 f   exlmain.obj
 0001:00044dc0       _$E13                      00445dc0 f   exlmain.obj
 0001:00044e10       _$E12                      00445e10 f   exlmain.obj
 0001:00044e20       _$E17                      00445e20 f   exlmain.obj
 0001:00044e30       _$E22                      00445e30 f   exlmain.obj
 0001:00044e40       _$E27                      00445e40 f   exlmain.obj
 0001:00044e50       _$E32                      00445e50 f   exlmain.obj
 0001:00044ed0       _$E37                      00445ed0 f   exlmain.obj
 0001:00044f20       _$E42                      00445f20 f   exlmain.obj
 0001:00044f80       _$E45                      00445f80 f   exlmain.obj
 0001:00044fd0       _$E48                      00445fd0 f   exlmain.obj
 0001:00045020       _$E51                      00446020 f   exlmain.obj
 0001:00045080       _$E56                      00446080 f   exlmain.obj
 0001:000450e0       _$E59                      004460e0 f   exlmain.obj
 0001:00045130       _$E64                      00446130 f   exlmain.obj
 0001:00045190       _$E69                      00446190 f   exlmain.obj
 0001:000451f0       _$E74                      004461f0 f   exlmain.obj
 0001:00045250       _$E79                      00446250 f   exlmain.obj
 0001:00045260       _$E84                      00446260 f   exlmain.obj
 0001:000452d0       _$E89                      004462d0 f   exlmain.obj
 0001:000452e0       _$E92                      004462e0 f   exlmain.obj
 0001:000452f0       _$E97                      004462f0 f   exlmain.obj
 0001:00045300       _$E102                     00446300 f   exlmain.obj
 0001:000454b0       _$E107                     004464b0 f   exlmain.obj
 0001:000416f0       _$E29                      004426f0 f   exit.obj
 0001:00041700       _$E26                      00442700 f   exit.obj
 0001:00041710       _$E23                      00442710 f   exit.obj
 0001:00041720       _$E20                      00442720 f   exit.obj
 0001:00041730       _$E17                      00442730 f   exit.obj
 0001:00041740       _$E14                      00442740 f   exit.obj
 0001:00041750       _$E11                      00442750 f   exit.obj
 0001:00041760       _$E10                      00442760 f   exit.obj
 0001:00041780       _$E13                      00442780 f   exit.obj
 0001:00042fb0       _$E16                      00443fb0 f   exit.obj
 0001:000438d0       _$E19                      004448d0 f   exit.obj
 0001:00043b70       _$E22                      00444b70 f   exit.obj
 0001:000442a0       _$E25                      004452a0 f   exit.obj
 0001:00044570       _$E28                      00445570 f   exit.obj
 0001:000388d0       _$E83                      004398d0 f   effect.obj
 0001:000388e0       _$E80                      004398e0 f   effect.obj
 0001:000388f0       _$E77                      004398f0 f   effect.obj
 0001:00038900       _$E74                      00439900 f   effect.obj
 0001:00038910       _$E71                      00439910 f   effect.obj
 0001:00038920       _$E68                      00439920 f   effect.obj
 0001:00038930       _$E65                      00439930 f   effect.obj
 0001:00038940       _$E62                      00439940 f   effect.obj
 0001:00038950       _$E59                      00439950 f   effect.obj
 0001:00038960       _$E56                      00439960 f   effect.obj
 0001:00038970       _$E53                      00439970 f   effect.obj
 0001:00038980       _$E50                      00439980 f   effect.obj
 0001:00038990       _$E47                      00439990 f   effect.obj
 0001:000389a0       _$E44                      004399a0 f   effect.obj
 0001:000389b0       _$E41                      004399b0 f   effect.obj
 0001:000389c0       _$E38                      004399c0 f   effect.obj
 0001:000389d0       _$E35                      004399d0 f   effect.obj
 0001:000389e0       _$E32                      004399e0 f   effect.obj
 0001:000389f0       _$E29                      004399f0 f   effect.obj
 0001:00038a00       _$E26                      00439a00 f   effect.obj
 0001:00038a10       _$E23                      00439a10 f   effect.obj
 0001:00038a20       _$E20                      00439a20 f   effect.obj
 0001:00038a30       _$E17                      00439a30 f   effect.obj
 0001:00038a40       _$E14                      00439a40 f   effect.obj
 0001:00038a50       _$E11                      00439a50 f   effect.obj
 0001:00038cc0       _$E10                      00439cc0 f   effect.obj
 0001:00038ce0       _$E13                      00439ce0 f   effect.obj
 0001:00038fa0       _$E16                      00439fa0 f   effect.obj
 0001:000391e0       _$E19                      0043a1e0 f   effect.obj
 0001:000394f0       _$E22                      0043a4f0 f   effect.obj
 0001:00039b60       _$E25                      0043ab60 f   effect.obj
 0001:0003a090       _$E28                      0043b090 f   effect.obj
 0001:0003a2a0       _$E31                      0043b2a0 f   effect.obj
 0001:0003a480       _$E34                      0043b480 f   effect.obj
 0001:0003a880       _$E37                      0043b880 f   effect.obj
 0001:0003af80       _$E40                      0043bf80 f   effect.obj
 0001:0003b680       _$E43                      0043c680 f   effect.obj
 0001:0003bd30       _$E46                      0043cd30 f   effect.obj
 0001:0003caa0       _$E49                      0043daa0 f   effect.obj
 0001:0003d000       _$E52                      0043e000 f   effect.obj
 0001:0003d8c0       _$E55                      0043e8c0 f   effect.obj
 0001:0003e1c0       _$E58                      0043f1c0 f   effect.obj
 0001:0003e3d0       _$E61                      0043f3d0 f   effect.obj
 0001:0003e550       _$E64                      0043f550 f   effect.obj
 0001:0003e6d0       _$E67                      0043f6d0 f   effect.obj
 0001:0003e850       _$E70                      0043f850 f   effect.obj
 0001:0003f390       _$E73                      00440390 f   effect.obj
 0001:0003f6c0       _$E76                      004406c0 f   effect.obj
 0001:0003fa10       _$E79                      00440a10 f   effect.obj
 0001:00040890       _$E82                      00441890 f   effect.obj
 0001:0002a390       _$E38                      0042b390 f   editor.obj
 0001:0002a3a0       _$E35                      0042b3a0 f   editor.obj
 0001:0002a3b0       _$E32                      0042b3b0 f   editor.obj
 0001:0002a3c0       _$E29                      0042b3c0 f   editor.obj
 0001:0002a3d0       _$E26                      0042b3d0 f   editor.obj
 0001:0002a3e0       _$E25                      0042b3e0 f   editor.obj
 0001:0002a400       _$E24                      0042b400 f   editor.obj
 0001:0002a410       _$E21                      0042b410 f   editor.obj
 0001:0002a420       _$E20                      0042b420 f   editor.obj
 0001:0002a440       _$E19                      0042b440 f   editor.obj
 0001:0002a450       _$E16                      0042b450 f   editor.obj
 0001:0002a460       _$E15                      0042b460 f   editor.obj
 0001:0002a480       _$E14                      0042b480 f   editor.obj
 0001:0002a490       _$E13                      0042b490 f   editor.obj
 0001:0002a4a0       _$E18                      0042b4a0 f   editor.obj
 0001:0002a4b0       _$E23                      0042b4b0 f   editor.obj
 0001:0002a4c0       _$E28                      0042b4c0 f   editor.obj
 0001:0002a570       _$E31                      0042b570 f   editor.obj
 0001:0002a610       _$E34                      0042b610 f   editor.obj
 0001:00034ba0       _$E37                      00435ba0 f   editor.obj
 0001:000246c0       _$E9                       004256c0 f   dialog.obj
 0001:000246d0       _$E8                       004256d0 f   dialog.obj
 0001:0001e920       _$E2                       0041f920 f   death.obj
 0001:0001e930       _$E1                       0041f930 f   death.obj
 0001:0001b540       _$E15                      0041c540 f   container.obj
 0001:0001b550       _$E12                      0041c550 f   container.obj
 0001:0001b560       _$E9                       0041c560 f   container.obj
 0001:0001b570       _$E8                       0041c570 f   container.obj
 0001:0001b590       _$E11                      0041c590 f   container.obj
 0001:0001c3b0       _$E14                      0041d3b0 f   container.obj
 0001:00018420       _$E2                       00419420 f   colortable.obj
 0001:00018430       _$E1                       00419430 f   colortable.obj
 0001:00012d20       _$E20                      00413d20 f   character.obj
 0001:00012d30       _$E17                      00413d30 f   character.obj
 0001:00012d40       _$E14                      00413d40 f   character.obj
 0001:00012d50       _$E11                      00413d50 f   character.obj
 0001:00012d60       _$E10                      00413d60 f   character.obj
 0001:00012d80       _$E13                      00413d80 f   character.obj
 0001:000172a0       _$E16                      004182a0 f   character.obj
 0001:00017340       _$E19                      00418340 f   character.obj
 0001:0000af80       _$E12                      0040bf80 f   armor.obj
 0001:0000af90       _$E9                       0040bf90 f   armor.obj
 0001:0000afa0       _$E8                       0040bfa0 f   armor.obj
 0001:0000afc0       _$E11                      0040bfc0 f   armor.obj
 0001:00009dc0       _$E9                       0040adc0 f   animimage.obj
 0001:00009dd0       _$E8                       0040add0 f   animimage.obj
 0001:00008940       _$E12                      00409940 f   ammo.obj
 0001:00008950       _$E9                       00409950 f   ammo.obj
 0001:00008960       _$E8                       00409960 f   ammo.obj
 0001:00008980       _$E11                      00409980 f   ammo.obj
 0001:00005620       _$E17                      00406620 f   3dscene.obj
 0001:00005630       _$E14                      00406630 f   3dscene.obj
 0001:00005640       _$E11                      00406640 f   3dscene.obj
 0001:00005650       _$E10                      00406650 f   3dscene.obj
 0001:00005660       _$E13                      00406660 f   3dscene.obj
 0001:00005670       _$E16                      00406670 f   3dscene.obj
 0001:00000000       _$E14                      00401000 f   3dimage.obj
 0001:00000010       _$E11                      00401010 f   3dimage.obj
 0001:00000050       _$E10                      00401050 f   3dimage.obj
 0001:00000060       _$E13                      00401060 f   3dimage.obj
 0001:00089dd0       @WriteCmpData@4            0048add0 f   implode:impfast.obj
 0001:0008a110       @FindRep@8                 0048b110 f   implode:impfast.obj
 0001:0008a410       @OutputBits@12             0048b410 f   implode:impfast.obj
 0001:0008a490       @lmemcpy@12                0048b490 f   implode:impfast.obj
 0001:0008a4d0       @lmemset@12                0048b4d0 f   implode:impfast.obj
 0001:0008a540       @FlushBuf@4                0048b540 f   implode:impfast.obj
 0001:0008a5c0       @SortBuffer@12             0048b5c0 f   implode:impfast.obj
 0001:00089710       @Expand@4                  0048a710 f   implode:expfast.obj
 0001:00089800       @DecodeLit@4               0048a800 f   implode:expfast.obj
 0001:000899b0       @DecodeDist@8              0048a9b0 f   implode:expfast.obj
 0001:00089a30       @WasteBits@8               0048aa30 f   implode:expfast.obj
 0001:00089ac0       @GenDecodeTabs@16          0048aac0 f   implode:expfast.obj
 0001:00089b00       @GenAscTabs@4              0048ab00 f   implode:expfast.obj
 0001:00089c00       @lmemcpy@12                0048ac00 f   implode:expfast.obj

FIXUPS: 8a874 35 28 3e 2b 29 2d 43 26 20 486 11 22 17 54 41 28 31 24 66
FIXUPS: 8b07f 14 1e 12 1e 34f 53 10c fffff0c7 7 14 18 18 12 e 18 7 4d 2f
FIXUPS: 8a7b7 60 30 fff7b79f 2d 47 3f 34 1d 49 1e 23 23 33 43 1b 32 143
FIXUPS: 63f7 2f ae 6 83e91 fffffe9b 1c f 3b 76 1d fffffd89 e d17 f 7 51
FIXUPS: 57d7 4c 1c8 65 4d 151 20 5c 1e 18 8 12 1b 8 12 1b 8 11 1b b 5e
FIXUPS: 5e4a 25 29 44 21 3b 13 f 2b 16 31 ffffed12 9e d e e c1 79 1a0 77
FIXUPS: 5134 16 3a 3e f 1b 16 63 1f9 96 1f 86502 c fff79b5a 13 7b 57 f
FIXUPS: 8ba34 b fff79ce7 30 2f ffffe46d 88 95 15 37 6f 15 15 10f 53 78
FIXUPS: 400f c2 4a 4e 4d 21 4a 1a ed 4a 51 83 1ec 192 15 18 118 ae 2e6
FIXUPS: 4cab 24 ffffe266 43 1e f f 20 1b 1e f f 23 1b 1e f f 23 6c 1b 38
FIXUPS: 31c8 1eb b0 cf 6c 3f 3b 12d 9b b7 210 5a 27 ffffde26 2d 8 8 48
FIXUPS: 19ef a5 1b 27 49a 5fd 97 1f 893d2 c fff76ca2 f0 25 25 ce 10c 71
FIXUPS: 2af3 dd 3c 18 8f 47 34 149 f f 531a 6b 180 52d ef 18 17 ffff861f
FIXUPS: 1014 45 12 26 7a 13 42 f 8a865 b fff75878 40 c1 36 70 65 e9 98
FIXUPS: 166b 3c a2 115 62 d 5c1f 26 d d 27 81 132 49 43 41 42 4a 49 42
FIXUPS: 7a04 86 3d 3e 3d 3d 19 33 15c b0 1f 83c5f c fff7c4b2 15 bf ad 8f
FIXUPS: 66aa 21 52 3c 32 147 1c f8 77 4e 64 58 48 49 4e 14 9a 17 a0 49
FIXUPS: 6e43 49 163 6c 48 28 16c a4 62 92 15 83 8464d b fff7e292 47 29
FIXUPS: 9def 67 2a 24 2a 35 3e 97 30 a3 ef 81 30 90 a7 e8 a8 ff d1 fffff099
FIXUPS: 979b 13 26 ffffce50 10 10 51 8546c fff7feee 2c 13 127 84 37 5c
FIXUPS: bcf9 1cc 7fc4f b fff7f073 ffffedb2 10 1a 24 116 32 3a 23 81f3e
FIXUPS: 8ba81 fff7e10a 13 56 1f 81e82 c fff7e257 26 f 237e 39 1f 7fa52
FIXUPS: 8bb61 fff7f263 17 13f b1 3e 70 148 1f 808f5 c fff7f74a 13 26 35
FIXUPS: b309 70 70 70 59 6b fb b8 143 d0 ae 1f 80145 fff82c1b 15d 10 42f
FIXUPS: ece5 10 10 59 85 9 bb 9 3f a0 109 30 3f 109 17 40 24 11f ffffcbda
FIXUPS: bf94 1a 24 32 23 7fb0e c fff8053a 13 4433 79 1d c 35 c ffffbdce
FIXUPS: c394 4a 18 15 59 13 294 13 41a 402 3ec 44f 3d4 3b2 4e4 50 22 ad
FIXUPS: e5e4 2a 8 3d 22 34 21 3f94 33 ffffe37a 20 13 60 12 7b0c4 b fff84f65
FIXUPS: f57e 276 37 10 10 dc 82 b3 22a a0 62 10 324 2f 10 211 7b 57 11
FIXUPS: 10480 11 1b 148c 17 6e be b0 1f 58 89 1f 33 89 1f 37 1df 4b 81
FIXUPS: 8bbb7 b fff86493 5c 31 89 4a 23 28 32 f 17 93 26c 4b 8f ffffed2e
FIXUPS: 1137a 1f 70 f 17 bf 1f 16 2b 33 24 4b 25 37 20 24 16 1c 31 7a4a4
FIXUPS: 8bba2 fff85b8c 27 4a 26 24 1a a5 23 2b 33 fffff690 13 1d 14 1d
FIXUPS: 1102e 1f 1e 1f 14 e 2c 1e e 19 14 e b 1a 40 15 17 14 46 24 1b 2d
FIXUPS: 112b1 30 1b 1a 1b 15f1 3f 45 4c 5c 1de 43 3f 14 61 49 29 20f b1
FIXUPS: 131b4 254 345 a0 fa 12b 1bc ffffd233 72 2a 25 16 28 40 14 c 2b
FIXUPS: 10f9f 7acc2 fff8c6ed 36 1f 738d2 c fff8c76a 13 42 f 73845 b fff8c7fd
FIXUPS: 1851f 25 73773 b fff8c8f9 13 85 1f 5c 10 12 735e7 b fff8ca3d b4
FIXUPS: 187f2 9a 10 ffffa039 5316 b0 27 1a 80 19 6b 17 55 1a 66 1a 118
FIXUPS: 18009 23 1a 13 26 11 67 20 1c 12 11 3c a 45 3f 8e 36 1f 73952 fff8b8ca
FIXUPS: 17539 93 1a 35 e f 24 1a 57 57 73 13 22 1a 31 12 11 64 1a 76 1a
FIXUPS: 179cb 27 1a de 1a 34 1a 34 1a 31 fffff345 c 11 40 1c 18 f 1c 16
FIXUPS: 1702f 8b 4f 39 30 37 12 36 bf c a 10 a 58 26 21 1a 9f 1a 34 1a
FIXUPS: 174d4 1a fffff124 13 11 46 1f 16 15 13 c0 4e 30 7 ea 13 fb 98 101
FIXUPS: 16bd0 21 30 30 30 30 32 71 74ee1 c fff8b17a 90 3c 3e 11 ffffeca5
FIXUPS: 15ba1 23 16f d8 2b 89 15 16 191 118 37 26 17 40 1d 1a 13 5f 13
FIXUPS: 16314 11 16 15 13 7c 58 2e 54 97 93 1b ffffe1c4 160 130 110 110
FIXUPS: 14d82 b2 1f 15 19 76d84 a 9 b fff892ae 44 9b 54 45 72 392 64 14f
FIXUPS: 1564f 11d 68 15d 14 1a 45 1a ce ffffe585 1a 132 70 4f 26 4a 26
FIXUPS: 14354 7a 22 4a 4a 26 4a 84 13 11 68 23 15 19 77580 a 9 b fff88aa8
FIXUPS: 146ae 1d 20 20 13 6750 ffffdada 13 13 13 13 13 a5 2c f 2e 156 161
FIXUPS: 18ecc 460 59 14 14 14 14 14 14 14 ffffa913 10 10 10 1a 24 ab 10d
FIXUPS: 13f5a 5ca3 7b 58 23f 241 7d 8a 98 84 7c 80 7c 361 29 5f 8 42 1a
FIXUPS: 1a9e5 14 2e 14 19d 16 17 1b 19 17 148 10 85 3a b7b 41 1f 42 2c
FIXUPS: 1bad7 7c 60 48 1c 43 5d 19 14 10 3a 13 1b 70 ffffd658 34 a0 ec
FIXUPS: 19653 7b ee 7a 7b ee 7b 7a ee 1561 17 3e 41 14 1b 2a 26 16 8c 8e
FIXUPS: 1b340 20 b 11 7d 2c e 30 e 3c 1d 10 44 1e 2e 7a b 51 52 1dd f0
FIXUPS: 1d713 13 f 4c 97 99 ffffe5ba 31 6fe59 c fff903e8 15 bd 15 165 156
FIXUPS: 1c4a0 ffffe9f7 27 1e 26 b 17 20 f 16 d 48 1c 2d 99 37 1ecd b 34
FIXUPS: 1d051 eb f8 ac 73 14 11 46 36 23 6e93e c fff9173a 13 1d 39 1f 6e852
FIXUPS: 8bd81 fff91822 2a 1a 35 11 13 e 44 3c 37 fffff102 16 2b b 26 1d
FIXUPS: 1c8ac 2c 11 c1 f4 11 2a 20 19 2c 11 45 23 6f15e c fff90f0a 13 1d
FIXUPS: 1cc94 1f 6f082 c fff91061 109 cd b 9ec bd 16 d9 4f 38 2f 14 63
FIXUPS: 1dc69 47 1e 29 19 2f 74 ffffe791 10 10 1a 24 29 3c 16 36 17 64
FIXUPS: 1c6df 3a 11 9c 24 2b28 4e db 66 9b 1b ffffe99e be f0 1d7 5f f 80
FIXUPS: 1e394 24 32 2e 2c 1f 14 16 2c 2a 14 16 2c 2a 14 16 2c fffff38b
FIXUPS: 1d966 22d9 52 10 c 20 68 fc 54 25 6bf0b c fff9298a 30 13 40 28
FIXUPS: 1e847 86 8f c 54 f6 1ce f 6d105 b fff92f68 2b 25b 166 122 8e 32ea
FIXUPS: 225f5 ffffd32f 75 a a a a 18 a a a a 2c f 3e 1a 27 25 1a 27 25
FIXUPS: 1fb60 27 10 10 b 3b 20 e b e 5464 2dd 334 ffffe08c 126 20e 29c
FIXUPS: 23e2b 253 27f 294 2cd 331 ffffe03c 29c 2dd 368 ffffd849 124 1b3
FIXUPS: 21265 124 1eb 274 24a 2cc 324 293 1c 5b 54 1df 32a0 e b a 26 58
FIXUPS: 258b0 82 25 135 a 19 7f 1d 21 6f 102 22 1f 97 26 92 71 b 2b 8 4b
FIXUPS: 25f72 1b 1b b ffffee69 17e6 42 18 1e 49 26 2c 41 55 23 1d 23 1d
FIXUPS: 2684e 1d 23 66 21 1e 6b 20 51 251 44 ad 26 10 ffffe93d 69 f 69
FIXUPS: 257af 17d3 3c 39 42 64 41 1d 21 1d 21 31 92 ffffedc1 21 1e 21 43
FIXUPS: 260d8 14 40 2e 1e 52 84 9 10 4a 30 66 bc 53 e0 3067 38 37 38 37
FIXUPS: 296b3 38 3d 38 37 38 46 37 32 41 37 41 37 32 37 37 41 43 34 577
FIXUPS: 2a05b ffffcdc0 26 10 36 21 27 1607 21 44 1b 21 44 1b 21 2f 1b 21
FIXUPS: 286ae 637a7 a a a a a a a b fff9c845 13 222 19 12b 52d 6b 4c8 38
FIXUPS: 29534 37 ffffe47c 52 30 22 169 75 85 66 e 30 22 56 5 63fc9 d d
FIXUPS: 8bdff d d b fff9c096 5 51 f 63f15 b fff9c311 22b c5 1b 19 47 112b0
FIXUPS: 39781 12 18 19 ee d ffff0d16 147 148 143 267 ffffc9ad 50 13 37
FIXUPS: 27667 d 56 86 55 19 44 57 4a 11 f d 65 53 e 2f 11809 e 1e f 1f
FIXUPS: 39250 f 1f e 1e f 1f f 32 a 10 2a 37 3c 10 47 4d d 6c 80 4c 29
FIXUPS: 3969a 39 d 3e 27 fffff682 58 a 1d 45 25 3c 23 2d e 12 a a 10 2a
FIXUPS: 38ff4 11 14 11 14 e f 1d a a 10 2a 5a 25 1f 3c f fffff77c a a a
FIXUPS: 38953 a a 10 29 97 a a a a a a a 10 29 a7 50 55 d a 1d 80 23 8d
FIXUPS: 38d79 a a 10 fffff8e0 f 1f f 1f e 1e 18 f 1f f 1f f 1f f b b 19
FIXUPS: 387fe 2b 2f 10 10 17 14 25 1f f d a a a fffff790 27 29 8 8 16 53e5e
FIXUPS: 8bf91 fffac1f8 14 16 11 23 16 11 23 13 35 f 40 a7 48 25 35 55 13
FIXUPS: 38488 a4 3d c6 e 1e fffff531 a7 e6 16 14 12 12 12 a4 63 17 f 16
FIXUPS: 37ed2 e 17 f 16 16 e 14 f 16 16 e f 1e d 1e d 1e 37 fffff146 189
FIXUPS: 37358 27 35 76 88 b f8 16 f b 1ce bd b 13 22 12 c4 1b 14 1d 14
FIXUPS: 37a12 5a 2e e c 5e 3f 18 15 ffffea61 1f 1f 9b ab 22 c7 2d 44 50
FIXUPS: 36b01 37 1e 216 1d 14 38 38 38 38 38 38 38 38 38 38 38 38 38 98
FIXUPS: 3715d 18 ffffef95 2f 2b 2a 12 f 1a 5a 16 25 1b 15 1b 43 11 1e 38
FIXUPS: 363ac 15 22 2c 38 4f 15 17 11 3d 28 3e 11 13 1a fffff6a4 2b 2c
FIXUPS: 35ced 28 a 47 23 a 43 48 e 10 16 17 15 22 18 f 25 26 26 16 b 14
FIXUPS: 35f8c 93 13 12 7e 13 13 fffff234 22 47 bf 35 204 1a 6a 18 c7 6e
FIXUPS: 3589d 26 b 7b 54 11 26 b 5e 3c a 1b 20 20 48 13 f 1a 2b 59 3f fffff160
FIXUPS: 8bed5 b b b b b b b e e e e b c fffa8e6c 25 15 36 36 78 18 fd 32
FIXUPS: 3508d 32 143 e 4a 67 e 2f fffff380 13 3c 31 13 3c 31 13 3f 31 1f
FIXUPS: 34866 31 1f 47 31 1f 47 31 25 55 37 25 53 37 25 53 37 25 53 37
FIXUPS: 34d6a fffff42f a 13 d 53 d 53 d 5c d 3c d a 37 d 3f d 1a 10 10
FIXUPS: 34419 3d 3a 19 10 61 31 43 3f 31 13 3c fffff885 d 5 28 d 5 28 d
FIXUPS: 33f66 c a 10 d a 10 d 5 f 7 f c 5 e c 31 16 d 58 d 59 d 58 fffff9d0
FIXUPS: 33b70 15 18 b 3a 5f e1 a 26 5 a 1e e a 15 c 7 b 5 f a 5 2c 12 12
FIXUPS: 33e45 24 12 12 8 1d fffff5de 1d 16 c 1a 29 16 c 1a 1a 13 c 12 1a
FIXUPS: 3360c 11 c3 1e d 8 19 19 8e 2b 19 bd 2a 19 d3 19 bd 10 fffff5be
FIXUPS: 330b3 38 4e 2c d 12 4d 18 1c e 3a 18 d 25 40 8 16 4c 8 1e 12 1d
FIXUPS: 333ac 10 18 24 27 35 8 16 c fffff909 17 27 d d c c 8 2d a 24 19
FIXUPS: 32e90 e a 18 e a 18 e a 2a 16 a 1e a 30 19 3d 26 a 41 fffff711
FIXUPS: 32794 6d d a 3b 4c 15 23 1c 1e 87 36 21 d 28 12 66 a6 d 58 14 46
FIXUPS: 32c2e 12 78 21 d 28 d 10 3c fffff283 33 11 12 d b 8a d 46 40 11
FIXUPS: 321db d 1c6 d 73 b e 2b 47 20 16 13 8c 35 79 16 3f 30 32 1c 26
FIXUPS: 318f9 13 e 13 8 1d 2f 14 28 39 47 b e 1b 27 61 6c 1f 34 4b 13 1a
FIXUPS: 31cc5 29 34 b6 e 15 1e 13 1a2 d fffff425 21 11 28 94 b e 5a b 25
FIXUPS: 315a4 11 a a a 5 3c 26 6f 27 56 30 11 12 d 36 1f 28 43 d 2a 1f
FIXUPS: 30baa d 66 b0 25 26 2d 43 1c 1c 34 13 17 22 39 32 3f 2b 95 32 dc
FIXUPS: 310d1 68 a 55 e4 2b d d8 d 35 21 fffff082 13 51 12 13 1d 32 17
FIXUPS: 30576 1c 13 c9 d 17 5d db 89 d4 d 19 1d 35 d 15 79 19 18 4b d 1b
FIXUPS: 30b00 79 fffff547 12 e 8 2f e 12 e 8 1c 4b 12 15 7b b 19 15 7b
FIXUPS: 30315 19 23 1a 4d 13 23 7 1e 7 12 7 27 7 fffff743 96 17 2b 29 1c
FIXUPS: 2fccf b 43 b6 45 17 22 24 1c e b 4d e e 16 e e 16 90 14 e 33 1f
FIXUPS: 3006d 26 1a fffff20e 4d 3b 1b 35 2a a 5a c e b2 17 12 10 24 47
FIXUPS: 2f5ea 2c 32 55 2a a2 19 14 a9 44 10b 22 17 c 178 41 ffffede8 38
FIXUPS: 2e9e6 3b 120 35 3d 21 37 77 3d 4a 28 b 105 d3 53 16 13 c 77 13b
FIXUPS: 2f16a 2c 3b 49 1d f 2d f b a fffff015 28 3d 8b 21 7 22 7 53 ca
FIXUPS: 2e51b b 56 1b 1a 42 b 40 4c 2b 2f 2f 58 2a b 27 3b 1a 41 b 59 67
FIXUPS: 2d8c0 63 1d 33 3f 19 36 8d 34 e4 d2 27 fd 30 4a 60 1d 4d 2c 49
FIXUPS: 2df9e 24 2b 11 2f 2f 33 13 c 15 15a a ffffe9e4 21 3d 11 d 6e 34
FIXUPS: 2cd61 1e3 25 83 b 2c b 50 33 469 b 66 33 18 3d 1b 8 a 5e878 c fffa1851
FIXUPS: 2d744 33 a8 92 ffffeef7 20 13 20 13 13 34 30 61 5f 3f 1e 16 6f
FIXUPS: 2ca32 36 f f 14 34 11 13 12 14 f 20 21 3d 11 12 14 f fffff44f 20
FIXUPS: 2c079 22 81 22 20 2c 22 31 114 67 63 76 11 55 1a 6f 13 2b 10a 49
FIXUPS: 2c6c4 15 13 15 13 15 13 23 13 23 fffff34b f b a f b a f b a f b
FIXUPS: 2bb70 f b 10 c9 14 17 e fb b 2d a cf a a 18 a e6 22 42 fffff441
FIXUPS: 2b489 10 10 10 148 12e 20 106 ab 12 73 a 11 a 11 a 11 a 11 a 11
FIXUPS: 2ba2a 11 19 19 f f 14 1d f b 15ee9 4ac65 b fffb5400 13 11 c 22
FIXUPS: 41b35 35 5 a 14 a4 1b 2a 35 5 fffe96e4 10 10 10 10 5 10 20 b 5
FIXUPS: 2b429 20 b 5 15769 cc 31 31 13e a4 346 1ae 105 170 5 39 44 88 19
FIXUPS: 4176e 10 11 11 51 1b 2a 35 a 29 36 1f 4ad12 c fffb534a 13 42 4abd5
FIXUPS: 8c591 fffb41fa 13 42 f 4bdb5 b fffb4277 23 36 5b 5 a 14 7e 1a 2a
FIXUPS: 409f5 5 24 36 1f 4bb52 c fffb450a 13 42 f 4baa5 b fffb4587 fffff801
FIXUPS: 40381 1d 36 1f 4c152 c fffb3f0a 13 42 f 4c0a5 b fffb3f7c 44 1b
FIXUPS: 4054f a 14 50 10 10 11 11 30 1b 2a 35 5 20 36 1f fffff24d f 4cba5
FIXUPS: 8c52f fffb3487 23 eb 31 2e d3 3c 132 25 22 1d0 5 a 62 c5 1b 2a
FIXUPS: 4012b 16 79 1b 2a 35 a 30 8f 1b 2a fffff1cd 4cf55 b fffb30ef 36
FIXUPS: 3f5b3 4ced2 c fffb319a 13 42 f 4ce15 b fffb322f 36 1f 4cd92 c fffb32da
FIXUPS: 3f7be 42 f 4ccd5 b fffb336f 36 1f 4cc52 c fffb340a 13 fffff733
FIXUPS: 3f0a5 8a 1b 2a 35 a 1b 36 1f 4d1c2 c fffb2eaa 13 42 f 4d105 b fffb2f1c
FIXUPS: 3f33e 42 f 4d095 b fffb2faf 36 1f 4d012 c fffb305a 13 42 fffff49e
FIXUPS: 3e9e0 f 4d9d5 b fffb264e 122 4b 5 a 2e 32 97 30 1e 37 1a 2a 36
FIXUPS: 3ed9e 1f 2b 25 39 36 46 c7 25 39 36 2d 5 4d340 fffb1dce 79 25 39
FIXUPS: 3e271 31 211 25 39 69 5 a 62 ba 1a 2a 36 f 14 af 42 1b 29 36 5
FIXUPS: 3e8ce 36 1f 4da82 c fffb25da fffff244 4e775 b fffb18ae 2b 25 25
FIXUPS: 3dca5 2c af 25 25 33 5d 5 44 14 ab 1b 2a 35 f 23 36 1f 4e302 c
FIXUPS: 3e0cb 13 42 f 4e255 fffb0a8a 42 f 4f4a5 b fffb0b87 23 b3 31 31
FIXUPS: 3d10c 86 49f 31 31 278 5 a 44 aa 1b 2a 35 a 22 36 1f 4e822 c fffb183a
FIXUPS: 3db7e 42 ffffebe0 f 4fb15 b fffb050e 5c 28 3c 2c d1 27 52 28 3c
FIXUPS: 3cacf 8 5 2d 20 28 3c 112 1b 2a 35 a 1b 36 1f 4f552 c fffb0b0a
FIXUPS: 3bfe3 50282 c fffafdda 13 42 f 501d5 b fffafe4e b1 dd 27 132 2e
FIXUPS: 3c423 ec 8 5 2d a0 1b 29 36 a 21 36 1f 4fbc2 c fffb049a 13 fffff0e6
FIXUPS: 3b84f 3f 36 1f 50942 c fffaf71a 13 42 f 50895 b fffaf78e b5 a 11f
FIXUPS: 3bbe9 31 3a 1f 1e 1e 160 30 75 31 1a 2a 36 2f 36 501ed fffaf1ba
FIXUPS: 3b37e 1d 39 1f 50dd2 c fffaf28a 1d 16 36 23 50cfe c fffaf35a 13
FIXUPS: 3b57b 39 1f 50c32 c fffaf42c 40 23 27 34 37 57 12 b 8c fffff688
FIXUPS: 3aed5 8f 3f a 17 49 7a 17 36 23 30 19 51005 a 9 b fffaf028 13 1d
FIXUPS: 3b1f4 1f 2f 19 50f1a a 9 b fffaf11b 36 23 50e9e fffae940 11 25
FIXUPS: 3ab54 1a 36 23 30 19 514b5 a 9 b fffaeb78 13 1d 20 13 4b f 513dc
FIXUPS: 8c0ff fffaec55 1f 2f 19 5135a a 9 b fffaecd8 a 51250 a b fffae3d3
FIXUPS: 3a4b4 2c 1e 36 27 51b2a c fffae57a 13 1d 39 1f 51a12 c fffae65c
FIXUPS: 3a75b 6a 2c 30 ea 1b 71 3f a 17 49 7a 21 fffff4d3 36 23 51fde c
FIXUPS: 3a06b 13 1d 39 1f 51f12 c fffae14c 18 56 8 1b 36 23 55 51d89 a
FIXUPS: 8c03a fffae2b1 13 4b f 51cec b fffae345 1f 54 fffff61d 10 10 10
FIXUPS: 39a9b 40 3e 53 42 40 4a 3a 3b 25 1c 36 23 5225e c fffaddfa 13 1d
FIXUPS: 39e14 1f 52192 c fffadeba 11 88 a 2f 20 8250 4b 30 13 41 42 1a8
FIXUPS: 424fb 11 d e4 ffff72d7 10 10 10 10 10 10 10 10 10 10 10 10 10 10
FIXUPS: 399c4 10 10 10 10 10 bba0 27 471aa c fffb8f0a 13 1d 49 23 4706e
FIXUPS: 8c7b1 fffb909b ffffc47f 20 22 1e 1a 21 1e 1a 21 15 1f 97 28 d4
FIXUPS: 41fa1 3e 7 6f 1a 119 2a53 47b2a c fffb858a 13 1d 39 23 479fe c
FIXUPS: 44df3 23 29 e 72 ee 94 18 99 1bc 36 27 4743a c fffb8c7a 13 1d 59
FIXUPS: 45477 472ee c fffb8e0d ffffea9d 4866a c fffb7a6a 13 1d 39 23 4851e
FIXUPS: 8c6b1 fffb7bfc 2b5 f b 362 36 1f 47d92 c fffb82ea 13 42 f 47cc5
FIXUPS: 8c6ef fffb8360 a2 1c 3c d 28 36 ffffe339 af 107 196 147 10 39 73
FIXUPS: 43450 28 14a 7b a5 96 d 33 78 8f b a 33 35 94 2b c3 c0 d 1b7 1f1
FIXUPS: 43f71 4d 36 ffffe7e5 2f 13 8c 35 21 b4 22 1c 22 30 25 3e 27 49b7a
FIXUPS: 8c651 fffb652a 13 1d 69 23 49a2e c fffb6691 21 13 ba 13 18 57 12
FIXUPS: 42ed0 44c4 8 3c 8 16 10 5 1a 10 17 10 a 10 5 5 5 5 17 a 5 ffffb244
FIXUPS: 42704 10 10 10 10 10 1a 24 1e 14 5 47d9 25 2c 1f 1f 1f 1f 1f 1f
FIXUPS: 470cc 18 16 26 11 41 49 1b 1b 12 33 30 25 39 3c 14 14 19 15 a 9
FIXUPS: 47375 15 fffff608 76 7 18 13c 42 2c 39 28 1a 1c 15 11 19 28 13
FIXUPS: 46cf5 3f 130 3e 17 10 11 15 c 16 28 16 11 10 11 15 ffffedfe 5 10
FIXUPS: 45dc9 50 10 10 10 410 32 13 27 24 10 1cc cb 24 7f 11 29 10 47 20
FIXUPS: 46747 44 23 1a 16 a f 104 80 fffff19e 10 2b 5 10 2b 10 5 10 2b
FIXUPS: 45bf4 10 10 5 10 2b 5 10 2b 5 10 20 12 19 5 10 20 12 19 5 10 20
FIXUPS: 476fc 7b ffffe15d 10 5 10 20 b 5 10 20 b 5 10 20 b 10 5 10 20 b
FIXUPS: 459f9 10 20 51 1a 5 10 2b 5 10 2b 1dd0 1a 24 72 23 44e0e c fffbb23a
FIXUPS: 47a1e 1d 59 1f 44d32 c fffbb0c9 fffffc32 1c 15 18 12 21 16 9 10
FIXUPS: 475ce 35 19 f 45 13 a 47 d7f8 1a 437 16 88a 16 46f 1a 4c0 1a 497
FIXUPS: 569e3 9a8 16d0 19c7 ace 121c 42 45 122 57 51 113 57 51 193 2fb
FIXUPS: 5cabe 352 85 82 fffea9bd 66eb 18 786 47 29 2f 17 2cc 18 4bc 29
FIXUPS: 4f00b 17 2ee 18 15dd 480 450 48b 4a1 4b4 4ab df5 440 717 1a 3b7
FIXUPS: 54193 43a 16 41f 1a 37e29 c fffd09ca 13 42 f 2f5e5 b fffd0a45 f
FIXUPS: 5d2df 14 233 1b 2a 35 fffea5c0 29 3b ff1 9db 18 14f8 18 183f 95
FIXUPS: 4c445 47 104 18 1678 18 10ece f3 53 d5 e8 16 15 8e 141 16 18 c8
FIXUPS: 5f1cf ffffdd95 10 10 1a 24 32 23 2f7ee c fffd086a 13 1d 39 1f 2f722
FIXUPS: 8c831 fffd092d 36 1f c42 39 13 9b 5e 39 20 16 25 25 b4 4e 1ad fa
FIXUPS: 5e3ef 19 2a 18 5c 62 26 25 1b a5 14c 165 26 13 1a 104 3f 59 bd2
FIXUPS: 5f69d c8 a0 4c 3e 2b 7 10a 61 2f 8 74 96 dd 18 ffffd952 39 5e 13
FIXUPS: 5da96 25 13 66 6e 24 18 14 16 2c 51 10e 2231 1f 2c902 c fffd33b3
FIXUPS: 5fcb4 1a 24 32 23 2cb3e c fffd350a 13 1d 39 1f 2ca82 c fffd2a89
FIXUPS: 5f34b b0 27 1d 7b 12 d 40 98 3b 13 61 2243 42 20 87 20 28 20 fa
FIXUPS: 6002b 30 13 5c 14 13d 5d 1d 25 162 df b0 1b fffff89e 10 1a 24 32
FIXUPS: 5ff07 2c9be c fffd368a 13 1d e612 ffff38bb 1be 5 10 5 49 293 1b
FIXUPS: 60df0 96 67 e2 e f3 13 a6 4a 24 38 51 13 3e 1c 12 73 97 1f 25 57
FIXUPS: 614bd 3c6 c305 90 62 9 25 9 41 33 19 23 19f 9 25 9 78 8d 1c 1e
FIXUPS: 6e0c4 1d b a5 aa a8 1b 1c 1b c4 80 12 a6 65 ffffeeac 2d 25 f 45
FIXUPS: 6d5a7 64 9 1f 9 70 9 1f 9 8c 62 9 65 9 25 9 95 c 116 9 1f 9 7e
FIXUPS: 6dadf 21 9 34 1ee64 fffdfeee 34 117 8c 27 17a f b a0 45 16e 14
FIXUPS: 6cfd5 155 a3 a 38 e 1f e 1f e 59 21 38 f 21 5 b b9 c ffffe085 11a
FIXUPS: 6b609 198 42 17 c4 125 48 1dd 3b 14 91 7e 187 16f 287 8a 15 49
FIXUPS: 6c3f7 e1 ef 15 fe 39 49 1c 5d 13 a 201a3 fffddc47 3e 4e 14 40 11
FIXUPS: 6a732 11 10 45 14 40 11 65 11 10 153 46 1e 52 d0 31 c 26 29 23c
FIXUPS: 6b07e dc 25 40 18b 97 ffffe879 71 2a 10 d7 b b 158 8 3e b b 6e
FIXUPS: 6a056 5e 92 9d 25 b b b a3 b b f3 31 b b a0 3e 52 3e ffffe988 5
FIXUPS: 68f1f 100 54 8 82 5f 8 a4 1df 8c b2 b b cf 1d b b b 1e8 d1 b b
FIXUPS: 69922 b b2 12 b b 1fb 36 ffffe7a1 141 10b 2c 4e 11 b e f 9e b a
FIXUPS: 6879c 13c 26 118 17 67 4f b 10 1f 11 4d 6c 61 10a 7c e3 28 8 25
FIXUPS: 66737 c5 4e ef b0 2ed c 1f c 141 3a8 19 13d 19 3f 1aa 15c 4d 18a
FIXUPS: 6796a 1b 315 23 4b 25 e1 1d3 cb 2b ba f8 7f ffffd04e 23 19 3a 13a
FIXUPS: 6557e 1bc da 28 67 c1 b8 1a f 15 110 e d 4f c d3 c 2d d 2a 2c 77
FIXUPS: 65e7d 19 42 a2 791 ffffe00f 10b 18 4d 6c 54 25 a 3d 3e 7 d 39 a6
FIXUPS: 64b28 20 2a 83 17 4b c5 14 7e 19 37 97 1c 7c 3c 4b 28 14 ffffec2b
FIXUPS: 63c35 117 3b 8f 91 b 90 7 d 2a 18 7 e 1c 9 c 14 8e d 7b 19b 12
FIXUPS: 643df 93 12 5d a1 64 b f 6e ffffee64 38 38 38 27 38 f 54 15 79
FIXUPS: 6371a bd 42 42 42 a4 34 43 f f f f f f f 34 f f f 18 6a d fffff321
FIXUPS: 62e69 1b 21 51 29a0f a a a a a a a a a a a b fffd65ad 13 315 13
FIXUPS: 63279 1c 12 13 16 153 1f 1f 27 12 fffff574 a 43 5 7b 1f 12 8 27
FIXUPS: 62b45 8 8 a 5 a 33 1b 28 10 4c 27 1e 10 4c 27 1e 10 59 1b 1b 37
FIXUPS: 62e17 bb4c 1e092 c fffe1fc1 66 29 2e 68 48 24 48 39 b3 cc 3e 97
FIXUPS: 6ee58 79 e9 81 30 6e 7d e4 b2 f5 db ffff33b8 10 116 18 26 2a113
FIXUPS: 8caf6 fffe399b 269 18 74 1a1 1e 18 9a 27a 1e 18 7f ffffd88e 10
FIXUPS: 6e5de 24 116 32 a7 26 f 1e18e b fffe1e8c 13 56 23 1e0fe c fffe1f63
FIXUPS: 8ca35 a a a a a a a a a b fffe3540 e0 32 19 32 37 19 3e 2d 37 19
FIXUPS: 702ba 40 19 1c792 a a a a a a fffe455a 13 2f 3c 70 70 70 fffffcf1
FIXUPS: 70f49 d ffffe5e5 85 f 1d445 b fffe2e09 2d7 d9 33 21 3b 33 21 56
FIXUPS: 6fd47 26 57 39 27 40 1b 23 19fe 1b285 c fffe4dba 13 26 fffff917
FIXUPS: 7125b 20 20 22 f 2e 1a 21 25 1a 21 25 1a 21 25 1a 21 17 5d fffffaab
FIXUPS: 70f8b 36 1f 1bb25 c fffe9560 11 b 13 27 1a 13 1e 7d 6c 41 13 f
FIXUPS: 7627d 8f 10 1e 14 20 ffffb6fd 75 f 1b055 b fffe4fd0 ee fffffa47
FIXUPS: 7166b e7 27 50 b8 41dc 3d f5 16 16 11 2d 17 24 15 55 12 b 5f 23
FIXUPS: 75d54 13 b 68 13 b c4 47 17 13 b 5e e 26 2a b 3f fffff430 8c 21
FIXUPS: 7552e 61 13 b 35 12 15 16 32 49 21 19 19 13 30 5a 1f e 19 19 4a
FIXUPS: 7585a b2 21 21 16 2a 81 19 ffffe395 e a 3c 8 c0 8 a 83 3d 14 f
FIXUPS: 73fdc a d0 21 28 37b 9 1e 534 3d 39 60 122 139 8b 27 123 504 3a
FIXUPS: 7543b ffffdc72 c 34 10 1a 31 10 c 47 132 a1 4eb 4b 1e 40 22 25
FIXUPS: 73a81 3e 2c 30 34 3b 10 99 ae 28 2c e a 3f 1f 41d2 2c 8f ffffa2eb
FIXUPS: 72431 4d 8b 13a 81 67 13 26 12 5f 9 c5 1a 14 2a b 2f 5d 192 98
FIXUPS: 72d08 ed 82 f8 13 41 b9 d 42d5 54 9d 1a 104 48 48 109 28 1a c5
FIXUPS: 77824 37 72 13 288 1d 18 12 2a 67 1d 18 12 2a e 11 28 28 60 16
FIXUPS: 77dec ffffeca6 64 78 34 171 9c e8 2a 70 55 15 11 1f 1a 28 a 26
FIXUPS: 7709d 11 5f 1c 46 8 1b 8 45 8 1b 8 cd 34 2b 1a1b 19 13e2b a 9 9
FIXUPS: 8cbbc fffec217 1d 13 11 10 6d 62 14 3c 11 13 20 11 ffffd42c 15
FIXUPS: 763ed 1e 4e 80 56 1a 381 14f 12 55 17b2 32 29 78 13 20 13 97 11c
FIXUPS: 78612 11c 114 a3 30 3c f0 c3 23 15 19 19 13ff7 a 9 9 b fffec02f
FIXUPS: 78bce 1d 119 1f 15 1267 21 20 2c 8 56 b 58 2e a4 11 16 9 30 4c
FIXUPS: 7a2a4 4d 59 65 1c 18 3e 7b ffffdbc8 10 1a 24 71 84 16 16 2a 1769
FIXUPS: 79993 25 97 a f a f a a 14 21 21 d9 1f 1b 21 1f 1b 16 19 6a a 13
FIXUPS: 79d21 15 e9 3a 1a 30 3b 8d fffff542 a a a a a a a a e 11 2e c 16
FIXUPS: 7957d 2e 39 1a 1a 11 b 6c 3f a 39 50 105 a a 39 74 1c fffff7fb
FIXUPS: 79159 10 f a 10 f a 10 f a 10 f a 10 f 15 2b 20 a 10 a 7c 6f 75
FIXUPS: 79422 12 11 14 36 a a 1148 13 1d 39 1f 12572 c fffec3ca 30 13 26
FIXUPS: 79031 13 c 9 a 10 f a 10 f a 10 f a 10 f a 10 f a 10 20eb 19 f
FIXUPS: 7b25c 15 1d 1c 1d 11 16 13 15 9 1a 17 13 17 25 1f 13 17 e e 9 fffff0e7
FIXUPS: 7a504 1a 24 32 23 1262e c fffee32d 11 f 16 12 1b 5a 17 13 17 9
FIXUPS: 7b01b 14 17 9 89 12 14 11 f 16 d 12 1b 11 15 18 1d 1c 8 16 13 fffff8fa
FIXUPS: 7ab38 23 b 19 19 15 1c c1 1b d 5f 12 14 11 f 16 d 12 1b 11 17 18
FIXUPS: 7ae04 1c 15 16 13 f 18 53 12 fffff8a5 18 14 1f 15 18 1c 21 20 1e
FIXUPS: 7a8b4 20 1b b 19 17 1b 4b 13 16 16 11 18 f 14 22 17 18 1c 21 20
FIXUPS: 7aaea 1068 1f 11 24 44 33 18 1b 10fb4 b fffef0bf 69 17 70 73 19
FIXUPS: 7be53 25 35 4f 16 1b 1c 2f 95 e ffffe699 5 10 20 17 7e 2f90 31
FIXUPS: 7d77a 41 1d1 3d ffffda80 59 b 9 4f 44 36 b 78 32 a9 40 9a 1c b
FIXUPS: 7b811 b 36 a7 3b 7c a2 90 17 1d 1a 38e5 25 38 18 f 65 13 5b 1c
FIXUPS: 7f5be 20 6f 66 b 1f d548 c ffff2b27 89 15 35 ffffc850 13 42 f7b
FIXUPS: 7d086 29 e0 24 137 6f 151 1a5c 13 3e 29 60 2a 19 18 16 28 13 7d
FIXUPS: 7f114 25 c 3a e 22 42 f 25 4d 11 48 d 54 1e 18 53 13 2c 9 fffff4ac
FIXUPS: 7e8c0 c9 b 1a 51 f 3a 11 f d d6 bd 34 28 15 3f c 11 14 15 3f c
FIXUPS: 7ed5a a 25 f 7f b 12 b 84 fffff207 44 b 15 2b b 1b 33 38 4b 14
FIXUPS: 7e278 9d b 3e 31 2a b 6d 17 21 b 35 43 c6 23 1b bf 106 35 61 49
FIXUPS: 80876 79 4f 74 140 1e ffffceee b 2b 8 45 6e f2 6a 68 4b 12 22 13
FIXUPS: 7dd90 1d b 15 1a9 16 1a 48 16 b 21 b 82 20e4 4a 79 114 15 28 2f
FIXUPS: 803f0 f f 8e bf 20 1e 14 29 1a 1b 29 50 1a 31 25 1a 30 25 1a 30
FIXUPS: 807bd 10 b 55 c438 c ffff3060 1b 12a 22 23 20 1e 14 29 1a 1b 29
FIXUPS: 7ff85 1a 30 25 1a 30 25 1a 31 10 10 b 24 20 e b e b cb35 b ffff4672
FIXUPS: 81313 15 4f9 1a 18d 15 20 1a ffffde5d 10 10 10 1a 24 124 c c 2b
FIXUPS: 7fa75 41 9e 23 d0ce c ffff2f7a 13 1d 59 1f ef8 1a 29 28 19 116
FIXUPS: 80d22 c 9 14 16 f 1c 14f 3b 86 4b 10 d 1f 15 16 29 58 21 9f e5
FIXUPS: 8128c f 1f c 12 1f3c 16 d 3e 8 4f 1d 20 29 13 8c 35 39 15 15 7a
FIXUPS: 83534 ffffea80 10 1a 24 32 23 ac4e c ffff53fa 13 1d 39 1f ab92
FIXUPS: 8ccd1 ffff5955 63 4b 6a 1f 4e be 21 193 18 5b e1 120 11 3e c9 89
FIXUPS: 82e53 46 18 69 21 83 3d 29 4d 48 18 79 21 2e 58 18b6 10 34 51 a
FIXUPS: 84b7b 10 34 51 19 1c 1c 1c 80c8 b b b c ffff7f39 35 ffffd4f6 39
FIXUPS: 822a3 27 4c 45 149 b 59 47 58 5e 1a4c 264 56 5b 55 50 2c 16 5f
FIXUPS: 844e9 2e a3 5e 178 46 36 1f 20 20 20 3a a 35 10 31 51 a 36 10 31
FIXUPS: 84a68 a fffff123 d 53 37 28 16 d 53 37 8fe4 b b b b e e c ffff7062
FIXUPS: 83dab b 22 6a 8e 20 17 1c 1e 37 1a 34 22 45 fffff6dc 32 20 20 1e
FIXUPS: 837cb a 35 10 31 54 1f 10 a 41 31 1f 10 a 41 31 1f 10 a 44 31 1f
FIXUPS: 83ad2 d 47 31 28 1500 20 4c 5d 10 b c0 5f c7 45 2f 14 b6 25 86
FIXUPS: 85561 6e 36 67 54 19 33 1c 1e7 2a 16 68 169 ffffda3d 7f 2f e3 2713
FIXUPS: 85e1d 13 2b f 71 f ffffeeb9 20 18 f 11 20 20 22 1e 1a 21 1e 1a
FIXUPS: 84f0f 1e 1a 24 1e 1a 24 1e 1a 24 1e 1a 2a09 1f 5322 c ffff932a
FIXUPS: 860ee 13d 128 422 140 1a9 2e4 4db 2be 6f 35 43 3d 15b 9f 34 ffffe727
FIXUPS: 85f9b 13 32 49 fffffc36 114 2d 25 10 1c 233a 29 42 41 28 13 af
FIXUPS: 882d7 11 4d 13f 20a 4e 8e 17 3a a9 17 ffffefd9 10 1a 24 1f 80 1b
FIXUPS: 87984 23 53de c ffffac6a 13 1d 1198 17 49 27 ffffeeb6 1b 18 28
FIXUPS: 87b79 15 7d 40 10 27 21 bf e 35 24 b 8f 50 e 21 60 35 21 60 35
FIXUPS: 8804e a1 2b 104d 3c9e c ffffc3aa 13 1d 39 1f 3be2 c ffffbe83 10
FIXUPS: 88cde 24 32 23 406e c ffffbfea 13 1d 39 1f 3fa2 c ffffbce4 1f 27
FIXUPS: 88b37 27 19 30 707 24 47 23 b4 cf 11 45 a2 cd 23 15 3789 a b ffffc8b1
FIXUPS: 8971e 1d 39 1f 15 36bd a b ffffc9e8 b1 3e fffff753 10 1a 24 52
FIXUPS: 89c56 5b 53 6b 45 29 14 1a 14 85 8d 56 c fffffa01 10 1a 24 21 3e
FIXUPS: 89aa4 23 33be c ffffcc9a 13 1d 39 1f 32f2 c ffffc3d3 10
