 exile2

 Timestamp is 340ce546 (Tue Sep 02 21:19:18 1997)

 Preferred load address is 00400000

 Start         Length     Name                   Class
 0001:00000000 00084e42H .text                   CODE
 0002:00000000 00003df1H .rdata                  DATA
 0002:00003df8 000019d0H .xdata$x                DATA
 0002:000057c8 00000000H .edata                  DATA
 0003:00000000 00000004H .CRT$XCA                DATA
 0003:00000004 00000004H .CRT$XCC                DATA
 0003:00000008 00000144H .CRT$XCU                DATA
 0003:0000014c 00000004H .CRT$XCZ                DATA
 0003:00000150 00000004H .CRT$XIA                DATA
 0003:00000154 00000008H .CRT$XIC                DATA
 0003:0000015c 00000004H .CRT$XIZ                DATA
 0003:00000160 00000004H .CRT$XPA                DATA
 0003:00000164 00000004H .CRT$XPX                DATA
 0003:00000168 00000004H .CRT$XPZ                DATA
 0003:0000016c 00000004H .CRT$XTA                DATA
 0003:00000170 00000004H .CRT$XTZ                DATA
 0003:00000180 00008c99H .data                   DATA
 0003:00008e20 0556a568H .bss                    DATA
 0004:00000000 00000064H .idata$2                DATA
 0004:00000064 00000014H .idata$3                DATA
 0004:00000078 0000020cH .idata$4                DATA
 0004:00000284 0000020cH .idata$5                DATA
 0004:00000490 000008d6H .idata$6                DATA

  Address         Publics by Value              Rva+Base   Lib:Object

 0001:00000000       ??0TTerrainTemplate@@QAE@XZ 00401000 f template.obj
 0001:00000059       ??1TTerrainTemplate@@QAE@XZ 00401059 f template.obj
 0001:00000077       ?Load@TTerrainTemplate@@QAEHXZ 00401077 f template.obj
 0001:00000644       ?Save@TTerrainTemplate@@QAEHXZ 00401644 f template.obj
 0001:00000863       ?NewTemplate@TTerrainTemplate@@QAEHPAD@Z 00401863 f template.obj
 0001:00000924       ?AddObject@TTerrainTemplate@@QAEHHPAVTObjectInstance@@US3DPoint@@@Z 00401924 f template.obj
 0001:00000a50       ?ApplyTemplate@TTerrainTemplate@@QAEXPAVTObjectInstance@@PAVTSector@@H@Z 00401a50 f template.obj
 0001:00000d80       ??0STemplate@@QAE@XZ       00401d80 f template.obj
 0001:00000db0       ??_H@YGXPAXIHP6EX0@Z@Z     00401db0 f template.obj
 0001:00000de0       ??0SObjectRef@@QAE@XZ      00401de0 f template.obj
 0001:00000e10       ??0S3DPoint@@QAE@XZ        00401e10 f template.obj
 0001:00000e30       ??4S3DPoint@@QAEAAU0@AAU0@@Z 00401e30 f template.obj
 0001:00000e70       ??0TFileParseStream@@QAE@PAU_iobuf@@@Z 00401e70 f template.obj
 0001:00000eb0       ?LineNum@TParseStream@@UAEHXZ 00401eb0 f template.obj
 0001:00000ed0       ??0TParseStream@@QAE@XZ    00401ed0 f template.obj
 0001:00000f00       ?GetChar@TFileParseStream@@UAEHXZ 00401f00 f template.obj
 0001:00000f50       ?Reset@TFileParseStream@@UAEXXZ 00401f50 f template.obj
 0001:00000f80       ?GetPos@TFileParseStream@@UAEKXZ 00401f80 f template.obj
 0001:00000fb0       ?SetPos@TFileParseStream@@UAEXK@Z 00401fb0 f template.obj
 0001:00000fe0       ??0TToken@@QAE@AAVTParseStream@@@Z 00401fe0 f template.obj
 0001:00001050       ?Type@TToken@@QAEHXZ       00402050 f template.obj
 0001:00001070       ?Index@TToken@@QAEHXZ      00402070 f template.obj
 0001:00001090       ?Code@TToken@@QAEHXZ       00402090 f template.obj
 0001:000010b0       ?Text@TToken@@QAEPADXZ     004020b0 f template.obj
 0001:000010d0       ?GetTypeName@TObjectInstance@@QAEPADXZ 004020d0 f template.obj
 0001:00001110       ?GetInfo@TObjectInstance@@QAEPAUSObjectInfo@@XZ 00402110 f template.obj
 0001:00001160       ?GetClass@TObjectClass@@SAPAV1@H@Z 00402160 f template.obj
 0001:00001190       ?GetObjType@TObjectClass@@QAEPAUSObjectInfo@@H@Z 00402190 f template.obj
 0001:000011c0       ??A?$TArray@USObjectInfo@@$0EAA@@@QAEAAUSObjectInfo@@H@Z 004021c0 f template.obj
 0001:00001200       ?GetPos@TObjectInstance@@QAEXAAUS3DPoint@@@Z 00402200 f template.obj
 0001:00001240       ??0SObjectDef@@QAE@XZ      00402240 f template.obj
 0001:00001280       ?AlphaDecompress8@@YAHPAUSDrawBlock@@PAUSDrawParam@@PAK@Z 00402280 f decompress8.obj
 0001:000016a8       ?AlphaStaticZDecompress8@@YAHPAUSDrawBlock@@PAUSDrawParam@@PAK@Z 004026a8 f decompress8.obj
 0001:00001b1a       ?ZBufferDecompress8@@YAHPAUSDrawBlock@@PAUSDrawParam@@PAK@Z 00402b1a f decompress8.obj
 0001:00001ea6       ?ClipZBufferDecompress8@@YAHPAUSDrawBlock@@PAUSDrawParam@@PAK@Z 00402ea6 f decompress8.obj
 0001:00002370       ?SetupDraw816@@YAXPAH00000PAUSDrawBlock@@PAUSDrawParam@@@Z 00403370 f decompress8.obj
 0001:000024dd       ??0T3DLight@@QAE@AAU_D3DLIGHT@@@Z 004034dd f 3dscene.obj
 0001:00002515       ??1T3DLight@@QAE@XZ        00403515 f 3dscene.obj
 0001:00002533       ?Initialize@T3DLight@@QAEHXZ 00403533 f 3dscene.obj
 0001:0000260f       ?Close@T3DLight@@QAEHXZ    0040360f f 3dscene.obj
 0001:0000268f       ?SetIntensity@T3DLight@@QAEXMMM@Z 0040368f f 3dscene.obj
 0001:000026d9       ?SetColor@T3DLight@@QAEXMMM@Z 004036d9 f 3dscene.obj
 0001:0000272d       ?SetPosition@T3DLight@@QAEXMMM@Z 0040372d f 3dscene.obj
 0001:00002777       ??0T3DScene@@QAE@XZ        00403777 f 3dscene.obj
 0001:00002799       ??1T3DScene@@QAE@XZ        00403799 f 3dscene.obj
 0001:000027b7       ?Initialize@T3DScene@@QAEHHHHH@Z 004037b7 f 3dscene.obj
 0001:0000302c       ?Close@T3DScene@@QAEHXZ    0040402c f 3dscene.obj
 0001:0000311f       ?SetCameraPos@T3DScene@@QAEXAAUS3DPoint@@H@Z 0040411f f 3dscene.obj
 0001:00003204       ?DrawScene@T3DScene@@QAEHXZ 00404204 f 3dscene.obj
 0001:00003742       ?AdjustAmbientLight@T3DScene@@QAEXH@Z 00404742 f 3dscene.obj
 0001:00003813       ?SetAmbientLight@T3DScene@@QAEXUSColor@@@Z 00404813 f 3dscene.obj
 0001:000038ec       ?AddLight@T3DScene@@QAEHAAUS3DPoint@@USColor@@H@Z 004048ec f 3dscene.obj
 0001:00003aac       ?DeleteLight@T3DScene@@QAEHH@Z 00404aac f 3dscene.obj
 0001:00003b07       ?SetLightIntensity@T3DScene@@QAEHHH@Z 00404b07 f 3dscene.obj
 0001:00003bb1       ?SetLightColor@T3DScene@@QAEHHUSColor@@@Z 00404bb1 f 3dscene.obj
 0001:00003c83       ?SetLightPosition@T3DScene@@QAEHHAAUS3DPoint@@@Z 00404c83 f 3dscene.obj
 0001:00003d43       ?GetNumLights@T3DScene@@QAEHXZ 00404d43 f 3dscene.obj
 0001:00003d63       ?AddAnimator@T3DScene@@QAEHPAVT3DAnimator@@@Z 00404d63 f 3dscene.obj
 0001:00003d9f       ?RemoveAnimator@T3DScene@@QAEHK@Z 00404d9f f 3dscene.obj
 0001:00003e06       ?GetNumAnimators@T3DScene@@QAEHXZ 00404e06 f 3dscene.obj
 0001:00003e26       ?EnumTextureFormatsCallback@@YGJPAU_DDSURFACEDESC@@PAX@Z 00404e26 f 3dscene.obj
 0001:00003e86       ?SetTargetBitCount@T3DScene@@QAEXH@Z 00404e86 f 3dscene.obj
 0001:00003ea6       ?GetTextureFormats@T3DScene@@QAEXXZ 00404ea6 f 3dscene.obj
 0001:00003ee0       ??0?$TPointerArray@VT3DAnimator@@$0IA@@@QAE@XZ 00404ee0 f 3dscene.obj
 0001:00003f10       ??0?$TPointerArray@VT3DLight@@$0EA@@@QAE@XZ 00404f10 f 3dscene.obj
 0001:00003f40       ?Add@?$TPointerArray@VT3DLight@@$0EA@@@QAEHPAVT3DLight@@@Z 00404f40 f 3dscene.obj
 0001:00003fd0       ?Clear@?$TPointerArray@VT3DAnimator@@$0IA@@@QAEXXZ 00404fd0 f 3dscene.obj
 0001:00003ff0       ?Delete@?$TPointerArray@VT3DLight@@$0EA@@@QAEXH@Z 00404ff0 f 3dscene.obj
 0001:00004080       ?DeleteAll@?$TPointerArray@VT3DLight@@$0EA@@@QAEXXZ 00405080 f 3dscene.obj
 0001:00004110       ??_GT3DLight@@QAEPAXI@Z    00405110 f 3dscene.obj
 0001:00004150       ?NumItems@?$TPointerArray@VT3DAnimator@@$0IA@@@QAEHXZ 00405150 f 3dscene.obj
 0001:00004170       ??A?$TPointerArray@VT3DAnimator@@$0IA@@@QAEPAVT3DAnimator@@H@Z 00405170 f 3dscene.obj
 0001:000041a0       ??A?$TPointerArray@VT3DLight@@$0EA@@@QAEPAVT3DLight@@H@Z 004051a0 f 3dscene.obj
 0001:000041d0       ?NumItems@?$TPointerArray@VT3DLight@@$0EA@@@QAEHXZ 004051d0 f 3dscene.obj
 0001:000041f0       ?Add@?$TPointerArray@VT3DAnimator@@$0IA@@@QAEHPAVT3DAnimator@@@Z 004051f0 f 3dscene.obj
 0001:00004280       ?Remove@?$TPointerArray@VT3DAnimator@@$0IA@@@QAEXH@Z 00405280 f 3dscene.obj
 0001:000042d0       ?RefreshZBuffer@T3DAnimator@@QAEXXZ 004052d0 f 3dscene.obj
 0001:00004370       ??0TWeaponBuilder@@QAE@XZ  00405370 f weapon.obj
 0001:000043a0       ?Build@TWeaponBuilder@@UAEPAVTObjectInstance@@PAVTObjectImagery@@@Z 004053a0 f weapon.obj
 0001:00004440       ??0TWeapon@@QAE@PAVTObjectImagery@@@Z 00405440 f weapon.obj
 0001:000044c0       ?SetFlags@TObjectInstance@@UAEXKK@Z 004054c0 f weapon.obj
 0001:000044f0       ?ResetFlags@TObjectInstance@@UAEXK@Z 004054f0 f weapon.obj
 0001:00004520       ?SetAmount@TObjectInstance@@UAEXH@Z 00405520 f weapon.obj
 0001:00004540       ?GetAmount@TObjectInstance@@UAEHXZ 00405540 f weapon.obj
 0001:00004560       ?SetState@TObjectInstance@@UAEHPAD@Z 00405560 f weapon.obj
 0001:000045a0       ?HasAnimator@TObjectInstance@@UAEHXZ 004055a0 f weapon.obj
 0001:000045e0       ?GetAnimator@TObjectInstance@@UAEPAVTObjectAnimator@@XZ 004055e0 f weapon.obj
 0001:00004600       ?IsInInventory@TObjectInstance@@UAEHXZ 00405600 f weapon.obj
 0001:00004640       ?GetScreenRect@TObjectInstance@@UAEXAAUSRect@@@Z 00405640 f weapon.obj
 0001:00004690       ?DrawUnlit@TObjectInstance@@UAEXPAVTSurface@@@Z 00405690 f weapon.obj
 0001:000046e0       ?GetZ@TObjectInstance@@UAEHPAVTSurface@@@Z 004056e0 f weapon.obj
 0001:00004730       ?DrawInvItem@TObjectInstance@@UAEXHH@Z 00405730 f weapon.obj
 0001:00004780       ?AlwaysOnTop@TObjectInstance@@UAEHXZ 00405780 f weapon.obj
 0001:000047d0       ?GetStillImage@TObjectInstance@@UAEPAVTBitmap@@H@Z 004057d0 f weapon.obj
 0001:00004850       ?GetState@TObjectInstance@@QAEEXZ 00405850 f weapon.obj
 0001:00004870       ?InventoryImage@TObjectInstance@@UAEPAVTBitmap@@XZ 00405870 f weapon.obj
 0001:000048d0       ?IsInventoryItem@TObjectInstance@@UAEHXZ 004058d0 f weapon.obj
 0001:00004940       ?FindState@TObjectInstance@@UAEHPAD@Z 00405940 f weapon.obj
 0001:00004990       ?CommandDone@TObjectInstance@@UAEHXZ 00405990 f weapon.obj
 0001:000049b0       ??_ETWeapon@@UAEPAXI@Z     004059b0 f weapon.obj
 0001:000049b0       ??_GTWeapon@@UAEPAXI@Z     004059b0 f weapon.obj
 0001:000049f0       ??1TWeapon@@UAE@XZ         004059f0 f weapon.obj
 0001:00004a50       ?Build@TWeaponBuilder@@UAEPAVTObjectInstance@@PAVSObjectDef@@PAVTObjectImagery@@@Z 00405a50 f weapon.obj
 0001:00004af0       ??0TWeapon@@QAE@PAVSObjectDef@@PAVTObjectImagery@@@Z 00405af0 f weapon.obj
 0001:00004b70       ?NumSprites@@YAHXZ         00405b70 f spritelist.obj
 0001:00004b82       ?FreeSprites@@YAHXZ        00405b82 f spritelist.obj
 0001:00004b94       ?AllocPlayer@TSpriteList@@IAEPAVTAnimSprite@@PAVTAnimation@@@Z 00405b94 f spritelist.obj
 0001:00004bae       ?FreePlayer@TSpriteList@@IAEXPAVTAnimSprite@@@Z 00405bae f spritelist.obj
 0001:00004bc6       ?AnimationDone@TSpriteList@@IAEHPAVTAnimSprite@@@Z 00405bc6 f spritelist.obj
 0001:00004be0       ?Clear@TSpriteList@@IAEXXZ 00405be0 f spritelist.obj
 0001:00004bf6       ?Animate@TSpriteList@@IAEXPAVTSurface@@@Z 00405bf6 f spritelist.obj
 0001:00004c80       ??0TTileBuilder@@QAE@XZ    00405c80 f tile.obj
 0001:00004cb0       ?Build@TTileBuilder@@UAEPAVTObjectInstance@@PAVTObjectImagery@@@Z 00405cb0 f tile.obj
 0001:00004d50       ??0TTile@@QAE@PAVTObjectImagery@@@Z 00405d50 f tile.obj
 0001:00004dd0       ??_ETTile@@UAEPAXI@Z       00405dd0 f tile.obj
 0001:00004dd0       ??_GTTile@@UAEPAXI@Z       00405dd0 f tile.obj
 0001:00004e10       ??1TTile@@UAE@XZ           00405e10 f tile.obj
 0001:00004e70       ?Build@TTileBuilder@@UAEPAVTObjectInstance@@PAVSObjectDef@@PAVTObjectImagery@@@Z 00405e70 f tile.obj
 0001:00004f10       ??0TTile@@QAE@PAVSObjectDef@@PAVTObjectImagery@@@Z 00405f10 f tile.obj
 0001:00004f90       ?ZBufferDecompress32@@YAHPAUSDrawBlock@@PAUSDrawParam@@@Z 00405f90 f decompress32.obj
 0001:0000532f       ?ClipZBufferDecompress32@@YAHPAUSDrawBlock@@PAUSDrawParam@@@Z 0040632f f decompress32.obj
 0001:00005850       ?SetupDraw32@@YAXPAH00000PAUSDrawBlock@@PAUSDrawParam@@@Z 00406850 f decompress32.obj
 0001:00005940       ??0TBitmapSurface@@QAE@XZ  00406940 f bmsurface.obj
 0001:000059af       ??1TBitmapSurface@@UAE@XZ  004069af f bmsurface.obj
 0001:00005a4c       ?Initialize@TBitmapSurface@@QAEXHHH@Z 00406a4c f bmsurface.obj
 0001:00005b52       ?Initialize@TBitmapSurface@@QAEXPAVTBitmap@@@Z 00406b52 f bmsurface.obj
 0001:00005c4b       ?Rect@TBitmapSurface@@UAEHHHHHAAUSColor@@@Z 00406c4b f bmsurface.obj
 0001:00005c68       ?Rect@TBitmapSurface@@UAEHUSRect@@AAUSColor@@@Z 00406c68 f bmsurface.obj
 0001:00005c85       ?Box@TBitmapSurface@@UAEHHHHHAAUSColor@@@Z 00406c85 f bmsurface.obj
 0001:00005ca2       ?Line@TBitmapSurface@@UAEHHHHHAAUSColor@@@Z 00406ca2 f bmsurface.obj
 0001:00005cbf       ?Copy@TBitmapSurface@@UAEHPAVTBitmap@@@Z 00406cbf f bmsurface.obj
 0001:00005cdc       ?BlitPrimary@TBitmapSurface@@UAEHPAUSDrawParam@@PAVTSurface@@H@Z 00406cdc f bmsurface.obj
 0001:00005d00       ?GetDDSurface@TSurface@@UAEPAUIDirectDrawSurface@@XZ 00406d00 f bmsurface.obj
 0001:00005d20       ?BitsPerPixel@TSurface@@UAEHXZ 00406d20 f bmsurface.obj
 0001:00005d40       ?GetZBuffer@TSurface@@UAEPAV1@XZ 00406d40 f bmsurface.obj
 0001:00005d60       ?GetNormalBuffer@TSurface@@UAEPAV1@XZ 00406d60 f bmsurface.obj
 0001:00005d80       ?SetOrigin@TSurface@@UAEXHH@Z 00406d80 f bmsurface.obj
 0001:00005db0       ?SetClipRect@TSurface@@UAEXHHHH@Z 00406db0 f bmsurface.obj
 0001:00005df0       ?SetClipMode@TSurface@@UAEXH@Z 00406df0 f bmsurface.obj
 0001:00005e20       ?GetDrawCallBack@TSurface@@UAEP6AXPAUSDrawBlock@@PAUSDrawParam@@@ZXZ 00406e20 f bmsurface.obj
 0001:00005e40       ?Lock@TBitmapSurface@@UAEPAXXZ 00406e40 f bmsurface.obj
 0001:00005e70       ?Unlock@TBitmapSurface@@UAEHXZ 00406e70 f bmsurface.obj
 0001:00005e90       ?Lost@TBitmapSurface@@UAEHXZ 00406e90 f bmsurface.obj
 0001:00005eb0       ??_GTBitmapSurface@@UAEPAXI@Z 00406eb0 f bmsurface.obj
 0001:00005eb0       ??_ETBitmapSurface@@UAEPAXI@Z 00406eb0 f bmsurface.obj
 0001:00005f86       ?SetText@TScroll@@QAEXPAD@Z 00406f86 f scroll.obj
 0001:00006011       ?Load@TScroll@@UAEXAAVTInputStream@@@Z 00407011 f scroll.obj
 0001:000060cd       ?Save@TScroll@@UAEXAAVTOutputStream@@@Z 004070cd f scroll.obj
 0001:00006173       ?Use@TScroll@@UAEHH@Z      00407173 f scroll.obj
 0001:000061af       ?ScrollBtnScrollUp@@YAXXZ  004071af f scroll.obj
 0001:000061cb       ?ScrollBtnScrollDown@@YAXXZ 004071cb f scroll.obj
 0001:000061e7       ?ScrollBtnExit@@YAXXZ      004071e7 f scroll.obj
 0001:00006201       ?Initialize@TScrollPane@@UAEHXZ 00407201 f scroll.obj
 0001:000063e2       ?Close@TScrollPane@@UAEXXZ 004073e2 f scroll.obj
 0001:00006454       ?DrawBackground@TScrollPane@@UAEXXZ 00407454 f scroll.obj
 0001:000065f1       ?KeyPress@TScrollPane@@UAEXHH@Z 004075f1 f scroll.obj
 0001:000066a5       ?SetScroll@TScrollPane@@QAEXPAVTScroll@@@Z 004076a5 f scroll.obj
 0001:00006738       ?Scroll@TScrollPane@@QAEXH@Z 00407738 f scroll.obj
 0001:000067e0       ?LoadMulti@TMulti@@SAPAV1@PAD@Z 004077e0 f scroll.obj
 0001:00006800       ??3TMulti@@SAXPAX@Z        00407800 f scroll.obj
 0001:00006820       ?Bitmap@TMulti@@QAEPAVTBitmap@@PAD@Z 00407820 f scroll.obj
 0001:00006850       ?Font@TMulti@@QAEPAVTFont@@PAD@Z 00407850 f scroll.obj
 0001:00006880       ??5TInputStream@@QAEAAV0@AAF@Z 00407880 f scroll.obj
 0001:000068c0       ??5TInputStream@@QAEAAV0@AAD@Z 004078c0 f scroll.obj
 0001:000068f0       ??6TOutputStream@@QAEAAV0@F@Z 004078f0 f scroll.obj
 0001:00006920       ??6TOutputStream@@QAEAAV0@D@Z 00407920 f scroll.obj
 0001:00006950       ?IsDirty@TPane@@QAEHXZ     00407950 f scroll.obj
 0001:00006970       ?RemovePane@TScreen@@QAEPAVTPane@@PAV2@@Z 00407970 f scroll.obj
 0001:000069a0       ?SetExclusivePane@TScreen@@QAEHPAVTPane@@H@Z 004079a0 f scroll.obj
 0001:000069e0       ?ReleaseExclusivePane@TScreen@@QAEXPAVTPane@@@Z 004079e0 f scroll.obj
 0001:00006a10       ?Hide@TButton@@QAEXXZ      00407a10 f scroll.obj
 0001:00006a40       ?SetDirty@TButton@@QAEXXZ  00407a40 f scroll.obj
 0001:00006a60       ?Show@TButton@@QAEXXZ      00407a60 f scroll.obj
 0001:00006a90       ?Button@TButtonPane@@QAEPAVTButton@@H@Z 00407a90 f scroll.obj
 0001:00006ac0       ??A?$TPointerArray@VTButton@@$0EA@@@QAEPAVTButton@@H@Z 00407ac0 f scroll.obj
 0001:00006af0       ?GetText@TScroll@@QAEPADXZ 00407af0 f scroll.obj
 0001:00006b10       ??0TScrollBuilder@@QAE@XZ  00407b10 f scroll.obj
 0001:00006b40       ?Build@TScrollBuilder@@UAEPAVTObjectInstance@@PAVTObjectImagery@@@Z 00407b40 f scroll.obj
 0001:00006be0       ??0TScroll@@QAE@PAVTObjectImagery@@@Z 00407be0 f scroll.obj
 0001:00006c70       ??_ETScroll@@UAEPAXI@Z     00407c70 f scroll.obj
 0001:00006c70       ??_GTScroll@@UAEPAXI@Z     00407c70 f scroll.obj
 0001:00006cb0       ??1TScroll@@UAE@XZ         00407cb0 f scroll.obj
 0001:00006d10       ?Build@TScrollBuilder@@UAEPAVTObjectInstance@@PAVSObjectDef@@PAVTObjectImagery@@@Z 00407d10 f scroll.obj
 0001:00006db0       ??0TScroll@@QAE@PAVSObjectDef@@PAVTObjectImagery@@@Z 00407db0 f scroll.obj
 0001:00006e40       ??0TScrollPane@@QAE@XZ     00407e40 f scroll.obj
 0001:00006e80       ?SetBackgroundBuffer@TPane@@UAEXH@Z 00407e80 f scroll.obj
 0001:00006eb0       ?SetPos@TPane@@UAEXHH@Z    00407eb0 f scroll.obj
 0001:00006ee0       ?SetDirty@TPane@@UAEXH@Z   00407ee0 f scroll.obj
 0001:00006f10       ?Show@TPane@@UAEXXZ        00407f10 f scroll.obj
 0001:00006f50       ?Hide@TPane@@UAEXXZ        00407f50 f scroll.obj
 0001:00006f80       ?SetIgnoreInput@TPane@@UAEXH@Z 00407f80 f scroll.obj
 0001:00006fb0       ?IsHidden@TPane@@UAEHXZ    00407fb0 f scroll.obj
 0001:00006fd0       ?IsIgnoringInput@TPane@@UAEHXZ 00407fd0 f scroll.obj
 0001:00006ff0       ?Animate@TPane@@UAEXH@Z    00407ff0 f scroll.obj
 0001:00007010       ?Overlay@TPane@@UAEXH@Z    00408010 f scroll.obj
 0001:00007030       ?CharPress@TPane@@UAEXHH@Z 00408030 f scroll.obj
 0001:00007050       ?Joystick@TPane@@UAEXHHH@Z 00408050 f scroll.obj
 0001:00007070       ?Command@TPane@@UAEXH@Z    00408070 f scroll.obj
 0001:00007090       ??0TButtonPane@@QAE@HHHH@Z 00408090 f scroll.obj
 0001:000070e0       ??0TPane@@QAE@HHHH@Z       004080e0 f scroll.obj
 0001:00007130       ?Close@TPane@@UAEXXZ       00408130 f scroll.obj
 0001:00007150       ?Update@TPane@@UAEXXZ      00408150 f scroll.obj
 0001:00007170       ?DrawBackground@TPane@@UAEXXZ 00408170 f scroll.obj
 0001:00007190       ?MouseClick@TPane@@UAEXHHH@Z 00408190 f scroll.obj
 0001:000071b0       ?MouseMove@TPane@@UAEXHHH@Z 004081b0 f scroll.obj
 0001:000071d0       ?KeyPress@TPane@@UAEXHH@Z  004081d0 f scroll.obj
 0001:000071f0       ?Update@TButtonPane@@UAEXXZ 004081f0 f scroll.obj
 0001:00007220       ??0?$TPointerArray@VTButton@@$0EA@@@QAE@XZ 00408220 f scroll.obj
 0001:00007250       ??0TPlayScreen@@QAE@XZ     00408250 f playscreen.obj
 0001:000072cc       ?Initialize@TPlayScreen@@UAEHXZ 004082cc f playscreen.obj
 0001:00007794       ?Close@TPlayScreen@@UAEXXZ 00408794 f playscreen.obj
 0001:000078c8       ?DrawBackground@TPlayScreen@@UAEXXZ 004088c8 f playscreen.obj
 0001:000079d3       ?Animate@TPlayScreen@@UAEXH@Z 004089d3 f playscreen.obj
 0001:00007c32       ?KeyPress@TPlayScreen@@UAEXHH@Z 00408c32 f playscreen.obj
 0001:00008041       ?LoadEnvironment@TPlayScreen@@QAEHPADH@Z 00409041 f playscreen.obj
 0001:000081b6       ?SaveEnvironment@TPlayScreen@@QAEHPAD@Z 004091b6 f playscreen.obj
 0001:00008323       ?RedrawInterface@TPlayScreen@@QAEXXZ 00409323 f playscreen.obj
 0001:00008350       ??_GTPlayScreen@@UAEPAXI@Z 00409350 f playscreen.obj
 0001:00008350       ??_ETPlayScreen@@UAEPAXI@Z 00409350 f playscreen.obj
 0001:00008390       ??1TPlayScreen@@UAE@XZ     00409390 f playscreen.obj
 0001:000083f0       ?ptr@OFFSET@@QAEPAXXZ      004093f0 f playscreen.obj
 0001:00008430       ??0S3DPoint@@QAE@HHH@Z     00409430 f playscreen.obj
 0001:00008470       ?Width@TSurface@@QAEHXZ    00409470 f playscreen.obj
 0001:00008490       ?Height@TSurface@@QAEHXZ   00409490 f playscreen.obj
 0001:000084b0       ?FrontBuffer@TDisplay@@QAEPAVTSurface@@XZ 004094b0 f playscreen.obj
 0001:000084d0       ?InCompleteExclusion@TScreen@@QAEHXZ 004094d0 f playscreen.obj
 0001:00008520       ?FreeClasses@TObjectClass@@SAXXZ 00409520 f playscreen.obj
 0001:00008530       ?SetDLightIntensity@TMapPane@@QAEXE@Z 00409530 f playscreen.obj
 0001:00008590       ?GetMapPos@TMapPane@@QAEXAAUS3DPoint@@@Z 00409590 f playscreen.obj
 0001:000085c0       ??0TLogoScreen@@QAE@XZ     004095c0 f logoscreen.obj
 0001:0000863c       ?Initialize@TLogoScreen@@UAEHXZ 0040963c f logoscreen.obj
 0001:00008669       ?InitScreenRestore@TLogoScreen@@QAEXXZ 00409669 f logoscreen.obj
 0001:0000867f       ?Close@TLogoScreen@@UAEXXZ 0040967f f logoscreen.obj
 0001:00008695       ?DrawBackground@TLogoScreen@@UAEXXZ 00409695 f logoscreen.obj
 0001:000086ab       ?Animate@TLogoScreen@@UAEXH@Z 004096ab f logoscreen.obj
 0001:000086c3       ?MouseClick@TLogoScreen@@UAEXHHH@Z 004096c3 f logoscreen.obj
 0001:000086db       ?KeyPress@TLogoScreen@@UAEXHH@Z 004096db f logoscreen.obj
 0001:000086f3       ?Joystick@TLogoScreen@@UAEXHHH@Z 004096f3 f logoscreen.obj
 0001:0000870b       ?Command@TLogoScreen@@UAEXH@Z 0040970b f logoscreen.obj
 0001:00008723       ?ShowScreen@TLogoScreen@@SAPAVTScreen@@PAV2@H@Z 00409723 f logoscreen.obj
 0001:000087eb       ?TimerTick@TLogoScreen@@UAEHH@Z 004097eb f logoscreen.obj
 0001:00008906       ?TimerLoop@TLogoScreen@@UAEHJ@Z 00409906 f logoscreen.obj
 0001:000089a0       ??_GTLogoScreen@@UAEPAXI@Z 004099a0 f logoscreen.obj
 0001:000089a0       ??_ETLogoScreen@@UAEPAXI@Z 004099a0 f logoscreen.obj
 0001:000089e0       ??1TLogoScreen@@UAE@XZ     004099e0 f logoscreen.obj
 0001:00008a40       ?ClockTicks@TTimer@@QAEHXZ 00409a40 f logoscreen.obj
 0001:00008a60       ?Hwnd@TMainWindow@@QAEPAXXZ 00409a60 f logoscreen.obj
 0001:00008a80       ?GetNextScreen@TScreen@@QAEPAV1@XZ 00409a80 f logoscreen.obj
 0001:00008b07       ?ClearObject@TPlayer@@UAEXXZ 00409b07 f player.obj
 0001:00008b71       ?TryPickup@TPlayer@@UAEHPAUSActionBlock@@H@Z 00409b71 f player.obj
 0001:00008c22       ?Move@TPlayer@@UAEKXZ      00409c22 f player.obj
 0001:00008d22       ?GetOnYerHog@TPlayer@@QAEXXZ 00409d22 f player.obj
 0001:00008ea0       ??0TPlayerBuilder@@QAE@XZ  00409ea0 f player.obj
 0001:00008ed0       ?Build@TPlayerBuilder@@UAEPAVTObjectInstance@@PAVTObjectImagery@@@Z 00409ed0 f player.obj
 0001:00008f70       ??0TPlayer@@QAE@PAVTObjectImagery@@@Z 00409f70 f player.obj
 0001:00008ff0       ?GetZ@TPlayer@@UAEHPAVTSurface@@@Z 00409ff0 f player.obj
 0001:00009010       ?AlwaysOnTop@TPlayer@@UAEHXZ 0040a010 f player.obj
 0001:00009030       ??_GTPlayer@@UAEPAXI@Z     0040a030 f player.obj
 0001:00009030       ??_ETPlayer@@UAEPAXI@Z     0040a030 f player.obj
 0001:00009070       ??1TCharacter@@UAE@XZ      0040a070 f player.obj
 0001:000090d0       ??1TPlayer@@UAE@XZ         0040a0d0 f player.obj
 0001:00009130       ?Build@TPlayerBuilder@@UAEPAVTObjectInstance@@PAVSObjectDef@@PAVTObjectImagery@@@Z 0040a130 f player.obj
 0001:000091d0       ??0TPlayer@@QAE@PAVSObjectDef@@PAVTObjectImagery@@@Z 0040a1d0 f player.obj
 0001:00009280       ??0TMultiAnimImageryBuilder@@QAE@XZ 0040a280 f multianimimage.obj
 0001:000092b0       ?Build@TMultiAnimImageryBuilder@@UAEPAVTObjectImagery@@H@Z 0040a2b0 f multianimimage.obj
 0001:00009350       ??0TMultiAnimImagery@@QAE@H@Z 0040a350 f multianimimage.obj
 0001:000093d0       ?DrawLight@TObjectImagery@@UAEXPAVTObjectInstance@@PAVTSurface@@@Z 0040a3d0 f multianimimage.obj
 0001:000093f0       ?SaveHeader@TObjectImagery@@UAEXXZ 0040a3f0 f multianimimage.obj
 0001:00009420       ?NumStates@TObjectImagery@@UAEHXZ 0040a420 f multianimimage.obj
 0001:00009450       ?SetHeaderDirty@TObjectImagery@@UAEXH@Z 0040a450 f multianimimage.obj
 0001:00009480       ?GetHeaderDirty@TObjectImagery@@UAEHXZ 0040a480 f multianimimage.obj
 0001:000094a0       ?SetBodyDirty@TObjectImagery@@UAEXH@Z 0040a4a0 f multianimimage.obj
 0001:000094d0       ?GetBodyDirty@TObjectImagery@@UAEHXZ 0040a4d0 f multianimimage.obj
 0001:000094f0       ?GetWalkMap@TObjectImagery@@UAEPAEH@Z 0040a4f0 f multianimimage.obj
 0001:00009550       ?GetRegX@TObjectImagery@@UAEHH@Z 0040a550 f multianimimage.obj
 0001:000095a0       ?GetRegY@TObjectImagery@@UAEHH@Z 0040a5a0 f multianimimage.obj
 0001:000095f0       ?GetRegZ@TObjectImagery@@UAEHH@Z 0040a5f0 f multianimimage.obj
 0001:00009640       ?SetReg@TObjectImagery@@UAEXHHHH@Z 0040a640 f multianimimage.obj
 0001:000096d0       ?GetAnimRegX@TObjectImagery@@UAEHH@Z 0040a6d0 f multianimimage.obj
 0001:00009720       ?GetAnimRegY@TObjectImagery@@UAEHH@Z 0040a720 f multianimimage.obj
 0001:00009770       ?GetAnimRegZ@TObjectImagery@@UAEHH@Z 0040a770 f multianimimage.obj
 0001:000097c0       ?SetAnimReg@TObjectImagery@@UAEXHHHH@Z 0040a7c0 f multianimimage.obj
 0001:00009850       ?GetFlags@TObjectImagery@@UAEHH@Z 0040a850 f multianimimage.obj
 0001:00009880       ?GetAniFlags@TObjectImagery@@UAEHH@Z 0040a880 f multianimimage.obj
 0001:000098c0       ?GetAniLength@TObjectImagery@@UAEHH@Z 0040a8c0 f multianimimage.obj
 0001:00009900       ?GetInvAniFlags@TObjectImagery@@UAEHH@Z 0040a900 f multianimimage.obj
 0001:00009940       ?GetInvAniLength@TObjectImagery@@UAEHH@Z 0040a940 f multianimimage.obj
 0001:00009980       ?GetWidth@TObjectImagery@@UAEHH@Z 0040a980 f multianimimage.obj
 0001:000099d0       ?GetHeight@TObjectImagery@@UAEHH@Z 0040a9d0 f multianimimage.obj
 0001:00009a20       ?SetWidthHeight@TObjectImagery@@UAEXHHH@Z 0040aa20 f multianimimage.obj
 0001:00009aa0       ?GetWorldBoundBox@TObjectImagery@@UAEXHAAH00@Z 0040aaa0 f multianimimage.obj
 0001:00009b30       ?GetWorldRegX@TObjectImagery@@UAEHH@Z 0040ab30 f multianimimage.obj
 0001:00009b80       ?GetWorldRegY@TObjectImagery@@UAEHH@Z 0040ab80 f multianimimage.obj
 0001:00009bd0       ?GetWorldRegZ@TObjectImagery@@UAEHH@Z 0040abd0 f multianimimage.obj
 0001:00009c20       ?SetWorldReg@TObjectImagery@@UAEXHHHH@Z 0040ac20 f multianimimage.obj
 0001:00009cb0       ?GetObjName@TObjectImagery@@UAEPADH@Z 0040acb0 f multianimimage.obj
 0001:00009cd0       ?GetWeaponObj@TObjectImagery@@UAEHXZ 0040acd0 f multianimimage.obj
 0001:00009cf0       ?GetNumObjs@TObjectImagery@@UAEHXZ 0040acf0 f multianimimage.obj
 0001:00009d10       ??0TAnimImagery@@QAE@H@Z   0040ad10 f multianimimage.obj
 0001:00009d90       ??1TAnimImagery@@UAE@XZ    0040ad90 f multianimimage.obj
 0001:00009e00       ?GetStillImage@TAnimImagery@@UAEPAVTBitmap@@HH@Z 0040ae00 f multianimimage.obj
 0001:00009e30       ?GetAnimState@TAnimImagery@@QAEPAUSAnimImageryState@@H@Z 0040ae30 f multianimimage.obj
 0001:00009e60       ?GetBody@TObjectImagery@@QAEPAUSImageryBody@@XZ 0040ae60 f multianimimage.obj
 0001:00009eb0       ?GetInvImage@TAnimImagery@@UAEPAVTBitmap@@HH@Z 0040aeb0 f multianimimage.obj
 0001:00009ee0       ?GetInvAnimation@TAnimImagery@@UAEPAVTAnimation@@H@Z 0040aee0 f multianimimage.obj
 0001:00009f10       ?GetAnimation@TAnimImagery@@UAEPAVTAnimation@@H@Z 0040af10 f multianimimage.obj
 0001:00009f40       ?GetImageFlags@TAnimImagery@@UAEKH@Z 0040af40 f multianimimage.obj
 0001:00009f70       ??_ETAnimImagery@@UAEPAXI@Z 0040af70 f multianimimage.obj
 0001:00009f70       ??_GTAnimImagery@@UAEPAXI@Z 0040af70 f multianimimage.obj
 0001:00009fb0       ?GetStillImage@TMultiAnimImagery@@UAEPAVTBitmap@@HH@Z 0040afb0 f multianimimage.obj
 0001:00009fe0       ?GetAnimState@TMultiAnimImagery@@QAEPAUSMultiAnimImageryState@@H@Z 0040afe0 f multianimimage.obj
 0001:0000a010       ?GetInvImage@TMultiAnimImagery@@UAEPAVTBitmap@@HH@Z 0040b010 f multianimimage.obj
 0001:0000a040       ?GetAnimation@TMultiAnimImagery@@UAEPAVTAnimation@@H@Z 0040b040 f multianimimage.obj
 0001:0000a070       ?GetImageFlags@TMultiAnimImagery@@UAEKH@Z 0040b070 f multianimimage.obj
 0001:0000a0a0       ??_GTMultiAnimImagery@@UAEPAXI@Z 0040b0a0 f multianimimage.obj
 0001:0000a0a0       ??_ETMultiAnimImagery@@UAEPAXI@Z 0040b0a0 f multianimimage.obj
 0001:0000a0e0       ??1TMultiAnimImagery@@UAE@XZ 0040b0e0 f multianimimage.obj
 0001:0000a1c0       ??0TToolBuilder@@QAE@XZ    0040b1c0 f tool.obj
 0001:0000a1f0       ?Build@TToolBuilder@@UAEPAVTObjectInstance@@PAVTObjectImagery@@@Z 0040b1f0 f tool.obj
 0001:0000a290       ??0TTool@@QAE@PAVTObjectImagery@@@Z 0040b290 f tool.obj
 0001:0000a310       ??_GTTool@@UAEPAXI@Z       0040b310 f tool.obj
 0001:0000a310       ??_ETTool@@UAEPAXI@Z       0040b310 f tool.obj
 0001:0000a350       ??1TTool@@UAE@XZ           0040b350 f tool.obj
 0001:0000a3b0       ?Build@TToolBuilder@@UAEPAVTObjectInstance@@PAVSObjectDef@@PAVTObjectImagery@@@Z 0040b3b0 f tool.obj
 0001:0000a450       ??0TTool@@QAE@PAVSObjectDef@@PAVTObjectImagery@@@Z 0040b450 f tool.obj
 0001:0000ac6b       ?InitSystem@@YAXXZ         0040bc6b f exlmain.obj
 0001:0000acb3       ?CloseSystem@@YAXXZ        0040bcb3 f exlmain.obj
 0001:0000ad6b       ?FatalError@@YAXPAD0@Z     0040bd6b f exlmain.obj
 0001:0000ae2c       ?Error@@YAXPAD0@Z          0040be2c f exlmain.obj
 0001:0000ae4c       ??2@YAPAXI@Z               0040be4c f exlmain.obj
 0001:0000aea1       ??3@YAXPAX@Z               0040bea1 f exlmain.obj
 0001:0000aebd       ?AllocMem@@YAPAXK@Z        0040bebd f exlmain.obj
 0001:0000aed9       ?FreeMem@@YAXPAX@Z         0040bed9 f exlmain.obj
 0001:0000aef5       ?random@@YAHHH@Z           0040bef5 f exlmain.obj
 0001:0000af55       ?GetProgramPaths@@YAXPAD00@Z 0040bf55 f exlmain.obj
 0001:0000b0f4       ?GetParameters@@YAXPAD@Z   0040c0f4 f exlmain.obj
 0001:0000b1bc       ?InitLanguage@@YAHXZ       0040c1bc f exlmain.obj
 0001:0000b1d1       _WinMain@16                0040c1d1 f exlmain.obj
 0001:0000b3a0       ??1TScriptManager@@QAE@XZ  0040c3a0 f exlmain.obj
 0001:0000b400       ??0TMapPane@@QAE@XZ        0040c400 f exlmain.obj
 0001:0000b4a0       ??0SRect@@QAE@XZ           0040c4a0 f exlmain.obj
 0001:0000b4c0       ??0SLightDef@@QAE@XZ       0040c4c0 f exlmain.obj
 0001:0000b4f0       ??1TMapPane@@QAE@XZ        0040c4f0 f exlmain.obj
 0001:0000b510       ?Update@TMapPane@@UAEXXZ   0040c510 f exlmain.obj
 0001:0000b540       ??0SBgUpdateRect@@QAE@XZ   0040c540 f exlmain.obj
 0001:0000b570       ??0TAutoMap@@QAE@XZ        0040c570 f exlmain.obj
 0001:0000b5b0       ??1TAutoMap@@QAE@XZ        0040c5b0 f exlmain.obj
 0001:0000b5d0       ??0TInventory@@QAE@XZ      0040c5d0 f exlmain.obj
 0001:0000b620       ??1TInventory@@QAE@XZ      0040c620 f exlmain.obj
 0001:0000b640       ?Show@TInventory@@UAEXXZ   0040c640 f exlmain.obj
 0001:0000b670       ??0TMainWindow@@QAE@XZ     0040c670 f exlmain.obj
 0001:0000b6a0       ??_ETMainWindow@@UAEPAXI@Z 0040c6a0 f exlmain.obj
 0001:0000b6a0       ??_GTMainWindow@@UAEPAXI@Z 0040c6a0 f exlmain.obj
 0001:0000b6e0       ??0TSaveGame@@QAE@XZ       0040c6e0 f exlmain.obj
 0001:0000b710       ?LoadFont@TFont@@SAPAV1@H@Z 0040c710 f exlmain.obj
 0001:0000b740       ??0TEquipPane@@QAE@XZ      0040c740 f exlmain.obj
 0001:0000b780       ??0TMultiCtrlPane@@QAE@XZ  0040c780 f exlmain.obj
 0001:0000b7c0       ??1TMultiCtrlPane@@QAE@XZ  0040c7c0 f exlmain.obj
 0001:0000b7e0       ??0TSpellPane@@QAE@XZ      0040c7e0 f exlmain.obj
 0001:0000b820       ??1TSpellPane@@QAE@XZ      0040c820 f exlmain.obj
 0001:0000b840       ??0TQuickSpellPane@@QAE@XZ 0040c840 f exlmain.obj
 0001:0000b880       ??1TQuickSpellPane@@QAE@XZ 0040c880 f exlmain.obj
 0001:0000b8a0       ??0TStatPane@@QAE@XZ       0040c8a0 f exlmain.obj
 0001:0000b8e0       ??1TStatPane@@QAE@XZ       0040c8e0 f exlmain.obj
 0001:0000b900       ??1TGameState@@QAE@XZ      0040c900 f exlmain.obj
 0001:0000b970       ??0TScriptManager@@QAE@XZ  0040c970 f exlmain.obj
 0001:0000b9f0       ??0TGameState@@QAE@XZ      0040c9f0 f exlmain.obj
 0001:0000ba20       ??0TTextBar@@QAE@XZ        0040ca20 f exlmain.obj
 0001:0000ba60       ??0THealthBar@@QAE@XZ      0040ca60 f exlmain.obj
 0001:0000baa0       ??0TStatusBar@@QAE@HHHH@Z  0040caa0 f exlmain.obj
 0001:0000bae0       ??0TStaminaBar@@QAE@XZ     0040cae0 f exlmain.obj
 0001:0000bb20       ??0TSoundPlayer@@QAE@XZ    0040cb20 f exlmain.obj
 0001:0000bb60       ??1TSoundPlayer@@QAE@XZ    0040cb60 f exlmain.obj
 0001:0000bbf0       ??0THelperBuilder@@QAE@XZ  0040cbf0 f helper.obj
 0001:0000bc20       ?Build@THelperBuilder@@UAEPAVTObjectInstance@@PAVTObjectImagery@@@Z 0040cc20 f helper.obj
 0001:0000bcc0       ??0THelper@@QAE@PAVTObjectImagery@@@Z 0040ccc0 f helper.obj
 0001:0000bd40       ??_GTHelper@@UAEPAXI@Z     0040cd40 f helper.obj
 0001:0000bd40       ??_ETHelper@@UAEPAXI@Z     0040cd40 f helper.obj
 0001:0000bd80       ??1THelper@@UAE@XZ         0040cd80 f helper.obj
 0001:0000bde0       ?Build@THelperBuilder@@UAEPAVTObjectInstance@@PAVSObjectDef@@PAVTObjectImagery@@@Z 0040cde0 f helper.obj
 0001:0000be80       ??0THelper@@QAE@PAVSObjectDef@@PAVTObjectImagery@@@Z 0040ce80 f helper.obj
 0001:0000bf00       ?Initialize@TAutoMap@@UAEHXZ 0040cf00 f automap.obj
 0001:0000bf68       ?Close@TAutoMap@@UAEXXZ    0040cf68 f automap.obj
 0001:0000bf7e       ?DrawBackground@TAutoMap@@UAEXXZ 0040cf7e f automap.obj
 0001:0000c060       ?Put@TSurface@@QAEHHHPAVTBitmap@@HHHHK@Z 0040d060 f automap.obj
 0001:0000c0b0       ?MakeDP@@YAXAAUSDrawParam@@HHHHHHK@Z 0040d0b0 f automap.obj
 0001:0000c180       ?MultiUpdate@TPlayScreen@@QAEXXZ 0040d180 f automap.obj
 0001:0000c1b0       ?TimerCallback@TTimer@@SGXIIKKK@Z 0040d1b0 f timer.obj
 0001:0000c1d2       ??0TTimer@@QAE@XZ          0040d1d2 f timer.obj
 0001:0000c1fe       ??1TTimer@@QAE@XZ          0040d1fe f timer.obj
 0001:0000c23b       ?Close@TTimer@@QAEHXZ      0040d23b f timer.obj
 0001:0000c2a3       ?Initialize@TTimer@@QAEHXZ 0040d2a3 f timer.obj
 0001:0000c3c0       ??0TRangedWeaponBuilder@@QAE@XZ 0040d3c0 f rangedweapon.obj
 0001:0000c3f0       ?Build@TRangedWeaponBuilder@@UAEPAVTObjectInstance@@PAVTObjectImagery@@@Z 0040d3f0 f rangedweapon.obj
 0001:0000c490       ??0TRangedWeapon@@QAE@PAVTObjectImagery@@@Z 0040d490 f rangedweapon.obj
 0001:0000c510       ??_GTRangedWeapon@@UAEPAXI@Z 0040d510 f rangedweapon.obj
 0001:0000c510       ??_ETRangedWeapon@@UAEPAXI@Z 0040d510 f rangedweapon.obj
 0001:0000c550       ??1TRangedWeapon@@UAE@XZ   0040d550 f rangedweapon.obj
 0001:0000c5b0       ?Build@TRangedWeaponBuilder@@UAEPAVTObjectInstance@@PAVSObjectDef@@PAVTObjectImagery@@@Z 0040d5b0 f rangedweapon.obj
 0001:0000c650       ??0TRangedWeapon@@QAE@PAVSObjectDef@@PAVTObjectImagery@@@Z 0040d650 f rangedweapon.obj
 0001:0000c740       ??0TArmorBuilder@@QAE@XZ   0040d740 f armor.obj
 0001:0000c770       ?Build@TArmorBuilder@@UAEPAVTObjectInstance@@PAVTObjectImagery@@@Z 0040d770 f armor.obj
 0001:0000c810       ??0TArmor@@QAE@PAVTObjectImagery@@@Z 0040d810 f armor.obj
 0001:0000c890       ??_GTArmor@@UAEPAXI@Z      0040d890 f armor.obj
 0001:0000c890       ??_ETArmor@@UAEPAXI@Z      0040d890 f armor.obj
 0001:0000c8d0       ??1TArmor@@UAE@XZ          0040d8d0 f armor.obj
 0001:0000c930       ?Build@TArmorBuilder@@UAEPAVTObjectInstance@@PAVSObjectDef@@PAVTObjectImagery@@@Z 0040d930 f armor.obj
 0001:0000c9d0       ??0TArmor@@QAE@PAVSObjectDef@@PAVTObjectImagery@@@Z 0040d9d0 f armor.obj
 0001:0000ca50       ??0TOutputStream@@QAE@HH@Z 0040da50 f Stream.obj
 0001:0000ca96       ??1TOutputStream@@QAE@XZ   0040da96 f Stream.obj
 0001:0000cac6       ?MakeFreeSpace@TOutputStream@@QAEXH@Z 0040dac6 f Stream.obj
 0001:0000cb40       ?DataSize@TOutputStream@@QAEHXZ 0040db40 f Stream.obj
 0001:0000cb70       ?Reset@TOutputStream@@QAEXXZ 0040db70 f Stream.obj
 0001:0000cba0       ??0TLightningAnimator@@QAE@PAVTObjectInstance@@@Z 0040dba0 f lightninganim.obj
 0001:0000cc91       ?Animate@TLightningAnimator@@UAEXH@Z 0040dc91 f lightninganim.obj
 0001:0000cf50       ??1TLightningAnimator@@UAE@XZ 0040df50 f lightninganim.obj
 0001:0000cfc0       ??_GTLightningAnimator@@UAEPAXI@Z 0040dfc0 f lightninganim.obj
 0001:0000cfc0       ??_ETLightningAnimator@@UAEPAXI@Z 0040dfc0 f lightninganim.obj
 0001:0000d000       ?CheckIntersect@TObjectAnimator@@UAEHHPAV1@H@Z 0040e000 f lightninganim.obj
 0001:0000d020       ?GetScreenX@TObjectInstance@@QAEHXZ 0040e020 f lightninganim.obj
 0001:0000d050       ?GetScreenY@TObjectInstance@@QAEHXZ 0040e050 f lightninganim.obj
 0001:0000d080       ?GetScreenX2@TLightningInst@@QAEHXZ 0040e080 f lightninganim.obj
 0001:0000d0c0       ?GetScreenY2@TLightningInst@@QAEHXZ 0040e0c0 f lightninganim.obj
 0001:0000d100       ??0TVideoSurface@@QAE@XZ   0040e100 f ddsurface.obj
 0001:0000d179       ?Initialize@TVideoSurface@@QAEXHH@Z 0040e179 f ddsurface.obj
 0001:0000d278       ?Initialize@TVideoSurface@@QAEXHHPAUIDirectDrawSurface@@@Z 0040e278 f ddsurface.obj
 0001:0000d346       ?Initialize@TVideoSurface@@QAEXPAVTBitmap@@H@Z 0040e346 f ddsurface.obj
 0001:0000d3d2       ?Close@TVideoSurface@@QAEXXZ 0040e3d2 f ddsurface.obj
 0001:0000d41e       ??1TVideoSurface@@UAE@XZ   0040e41e f ddsurface.obj
 0001:0000d48e       ?Restore@TVideoSurface@@UAEHXZ 0040e48e f ddsurface.obj
 0001:0000d509       ?Lock@TVideoSurface@@UAEPAXXZ 0040e509 f ddsurface.obj
 0001:0000d67e       ?Unlock@TVideoSurface@@UAEHXZ 0040e67e f ddsurface.obj
 0001:0000d722       ?Rect@TVideoSurface@@UAEHHHHHAAUSColor@@@Z 0040e722 f ddsurface.obj
 0001:0000d7fa       ?Rect@TVideoSurface@@UAEHUSRect@@AAUSColor@@@Z 0040e7fa f ddsurface.obj
 0001:0000d8ba       ?Box@TVideoSurface@@UAEHHHHHAAUSColor@@@Z 0040e8ba f ddsurface.obj
 0001:0000d8d7       ?Line@TVideoSurface@@UAEHHHHHAAUSColor@@@Z 0040e8d7 f ddsurface.obj
 0001:0000da98       ?BltDraw@TVideoSurface@@AAEHPAUSDrawBlock@@PAUSDrawParam@@PAVTSurface@@@Z 0040ea98 f ddsurface.obj
 0001:0000df17       ?BlitPrimary@TVideoSurface@@UAEHPAUSDrawParam@@PAVTSurface@@H@Z 0040ef17 f ddsurface.obj
 0001:0000dff0       ?Stride@TSurface@@QAEHXZ   0040eff0 f ddsurface.obj
 0001:0000e010       ?KeyColor@TSurface@@QAEHXZ 0040f010 f ddsurface.obj
 0001:0000e030       ?GetDDSurface@TVideoSurface@@UAEPAUIDirectDrawSurface@@XZ 0040f030 f ddsurface.obj
 0001:0000e050       ?Lost@TVideoSurface@@UAEHXZ 0040f050 f ddsurface.obj
 0001:0000e070       ??_ETVideoSurface@@UAEPAXI@Z 0040f070 f ddsurface.obj
 0001:0000e070       ??_GTVideoSurface@@UAEPAXI@Z 0040f070 f ddsurface.obj
 0001:0000e0b0       ?ScriptError@@YAXPADH@Z    0040f0b0 f script.obj
 0001:0000e0e8       ?SkipBlock@@YAXAAVTToken@@@Z 0040f0e8 f script.obj
 0001:0000e19d       ??0TScript@@QAE@PAVTScriptProto@@@Z 0040f19d f script.obj
 0001:0000e1fc       ??1TScript@@QAE@XZ         0040f1fc f script.obj
 0001:0000e212       ?Load@TScript@@QAEHPAD@Z   0040f212 f script.obj
 0001:0000e22f       ?Save@TScript@@QAEHPAD@Z   0040f22f f script.obj
 0001:0000e24c       ?Start@TScript@@QAEXPADH@Z 0040f24c f script.obj
 0001:0000e2f7       ?Triggered@@YAHAAVTToken@@PAVTObjectInstance@@@Z 0040f2f7 f script.obj
 0001:0000e4bb       ?Continue@TScript@@QAEXPAVTObjectInstance@@@Z 0040f4bb f script.obj
 0001:0000e9c0       ?Break@TScript@@QAEXXZ     0040f9c0 f script.obj
 0001:0000e9e0       ?Resume@TScript@@QAEXXZ    0040f9e0 f script.obj
 0001:0000ea00       ?End@TScript@@QAEXXZ       0040fa00 f script.obj
 0001:0000ea2a       ?FitsCriteria@TScriptProto@@QAEHPAVTObjectInstance@@@Z 0040fa2a f script.obj
 0001:0000eaec       ?SetBuffer@TScriptProto@@QAEXPAD@Z 0040faec f script.obj
 0001:0000eb16       ?ParseCriteria@TScriptProto@@QAEHAAVTToken@@@Z 0040fb16 f script.obj
 0001:0000ec21       ?ParseScript@TScriptProto@@QAEHPAD@Z 0040fc21 f script.obj
 0001:0000ee09       ?WriteScript@TScriptProto@@QAEHPAU_iobuf@@@Z 0040fe09 f script.obj
 0001:0000eee8       ?Load@TGameState@@QAEHPAD@Z 0040fee8 f script.obj
 0001:0000f078       ?Save@TGameState@@QAEHPAD@Z 00410078 f script.obj
 0001:0000f095       ?Initialize@TScriptManager@@QAEHXZ 00410095 f script.obj
 0001:0000f0e1       ?Close@TScriptManager@@QAEXXZ 004100e1 f script.obj
 0001:0000f172       ?Load@TScriptManager@@QAEHPAD@Z 00410172 f script.obj
 0001:0000f246       ?Save@TScriptManager@@QAEHPAD@Z 00410246 f script.obj
 0001:0000f2dd       ?ParseScripts@TScriptManager@@QAEXPAD@Z 004102dd f script.obj
 0001:0000f3c0       ?ObjectScript@TScriptManager@@QAEPAVTScript@@PAVTObjectInstance@@@Z 004103c0 f script.obj
 0001:0000f4a0       ??_GTScriptProto@@QAEPAXI@Z 004104a0 f script.obj
 0001:0000f4e0       ??0TStringParseStream@@QAE@PADH@Z 004104e0 f script.obj
 0001:0000f530       ?GetChar@TStringParseStream@@UAEHXZ 00410530 f script.obj
 0001:0000f590       ?Reset@TStringParseStream@@UAEXXZ 00410590 f script.obj
 0001:0000f5c0       ?GetPos@TStringParseStream@@UAEKXZ 004105c0 f script.obj
 0001:0000f5e0       ?SetPos@TStringParseStream@@UAEXK@Z 004105e0 f script.obj
 0001:0000f610       ?LineNum@TStringParseStream@@UAEHXZ 00410610 f script.obj
 0001:0000f670       ?LineNum@TToken@@QAEHXZ    00410670 f script.obj
 0001:0000f6b0       ??0TScriptProto@@QAE@XZ    004106b0 f script.obj
 0001:0000f6f0       ??1TScriptProto@@QAE@XZ    004106f0 f script.obj
 0001:0000f760       ?GetName@TObjectInstance@@QAEPADXZ 00410760 f script.obj
 0001:0000f780       ?SetMouseBitmap@@YAXPAVTBitmap@@@Z 00410780 f cursor.obj
 0001:0000f7a2       ?SetMouseAnim@@YAXPAVTAnimation@@@Z 004107a2 f cursor.obj
 0001:0000f7c4       ?SetDragBitmap@@YAXPAVTBitmap@@HH@Z 004107c4 f cursor.obj
 0001:0000f7ec       ?ClearDragBitmap@@YAXXZ    004107ec f cursor.obj
 0001:0000f806       ?DrawMouseCursor@@YAXXZ    00410806 f cursor.obj
 0001:0000f8b0       ?Initialize@TStatusBar@@UAEHXZ 004108b0 f statusbar.obj
 0001:0000f8d5       ?Close@TStatusBar@@UAEXXZ  004108d5 f statusbar.obj
 0001:0000f913       ?DrawBackground@TStatusBar@@UAEXXZ 00410913 f statusbar.obj
 0001:0000f9be       ?Initialize@THealthBar@@UAEHXZ 004109be f statusbar.obj
 0001:0000fa08       ?DrawBackground@THealthBar@@UAEXXZ 00410a08 f statusbar.obj
 0001:0000fa98       ?Initialize@TStaminaBar@@UAEHXZ 00410a98 f statusbar.obj
 0001:0000fae2       ?DrawBackground@TStaminaBar@@UAEXXZ 00410ae2 f statusbar.obj
 0001:0000fb8f       ??0T3DImagery@@QAE@H@Z     00410b8f f 3dimage.obj
 0001:0000fc58       ??1T3DImagery@@UAE@XZ      00410c58 f 3dimage.obj
 0001:0000fcc8       ?InitializeMesh@T3DImagery@@QAEHPAUS3DImageryBody@@@Z 00410cc8 f 3dimage.obj
 0001:00010674       ?ClearMesh@T3DImagery@@QAEXXZ 00411674 f 3dimage.obj
 0001:0001082c       ?RefreshZBuffer@T3DImagery@@QAEXPAVTObjectInstance@@@Z 0041182c f 3dimage.obj
 0001:0001091a       ?Render@T3DImagery@@UAEHPAVTObjectInstance@@AAU_D3DMATRIX@@HHAAU_D3DRECT@@PAUS3DRect@@3@Z 0041191a f 3dimage.obj
 0001:00010ef6       ?LoadTexture@T3DImagery@@QAEHHPAU_DDSURFACEDESC@@PAXPAUtagPALETTEENTRY@@H@Z 00411ef6 f 3dimage.obj
 0001:0001171e       ?ReleaseTexture@T3DImagery@@QAEXH@Z 0041271e f 3dimage.obj
 0001:00011825       ?SurfacesLost@T3DImagery@@QAEHXZ 00412825 f 3dimage.obj
 0001:0001183d       ?RestoreSurfaces@T3DImagery@@QAEXXZ 0041283d f 3dimage.obj
 0001:00011853       ?GetZ@T3DImagery@@UAEHPAVTObjectInstance@@PAVTSurface@@@Z 00412853 f 3dimage.obj
 0001:00011870       ?NewObjectAnimator@T3DImagery@@UAEPAVTObjectAnimator@@PAVTObjectInstance@@@Z 00412870 f 3dimage.obj
 0001:0001190a       ??0T3DAnimator@@QAE@PAVTObjectInstance@@@Z 0041290a f 3dimage.obj
 0001:00011a18       ??1T3DAnimator@@UAE@XZ     00412a18 f 3dimage.obj
 0001:00011a91       ?Animate@T3DAnimator@@UAEXH@Z 00412a91 f 3dimage.obj
 0001:00011c90       ?SurfacesLost@T3DAnimator@@UAEHXZ 00412c90 f 3dimage.obj
 0001:00011cb1       ?RestoreSurfaces@T3DAnimator@@UAEXXZ 00412cb1 f 3dimage.obj
 0001:00011cd2       ?Render@T3DAnimator@@UAEHXZ 00412cd2 f 3dimage.obj
 0001:00011e5f       ?GetExtents@T3DAnimator@@QAEXAAUSRect@@@Z 00412e5f f 3dimage.obj
 0001:00011ea6       ?Angle@@YAHHH@Z            00412ea6 f 3dimage.obj
 0001:00011f64       ?Distance@@YAHHH@Z         00412f64 f 3dimage.obj
 0001:00011fc8       ?GetObjBoundParams@T3DAnimator@@QAEXHAAUSBoundParams@@@Z 00412fc8 f 3dimage.obj
 0001:00012234       ?CheckIntersect@T3DAnimator@@UAEHHPAVTObjectAnimator@@H@Z 00413234 f 3dimage.obj
 0001:0001241f       ??0T3DHelperImagery@@QAE@H@Z 0041341f f 3dimage.obj
 0001:000124a1       ??1T3DHelperImagery@@UAE@XZ 004134a1 f 3dimage.obj
 0001:00012511       ?Render@T3DHelperImagery@@UAEHPAVTObjectInstance@@AAU_D3DMATRIX@@HHAAU_D3DRECT@@PAUS3DRect@@3@Z 00413511 f 3dimage.obj
 0001:00012bc0       ?SetWorldBoundBox@T3DHelperImagery@@UAEXHHHH@Z 00413bc0 f 3dimage.obj
 0001:00012c60       ??_GT3DImagery@@UAEPAXI@Z  00413c60 f 3dimage.obj
 0001:00012c60       ??_ET3DImagery@@UAEPAXI@Z  00413c60 f 3dimage.obj
 0001:00012ca0       ??BOFFSET@@QAEPAXXZ        00413ca0 f 3dimage.obj
 0001:00012ce0       ??BOFFSET@@QAEKXZ          00413ce0 f 3dimage.obj
 0001:00012d00       ??_GT3DAnimator@@UAEPAXI@Z 00413d00 f 3dimage.obj
 0001:00012d00       ??_ET3DAnimator@@UAEPAXI@Z 00413d00 f 3dimage.obj
 0001:00012d40       ??0S3DRect@@QAE@XZ         00413d40 f 3dimage.obj
 0001:00012d70       ??XS3DPoint@@QAEAAU0@H@Z   00413d70 f 3dimage.obj
 0001:00012de0       ?Rotate@@YAXHAAH0@Z        00413de0 f 3dimage.obj
 0001:00012e80       ?DrawUnlit@TObjectImagery@@UAEXPAVTObjectInstance@@PAVTSurface@@@Z 00413e80 f 3dimage.obj
 0001:00012ea0       ??_ET3DHelperImagery@@UAEPAXI@Z 00413ea0 f 3dimage.obj
 0001:00012ea0       ??_GT3DHelperImagery@@UAEPAXI@Z 00413ea0 f 3dimage.obj
 0001:00012ee0       ?DrawLit@TObjectImagery@@UAEXPAVTObjectInstance@@PAVTSurface@@@Z 00413ee0 f 3dimage.obj
 0001:00012f00       ?DrawSelected@TObjectImagery@@UAEXPAVTObjectInstance@@PAVTSurface@@@Z 00413f00 f 3dimage.obj
 0001:00012f20       ?DrawInvItem@TObjectImagery@@UAEXPAVTObjectInstance@@HH@Z 00413f20 f 3dimage.obj
 0001:00012f40       ?GetHeader@TObjectImagery@@QAEPAUSImageryHeader@@XZ 00413f40 f 3dimage.obj
 0001:00012f60       ?GetStillImage@TObjectImagery@@UAEPAVTBitmap@@HH@Z 00413f60 f 3dimage.obj
 0001:00012f80       ?GetAnimation@TObjectImagery@@UAEPAVTAnimation@@H@Z 00413f80 f 3dimage.obj
 0001:00012fa0       ?GetInvImage@TObjectImagery@@UAEPAVTBitmap@@HH@Z 00413fa0 f 3dimage.obj
 0001:00012fc0       ?GetInvAnimation@TObjectImagery@@UAEPAVTAnimation@@H@Z 00413fc0 f 3dimage.obj
 0001:00012fe0       ?GetImageFlags@TObjectImagery@@UAEKH@Z 00413fe0 f 3dimage.obj
 0001:00013000       ?GetScreenPos@TObjectInstance@@QAEXAAUS3DPoint@@@Z 00414000 f 3dimage.obj
 0001:00013030       ?GetFace@TObjectInstance@@QAEHXZ 00414030 f 3dimage.obj
 0001:00013050       ?SetNextMove@TObjectInstance@@QAEXAAUS3DPoint@@@Z 00414050 f 3dimage.obj
 0001:00013080       ?Halt@TObjectInstance@@QAEXXZ 00414080 f 3dimage.obj
 0001:000130b0       ?MeshInitialized@T3DImagery@@QAEHXZ 004140b0 f 3dimage.obj
 0001:000130d0       ?AlwaysOnTop@T3DImagery@@UAEHPAVTObjectInstance@@@Z 004140d0 f 3dimage.obj
 0001:000130f0       ?GetObjName@T3DImagery@@UAEPADH@Z 004140f0 f 3dimage.obj
 0001:00013120       ?GetWeaponObj@T3DImagery@@UAEHXZ 00414120 f 3dimage.obj
 0001:00013140       ?GetNumObjs@T3DImagery@@UAEHXZ 00414140 f 3dimage.obj
 0001:00013160       ?GetMotion@T3DImagery@@QAEPAUSMotionData@@HH@Z 00414160 f 3dimage.obj
 0001:00013190       ?GetObjBounds@T3DImagery@@QAEPAUSLinearBounds@@H@Z 00414190 f 3dimage.obj
 0001:000131c0       ?GetAniKey@T3DImagery@@QAEPAUSAniKey@@HHH@Z 004141c0 f 3dimage.obj
 0001:00013200       ??0T3DImageryBuilder@@QAE@XZ 00414200 f 3dimage.obj
 0001:00013230       ?Build@T3DImageryBuilder@@UAEPAVTObjectImagery@@H@Z 00414230 f 3dimage.obj
 0001:000132d0       ?SaveHeader@T3DHelperImagery@@UAEXXZ 004142d0 f 3dimage.obj
 0001:000132f0       ??0T3DHelperImageryBuilder@@QAE@XZ 004142f0 f 3dimage.obj
 0001:00013320       ?Build@T3DHelperImageryBuilder@@UAEPAVTObjectImagery@@H@Z 00414320 f 3dimage.obj
 0001:000133c0       ?GetPosX@TPane@@QAEHXZ     004143c0 f 3dimage.obj
 0001:000133e0       ?GetPosY@TPane@@QAEHXZ     004143e0 f 3dimage.obj
 0001:00013400       ?GetScrollX@TPane@@QAEHXZ  00414400 f 3dimage.obj
 0001:00013420       ?GetScrollY@TPane@@QAEHXZ  00414420 f 3dimage.obj
 0001:00013440       ?ZBufferDecompress832@@YAHPAUSDrawBlock@@PAUSDrawParam@@PAK@Z 00414440 f decompress832.obj
 0001:000137c1       ?ClipZBufferDecompress832@@YAHPAUSDrawBlock@@PAUSDrawParam@@PAK@Z 004147c1 f decompress832.obj
 0001:00013ca0       ?SetupDraw8@@YAXPAH00000PAUSDrawBlock@@PAUSDrawParam@@@Z 00414ca0 f decompress832.obj
 0001:00013de7       ?ClearLightning@TLightningInst@@QAEXXZ 00414de7 f lightninginst.obj
 0001:00013e07       ??0TLightningInst@@QAE@XZ  00414e07 f lightninginst.obj
 0001:00013e8c       ??0TLightningInst@@QAE@US3DPoint@@H@Z 00414e8c f lightninginst.obj
 0001:00013f2b       ??0TLightningInst@@QAE@PAVTObjectImagery@@@Z 00414f2b f lightninginst.obj
 0001:00013fc2       ??0TLightningInst@@QAE@PAVSObjectDef@@PAVTObjectImagery@@@Z 00414fc2 f lightninginst.obj
 0001:0001408c       ??1TLightningInst@@UAE@XZ  0041508c f lightninginst.obj
 0001:000140f4       ?RepaintObject@TLightningInst@@UAEXXZ 004150f4 f lightninginst.obj
 0001:0001410a       ?AddToInventory@TLightningInst@@UAEHH@Z 0041510a f lightninginst.obj
 0001:00014139       ?SendToInventory@TLightningInst@@UAEXHH@Z 00415139 f lightninginst.obj
 0001:00014165       ?RedrawBackground@TLightningInst@@QAEXH@Z 00415165 f lightninginst.obj
 0001:000141b6       ?Move@TLightningInst@@UAEKXZ 004151b6 f lightninginst.obj
 0001:0001431f       ?Pulse@TLightningInst@@UAEXXZ 0041531f f lightninginst.obj
 0001:00014397       ?Animate@TLightningInst@@UAEXH@Z 00415397 f lightninginst.obj
 0001:000143e4       ?AI@TLightningInst@@UAEXXZ 004153e4 f lightninginst.obj
 0001:000143fa       ?OnScreen@TLightningInst@@UAEXXZ 004153fa f lightninginst.obj
 0001:000144a7       ?OffScreen@TLightningInst@@UAEXXZ 004154a7 f lightninginst.obj
 0001:00014500       ?RedrawLight@TLightningInst@@QAEXXZ 00415500 f lightninginst.obj
 0001:00014557       ?GetLightRect@TLightningInst@@QAEXAAUSRect@@@Z 00415557 f lightninginst.obj
 0001:00014605       ?SetLightIntensity@TLightningInst@@QAEXE@Z 00415605 f lightninginst.obj
 0001:000146ab       ?SetLightMultiplier@TLightningInst@@QAEXH@Z 004156ab f lightninginst.obj
 0001:0001470e       ?SetLightPos@TLightningInst@@QAEXAAUS3DPoint@@@Z 0041570e f lightninginst.obj
 0001:00014782       ?SetLightColor@TLightningInst@@QAEXUSColor@@@Z 00415782 f lightninginst.obj
 0001:00014867       ?SetCommandDone@TLightningInst@@UAEXH@Z 00415867 f lightninginst.obj
 0001:00014888       ?Load@TLightningInst@@UAEXAAVTInputStream@@@Z 00415888 f lightninginst.obj
 0001:000148a0       ?Save@TLightningInst@@UAEXAAVTOutputStream@@@Z 004158a0 f lightninginst.obj
 0001:000148b8       ?AdjustLightning@TLightningInst@@QAEXXZ 004158b8 f lightninginst.obj
 0001:00014a30       ??_ETLightningInst@@UAEPAXI@Z 00415a30 f lightninginst.obj
 0001:00014a30       ??_GTLightningInst@@UAEPAXI@Z 00415a30 f lightninginst.obj
 0001:00014a70       ??0S3DPoint@@QAE@AAU0@@Z   00415a70 f lightninginst.obj
 0001:00014ab0       ??HS3DPoint@@QAEAAU0@AAU0@@Z 00415ab0 f lightninginst.obj
 0001:00014b00       ??YS3DPoint@@QAEAAU0@AAU0@@Z 00415b00 f lightninginst.obj
 0001:00014b60       ??8S3DPoint@@QAEHAAU0@@Z   00415b60 f lightninginst.obj
 0001:00014bc0       ??0TObjectInstance@@QAE@XZ 00415bc0 f lightninginst.obj
 0001:00014c10       ??_GTObjectInstance@@UAEPAXI@Z 00415c10 f lightninginst.obj
 0001:00014c10       ??_ETObjectInstance@@UAEPAXI@Z 00415c10 f lightninginst.obj
 0001:00014c50       ?rollover@@YAXAAH0@Z       00415c50 f lightninginst.obj
 0001:00014cb0       ?GetZ@TLightningInst@@UAEHPAVTSurface@@@Z 00415cb0 f lightninginst.obj
 0001:00014cd0       ?DrawInvItem@TLightningInst@@UAEXHH@Z 00415cd0 f lightninginst.obj
 0001:00014cf0       ?AlwaysOnTop@TLightningInst@@UAEHXZ 00415cf0 f lightninginst.obj
 0001:00014d40       ?SetState@TLightningInst@@UAEHH@Z 00415d40 f lightninginst.obj
 0001:00014d70       ?InventoryImage@TLightningInst@@UAEPAVTBitmap@@XZ 00415d70 f lightninginst.obj
 0001:00014dd0       ?IsInventoryItem@TLightningInst@@UAEHXZ 00415dd0 f lightninginst.obj
 0001:00014e40       ?FindState@TLightningInst@@UAEHPAD@Z 00415e40 f lightninginst.obj
 0001:00014e60       ?CommandDone@TLightningInst@@UAEHXZ 00415e60 f lightninginst.obj
 0001:00014e80       ??0TLightningInstBuilder@@QAE@XZ 00415e80 f lightninginst.obj
 0001:00014eb0       ?Build@TLightningInstBuilder@@UAEPAVTObjectInstance@@PAVTObjectImagery@@@Z 00415eb0 f lightninginst.obj
 0001:00014f50       ?Build@TLightningInstBuilder@@UAEPAVTObjectInstance@@PAVSObjectDef@@PAVTObjectImagery@@@Z 00415f50 f lightninginst.obj
 0001:00015057       ?Use@TContainer@@UAEHH@Z   00416057 f container.obj
 0001:00015100       ?GetOwner@TObjectInstance@@QAEPAV1@XZ 00416100 f container.obj
 0001:00015120       ??0TContainerBuilder@@QAE@XZ 00416120 f container.obj
 0001:00015150       ?Build@TContainerBuilder@@UAEPAVTObjectInstance@@PAVTObjectImagery@@@Z 00416150 f container.obj
 0001:000151f0       ??0TContainer@@QAE@PAVTObjectImagery@@@Z 004161f0 f container.obj
 0001:00015270       ??_ETContainer@@UAEPAXI@Z  00416270 f container.obj
 0001:00015270       ??_GTContainer@@UAEPAXI@Z  00416270 f container.obj
 0001:000152b0       ??1TContainer@@UAE@XZ      004162b0 f container.obj
 0001:00015310       ?Build@TContainerBuilder@@UAEPAVTObjectInstance@@PAVSObjectDef@@PAVTObjectImagery@@@Z 00416310 f container.obj
 0001:000153b0       ??0TContainer@@QAE@PAVSObjectDef@@PAVTObjectImagery@@@Z 004163b0 f container.obj
 0001:00015430       ?SetContainer@TInventory@@QAEXPAVTObjectInstance@@@Z 00416430 f container.obj
 0001:000154e0       ??0TShadowBuilder@@QAE@XZ  004164e0 f shadow.obj
 0001:00015510       ?Build@TShadowBuilder@@UAEPAVTObjectInstance@@PAVTObjectImagery@@@Z 00416510 f shadow.obj
 0001:000155b0       ??0TShadow@@QAE@PAVTObjectImagery@@@Z 004165b0 f shadow.obj
 0001:00015630       ??_ETShadow@@UAEPAXI@Z     00416630 f shadow.obj
 0001:00015630       ??_GTShadow@@UAEPAXI@Z     00416630 f shadow.obj
 0001:00015670       ??1TShadow@@UAE@XZ         00416670 f shadow.obj
 0001:000156d0       ?Build@TShadowBuilder@@UAEPAVTObjectInstance@@PAVSObjectDef@@PAVTObjectImagery@@@Z 004166d0 f shadow.obj
 0001:00015770       ??0TShadow@@QAE@PAVSObjectDef@@PAVTObjectImagery@@@Z 00416770 f shadow.obj
 0001:0001581f       ?AlwaysOnTop@TAnimImagery@@UAEHPAVTObjectInstance@@@Z 0041681f f animimage.obj
 0001:00015887       ?DrawLit@TAnimImagery@@UAEXPAVTObjectInstance@@PAVTSurface@@@Z 00416887 f animimage.obj
 0001:000159d1       ?DrawUnlit@TAnimImagery@@UAEXPAVTObjectInstance@@PAVTSurface@@@Z 004169d1 f animimage.obj
 0001:00015ba1       ?GetZ@TAnimImagery@@UAEHPAVTObjectInstance@@PAVTSurface@@@Z 00416ba1 f animimage.obj
 0001:00015cd5       ?DrawSelected@TAnimImagery@@UAEXPAVTObjectInstance@@PAVTSurface@@@Z 00416cd5 f animimage.obj
 0001:00015f5e       ?DrawInvItem@TAnimImagery@@UAEXPAVTObjectInstance@@HH@Z 00416f5e f animimage.obj
 0001:00015fdc       ?NeedsAnimator@TAnimImagery@@UAEHPAVTObjectInstance@@@Z 00416fdc f animimage.obj
 0001:0001606a       ?NewObjectAnimator@TAnimImagery@@UAEPAVTObjectAnimator@@PAVTObjectInstance@@@Z 0041706a f animimage.obj
 0001:00016101       ??0TAnimAnimator@@QAE@PAVTObjectInstance@@@Z 00417101 f animimage.obj
 0001:00016176       ?Animate@TAnimAnimator@@UAEXH@Z 00417176 f animimage.obj
 0001:00016321       ??1TAnimAnimator@@UAE@XZ   00417321 f animimage.obj
 0001:00016390       ??_ETAnimAnimator@@UAEPAXI@Z 00417390 f animimage.obj
 0001:00016390       ??_GTAnimAnimator@@UAEPAXI@Z 00417390 f animimage.obj
 0001:000163d0       ?GetFlags@TObjectInstance@@QAEKXZ 004173d0 f animimage.obj
 0001:000163f0       ??0TAnimImageryBuilder@@QAE@XZ 004173f0 f animimage.obj
 0001:00016420       ?Build@TAnimImageryBuilder@@UAEPAVTObjectImagery@@H@Z 00417420 f animimage.obj
 0001:000164c0       ?PosX@TMapPane@@QAEHXZ     004174c0 f animimage.obj
 0001:000164e0       ?PosY@TMapPane@@QAEHXZ     004174e0 f animimage.obj
 0001:00016500       ?AddPostCharAnim@TPlayScreen@@QAEXHHHPAVTBitmap@@KH@Z 00417500 f animimage.obj
 0001:000165b0       ?Initialize@TMapPane@@UAEHXZ 004175b0 f Mappane.obj
 0001:00016b3d       ?Close@TMapPane@@UAEXXZ    00417b3d f Mappane.obj
 0001:00016d3d       ?KeyPress@TMapPane@@UAEXHH@Z 00417d3d f Mappane.obj
 0001:000173e0       ?MouseClick@TMapPane@@UAEXHHH@Z 004183e0 f Mappane.obj
 0001:000181f2       ?MouseMove@TMapPane@@UAEXHHH@Z 004191f2 f Mappane.obj
 0001:00018768       ?MoveObjScreen@TMapPane@@QAEXHHH@Z 00419768 f Mappane.obj
 0001:00018880       ?SetMapPos@TMapPane@@QAEXAAUS3DPoint@@@Z 00419880 f Mappane.obj
 0001:000188d8       ?NewObject@TMapPane@@QAEHPAVSObjectDef@@@Z 004198d8 f Mappane.obj
 0001:0001899b       ?AddObject@TMapPane@@QAEHPAVTObjectInstance@@@Z 0041999b f Mappane.obj
 0001:00018a84       ?AddObjectSector@TMapPane@@QAEHPAVTObjectInstance@@PAVTSector@@H@Z 00419a84 f Mappane.obj
 0001:00018b3f       ?RemoveObject@TMapPane@@QAEPAVTObjectInstance@@H@Z 00419b3f f Mappane.obj
 0001:00018ccc       ?AddShadow@TMapPane@@QAEHPAVTObjectInstance@@@Z 00419ccc f Mappane.obj
 0001:00018d97       ?FindObject@TMapPane@@QAEHPADH@Z 00419d97 f Mappane.obj
 0001:00018e78       ?FindClosestLights@TMapPane@@QAEXUS3DPoint@@@Z 00419e78 f Mappane.obj
 0001:000194d6       ?FindClosestObject@TMapPane@@QAEHPADUS3DPoint@@H@Z 0041a4d6 f Mappane.obj
 0001:000196bc       ?FindClosestObject@TMapPane@@QAEHPADPAVTObjectInstance@@H@Z 0041a6bc f Mappane.obj
 0001:00019765       ?FindObjectsInRange@TMapPane@@QAEHUS3DPoint@@PAHHHHH@Z 0041a765 f Mappane.obj
 0001:00019d1f       ?MakeIndex@TMapPane@@QAEHPAVTObjectInstance@@H@Z 0041ad1f f Mappane.obj
 0001:00019dc2       ?OnObject@TMapPane@@QAEHHH@Z 0041adc2 f Mappane.obj
 0001:00019fec       ?GetInstance@TMapPane@@QAEPAVTObjectInstance@@H@Z 0041afec f Mappane.obj
 0001:0001a0ff       ?WalkmapHandler@TMapPane@@AAEXPAVTObjectInstance@@H@Z 0041b0ff f Mappane.obj
 0001:0001a5e6       ?RedrawWalkmapRect@TMapPane@@AAEXPAVTObjectInstance@@HHHHPAVTSector@@@Z 0041b5e6 f Mappane.obj
 0001:0001a895       ?GetWalkHeight@TMapPane@@QAEHAAUS3DPoint@@@Z 0041b895 f Mappane.obj
 0001:0001a96e       ?TransferAllWalkmaps@TMapPane@@QAEXXZ 0041b96e f Mappane.obj
 0001:0001aa50       ?SetOwners@TMapPane@@QAEXPAVTSector@@@Z 0041ba50 f Mappane.obj
 0001:0001aadb       ?CanMove@TMapPane@@QAEHAAUS3DPoint@@0USRect@@PAU2@@Z 0041badb f Mappane.obj
 0001:0001ae21       ?LineOfSight@TMapPane@@QAEHAAUS3DPoint@@0PAU2@@Z 0041be21 f Mappane.obj
 0001:0001b2ea       ?CheckRect@TMapPane@@QAEHUSRect@@HH@Z 0041c2ea f Mappane.obj
 0001:0001b478       ?DrawDLight@TMapPane@@QAEXXZ 0041c478 f Mappane.obj
 0001:0001b636       ?SetAmbientLight@TMapPane@@QAEXHHHH@Z 0041c636 f Mappane.obj
 0001:0001b6aa       ?Update3DScenePos@TMapPane@@AAEXXZ 0041c6aa f Mappane.obj
 0001:0001b74e       ?DrawBackground@TMapPane@@UAEXXZ 0041c74e f Mappane.obj
 0001:0001baaa       ?UpdateEdges@TMapPane@@QAEXHH@Z 0041caaa f Mappane.obj
 0001:0001bf74       ?ForceDrawEdges@TMapPane@@QAEXHHK@Z 0041cf74 f Mappane.obj
 0001:0001bf8c       ?QueueEdges@TMapPane@@QAEXHH@Z 0041cf8c f Mappane.obj
 0001:0001bfa4       ?UpdateQueue@TMapPane@@QAEXH@Z 0041cfa4 f Mappane.obj
 0001:0001bfbc       ?RedrawAll@TMapPane@@QAEXXZ 0041cfbc f Mappane.obj
 0001:0001bffe       ?AddBgUpdateRect@TMapPane@@QAEXAAUSRect@@H@Z 0041cffe f Mappane.obj
 0001:0001c072       ?AddObjectUpdateRect@TMapPane@@QAEXH@Z 0041d072 f Mappane.obj
 0001:0001c0d5       ?ReloadImagery@TMapPane@@QAEXXZ 0041d0d5 f Mappane.obj
 0001:0001c124       ?DrawBackgroundRect@TMapPane@@QAEXAAUSRect@@H@Z 0041d124 f Mappane.obj
 0001:0001c1d5       ?DrawUnlitObjects@TMapPane@@QAEXAAUSRect@@@Z 0041d1d5 f Mappane.obj
 0001:0001c412       ?PulseObjects@TMapPane@@QAEXXZ 0041d412 f Mappane.obj
 0001:0001c542       ?AnimateObjects@TMapPane@@QAEXH@Z 0041d542 f Mappane.obj
 0001:0001c756       ?DrawStaticLights@TMapPane@@QAEXAAUSRect@@@Z 0041d756 f Mappane.obj
 0001:0001c99b       ?DrawLitObjects@TMapPane@@QAEXAAUSRect@@@Z 0041d99b f Mappane.obj
 0001:0001ceb6       ?DrawSelectedObjects@TMapPane@@QAEXAAUSRect@@@Z 0041deb6 f Mappane.obj
 0001:0001cfb1       ?AnimateSelectedObjects@TMapPane@@QAEXXZ 0041dfb1 f Mappane.obj
 0001:0001d2d0       ?SaveAllSectors@TMapPane@@QAEXXZ 0041e2d0 f Mappane.obj
 0001:0001d35a       ?FreeAllSectors@TMapPane@@QAEXXZ 0041e35a f Mappane.obj
 0001:0001d41b       ?ReloadSectors@TMapPane@@QAEXXZ 0041e41b f Mappane.obj
 0001:0001d455       ?UpdateSectors@TMapPane@@QAEXXZ 0041e455 f Mappane.obj
 0001:0001d87f       ?leash_update@@YAXHHAAHHH@Z 0041e87f f Mappane.obj
 0001:0001d91d       ?Animate@TMapPane@@UAEXH@Z 0041e91d f Mappane.obj
 0001:0001dd0c       ?AddToInventory@TMapPane@@QAEXPAVTObjectInstance@@HH@Z 0041ed0c f Mappane.obj
 0001:0001de43       ?FindFreeInvSlot@TMapPane@@QAEHPAVTObjectInstance@@@Z 0041ee43 f Mappane.obj
 0001:0001df1c       ?FindObjInventory@TMapPane@@QAEPAVTObjectInstance@@PAV2@PAD@Z 0041ef1c f Mappane.obj
 0001:0001dfce       ?InventoryItem@TMapPane@@QAEPAVTObjectInstance@@PAV2@H@Z 0041efce f Mappane.obj
 0001:0001e067       ?RemoveFromInventory@TMapPane@@QAEPAVTObjectInstance@@PAV2@H@Z 0041f067 f Mappane.obj
 0001:0001e1a3       ?GetOwner@TMapPane@@QAEPAVTObjectInstance@@PAV2@@Z 0041f1a3 f Mappane.obj
 0001:0001e30d       ?CheckPos@TMapPane@@QAEHPAVTObjectInstance@@AAUS3DPoint@@@Z 0041f30d f Mappane.obj
 0001:0001e586       ?TransferObject@TMapPane@@QAEHHHHHH@Z 0041f586 f Mappane.obj
 0001:0001e68c       ?CalculateWalkmap@TMapPane@@QAEXXZ 0041f68c f Mappane.obj
 0001:0001e8ee       ?AdjustWalkmap@TMapPane@@QAEXHHH@Z 0041f8ee f Mappane.obj
 0001:0001ea14       ?SetMode@TMapPane@@QAEXP6AXUS3DPoint@@@ZP6AXXZH@Z 0041fa14 f Mappane.obj
 0001:0001eb20       ??ZS3DPoint@@QAEAAU0@AAU0@@Z 0041fb20 f Mappane.obj
 0001:0001eb90       ?InPane@TPane@@QAEHHH@Z    0041fb90 f Mappane.obj
 0001:0001ebf0       ?SetScrollPos@TPane@@QAEXHH@Z 0041fbf0 f Mappane.obj
 0001:0001ec20       ??0SRect@@QAE@HHHH@Z       0041fc20 f Mappane.obj
 0001:0001ec60       ?Intersects@SRect@@QAEHAAU1@@Z 0041fc60 f Mappane.obj
 0001:0001ecd0       ?GetNewScrollX@TPane@@QAEHXZ 0041fcd0 f Mappane.obj
 0001:0001ecf0       ?GetNewScrollY@TPane@@QAEHXZ 0041fcf0 f Mappane.obj
 0001:0001ed10       ?ObjClass@TObjectInstance@@QAEHXZ 0041fd10 f Mappane.obj
 0001:0001ed30       ??4SRect@@QAEAAU0@AAU0@@Z  0041fd30 f Mappane.obj
 0001:0001ed80       ?GetBackgroundBuffer@TPane@@QAEHXZ 0041fd80 f Mappane.obj
 0001:0001eda0       ?GetWidth@TPane@@QAEHXZ    0041fda0 f Mappane.obj
 0001:0001edc0       ?GetHeight@TPane@@QAEHXZ   0041fdc0 f Mappane.obj
 0001:0001ede0       ?GetScript@TObjectInstance@@QAEPAVTScript@@XZ 0041fde0 f Mappane.obj
 0001:0001ee00       ?GetLightIntensity@TObjectInstance@@QAEEXZ 0041fe00 f Mappane.obj
 0001:0001ee20       ?GetLightDef@TObjectInstance@@QAEPAUSLightDef@@XZ 0041fe20 f Mappane.obj
 0001:0001ee40       ?GetShadow@TObjectInstance@@QAEHXZ 0041fe40 f Mappane.obj
 0001:0001ee60       ?SetShadow@TObjectInstance@@QAEXH@Z 0041fe60 f Mappane.obj
 0001:0001ee90       ?InventNum@TObjectInstance@@QAEHXZ 0041fe90 f Mappane.obj
 0001:0001eeb0       ?SetOwner@TObjectInstance@@QAEXPAV1@@Z 0041feb0 f Mappane.obj
 0001:0001eee0       ?SetMapIndex@TObjectInstance@@QAEXH@Z 0041fee0 f Mappane.obj
 0001:0001ef10       ?DrawLit@TObjectInstance@@QAEXPAVTSurface@@@Z 0041ff10 f Mappane.obj
 0001:0001ef60       ?GetMapIndex@TObjectInstance@@QAEHXZ 0041ff60 f Mappane.obj
 0001:0001ef80       ?SectorX@TSector@@QAEHXZ   0041ff80 f Mappane.obj
 0001:0001efa0       ?SectorY@TSector@@QAEHXZ   0041ffa0 f Mappane.obj
 0001:0001efc0       ?GetInstance@TSector@@QAEPAVTObjectInstance@@H@Z 0041ffc0 f Mappane.obj
 0001:0001f000       ?ObjectArray@TSector@@QAEPAV?$TPointerArray@VTObjectInstance@@$0BAAA@@@XZ 00420000 f Mappane.obj
 0001:0001f020       ??0?$TPointerIterator@VTObjectInstance@@@@QAE@PAX@Z 00420020 f Mappane.obj
 0001:0001f060       ?Item@?$TPointerIterator@VTObjectInstance@@@@QAEPAVTObjectInstance@@XZ 00420060 f Mappane.obj
 0001:0001f080       ?ItemNum@?$TPointerIterator@VTObjectInstance@@@@QAEHXZ 00420080 f Mappane.obj
 0001:0001f0a0       ??E?$TPointerIterator@VTObjectInstance@@@@QAEHH@Z 004200a0 f Mappane.obj
 0001:0001f0f0       ??B?$TPointerIterator@VTObjectInstance@@@@QAEHXZ 004200f0 f Mappane.obj
 0001:0001f130       ?DrawSelected@TObjectInstance@@QAEXPAVTSurface@@@Z 00420130 f Mappane.obj
 0001:0001f180       ??A?$TPointerArray@VTObjectInstance@@$0BAAA@@@QAEPAVTObjectInstance@@H@Z 00420180 f Mappane.obj
 0001:0001f1b0       ??_GTSector@@QAEPAXI@Z     004201b0 f Mappane.obj
 0001:0001f1f0       ?ResetClipRect@TSurface@@QAEXXZ 004201f0 f Mappane.obj
 0001:0001f230       ??0TMultiSurface@@QAE@PAVTSurface@@00H@Z 00420230 f Mappane.obj
 0001:0001f2c0       ?GetZBuffer@TMultiSurface@@UAEPAVTSurface@@XZ 004202c0 f Mappane.obj
 0001:0001f2e0       ?ScreenGrid@@YAHHH@Z       004202e0 f Mappane.obj
 0001:0001f350       ?GetNormalBuffer@TMultiSurface@@UAEPAVTSurface@@XZ 00420350 f Mappane.obj
 0001:0001f370       ?BitsPerPixel@TMultiSurface@@UAEHXZ 00420370 f Mappane.obj
 0001:0001f3a0       ?GetDDSurface@TMultiSurface@@UAEPAUIDirectDrawSurface@@XZ 004203a0 f Mappane.obj
 0001:0001f3d0       ?Lost@TMultiSurface@@UAEHXZ 004203d0 f Mappane.obj
 0001:0001f3f0       ?Lock@TMultiSurface@@UAEPAXXZ 004203f0 f Mappane.obj
 0001:0001f420       ?Unlock@TMultiSurface@@UAEHXZ 00420420 f Mappane.obj
 0001:0001f450       ?Rect@TMultiSurface@@UAEHHHHHAAUSColor@@@Z 00420450 f Mappane.obj
 0001:0001f490       ?Rect@TMultiSurface@@UAEHUSRect@@AAUSColor@@@Z 00420490 f Mappane.obj
 0001:0001f4d0       ?Box@TMultiSurface@@UAEHHHHHAAUSColor@@@Z 004204d0 f Mappane.obj
 0001:0001f510       ?Line@TMultiSurface@@UAEHHHHHAAUSColor@@@Z 00420510 f Mappane.obj
 0001:0001f550       ?BlitPrimary@TMultiSurface@@UAEHPAUSDrawParam@@PAVTSurface@@H@Z 00420550 f Mappane.obj
 0001:0001f590       ??_GTMultiSurface@@UAEPAXI@Z 00420590 f Mappane.obj
 0001:0001f590       ??_ETMultiSurface@@UAEPAXI@Z 00420590 f Mappane.obj
 0001:0001f5d0       ?SetDLightPos@TMapPane@@QAEXAAUS3DPoint@@@Z 004205d0 f Mappane.obj
 0001:0001f600       ?NextObj@TObjectInstance@@QAEHXZ 00420600 f Mappane.obj
 0001:0001f620       ?SetNextObj@TObjectInstance@@QAEXF@Z 00420620 f Mappane.obj
 0001:0001f650       ?SetMapLevel@TMapPane@@QAEXH@Z 00420650 f Mappane.obj
 0001:0001f690       ?TransferWalkmap@TMapPane@@QAEXPAVTObjectInstance@@@Z 00420690 f Mappane.obj
 0001:0001f6c0       ?FirstInvent@TObjectInstance@@QAEHXZ 004206c0 f Mappane.obj
 0001:0001f6e0       ?ExtractWalkmap@TMapPane@@QAEXPAVTObjectInstance@@@Z 004206e0 f Mappane.obj
 0001:0001f710       ?SetFirstInvent@TObjectInstance@@QAEXF@Z 00420710 f Mappane.obj
 0001:0001f740       ??0TBitmapSurface@@QAE@PAVTBitmap@@@Z 00420740 f Mappane.obj
 0001:0001f7c0       ??0TVideoSurface@@QAE@HH@Z 004207c0 f Mappane.obj
 0001:0001f850       ?GridSnap@TEditStatusPane@@QAEHXZ 00420850 f Mappane.obj
 0001:0001f880       ?GetState@TButton@@QAEHXZ  00420880 f Mappane.obj
 0001:0001f8a0       ?RestrictX@TEditStatusPane@@QAEHXZ 004208a0 f Mappane.obj
 0001:0001f8e0       ?RestrictY@TEditStatusPane@@QAEHXZ 004208e0 f Mappane.obj
 0001:0001f920       ?RestrictZ@TEditStatusPane@@QAEHXZ 00420920 f Mappane.obj
 0001:0001f960       ?EditWalkmap@TEditStatusPane@@QAEHXZ 00420960 f Mappane.obj
 0001:0001f990       ?GetSelectedObj@TEditStatusPane@@QAEHXZ 00420990 f Mappane.obj
 0001:0001f9e0       ?GetNextObj@TEditStatusPane@@QAEHXZ 004209e0 f Mappane.obj
 0001:0001fa40       ?GetFirstObj@TEditStatusPane@@QAEHXZ 00420a40 f Mappane.obj
 0001:0001fa70       ?GetContainer@TInventory@@QAEPAVTObjectInstance@@XZ 00420a70 f Mappane.obj
 0001:0001fa90       ?GetHeldSlot@TInventory@@QAEHXZ 00420a90 f Mappane.obj
 0001:0001fab0       ?GetHeldSlot@TEquipPane@@QAEHXZ 00420ab0 f Mappane.obj
 0001:0001fad0       ?Equip@TPlayer@@QAEXPAVTObjectInstance@@H@Z 00420ad0 f Mappane.obj
 0001:0001fb10       ?IsPaused@TScript@@QAEHXZ  00420b10 f Mappane.obj
 0001:0001fba7       ?ClearCharacter@TCharacter@@QAEXXZ 00420ba7 f character.obj
 0001:0001fbe9       ??0TCharacter@@QAE@PAVTObjectImagery@@@Z 00420be9 f character.obj
 0001:0001fc7d       ??0TCharacter@@QAE@PAVSObjectDef@@PAVTObjectImagery@@@Z 00420c7d f character.obj
 0001:0001fd15       ?Pulse@TCharacter@@UAEXXZ  00420d15 f character.obj
 0001:0001fe7e       ?Animate@TCharacter@@UAEXH@Z 00420e7e f character.obj
 0001:0001ffd2       ?Move@TCharacter@@UAEKXZ   00420fd2 f character.obj
 0001:00020159       ?TryCommand@TCharacter@@QAEHPAUSActionBlock@@H@Z 00421159 f character.obj
 0001:0002032d       ?Advance@TCharacter@@QAEXHHH@Z 0042132d f character.obj
 0001:00020527       ?UpdateAngle@TCharacter@@QAEHH@Z 00421527 f character.obj
 0001:00020751       ?TryFall@TCharacter@@QAEHPAUSActionBlock@@H@Z 00421751 f character.obj
 0001:0002078e       ?TryStand@TCharacter@@QAEHPAUSActionBlock@@H@Z 0042178e f character.obj
 0001:00020ab4       ?TryCombatStance@TCharacter@@QAEHPAUSActionBlock@@H@Z 00421ab4 f character.obj
 0001:00020bf7       ?TryWalk@TCharacter@@QAEHPAUSActionBlock@@H@Z 00421bf7 f character.obj
 0001:00020e34       ?TryPickup@TCharacter@@UAEHPAUSActionBlock@@H@Z 00421e34 f character.obj
 0001:00020fad       ?TrySay@TCharacter@@QAEHPAUSActionBlock@@H@Z 00421fad f character.obj
 0001:00021018       ?TrySwing@TCharacter@@QAEHPAUSActionBlock@@H@Z 00422018 f character.obj
 0001:00021377       ?TryDodge@TCharacter@@QAEHPAUSActionBlock@@H@Z 00422377 f character.obj
 0001:00021425       ?TryBlock@TCharacter@@QAEHPAUSActionBlock@@H@Z 00422425 f character.obj
 0001:000214b2       ?TryCollapse@TCharacter@@QAEHPAUSActionBlock@@H@Z 004224b2 f character.obj
 0001:00021518       ?TryInvoke@TCharacter@@QAEHPAUSActionBlock@@H@Z 00422518 f character.obj
 0001:00021ac9       ?TryWait@TCharacter@@QAEHPAUSActionBlock@@H@Z 00422ac9 f character.obj
 0001:00021b5d       ?TryWalkTo@TCharacter@@QAEHPAUSActionBlock@@H@Z 00422b5d f character.obj
 0001:00021c09       ?Go@TCharacter@@QAEXH@Z    00422c09 f character.obj
 0001:00021c6e       ?Go@TCharacter@@QAEXUS3DPoint@@@Z 00422c6e f character.obj
 0001:00021cf8       ?Goto@TCharacter@@QAEXHH@Z 00422cf8 f character.obj
 0001:00021d7e       ?Stop@TCharacter@@QAEXXZ   00422d7e f character.obj
 0001:00021dd2       ?FollowChar@TCharacter@@QAEXH@Z 00422dd2 f character.obj
 0001:00021dea       ?Pickup@TCharacter@@QAEXH@Z 00422dea f character.obj
 0001:00021e85       ?Say@TCharacter@@QAEXPAD@Z 00422e85 f character.obj
 0001:00021ef3       ?Attack@TCharacter@@QAEXH@Z 00422ef3 f character.obj
 0001:00021f63       ?Defend@TCharacter@@QAEXH@Z 00422f63 f character.obj
 0001:00021fd3       ?ToggleCombat@TCharacter@@QAEXXZ 00422fd3 f character.obj
 0001:0002201b       ?StartCombat@TCharacter@@QAEXXZ 0042301b f character.obj
 0001:0002206f       ?CeaseCombat@TCharacter@@QAEXXZ 0042306f f character.obj
 0001:000220c3       ?Invoke@TCharacter@@QAEXPAH@Z 004230c3 f character.obj
 0001:00022128       ?Wait@TCharacter@@QAEXH@Z  00423128 f character.obj
 0001:0002218d       ?PlayAnim@TCharacter@@QAEXPAD@Z 0042318d f character.obj
 0001:000221b0       ??_ETCharacter@@UAEPAXI@Z  004231b0 f character.obj
 0001:000221b0       ??_GTCharacter@@UAEPAXI@Z  004231b0 f character.obj
 0001:000221f0       ??0SActionBlock@@QAE@XZ    004231f0 f character.obj
 0001:00022220       ??0TCharacterBuilder@@QAE@XZ 00423220 f character.obj
 0001:00022250       ?Build@TCharacterBuilder@@UAEPAVTObjectInstance@@PAVTObjectImagery@@@Z 00423250 f character.obj
 0001:000222f0       ?Build@TCharacterBuilder@@UAEPAVTObjectInstance@@PAVSObjectDef@@PAVTObjectImagery@@@Z 004232f0 f character.obj
 0001:00022390       ?ExtractSaveObj@TSaveGame@@AAEPAUSObjectList@@PAVTObjectInstance@@@Z 00423390 f savegame.obj
 0001:00022496       ?Save@TSaveGame@@QAEHXZ    00423496 f savegame.obj
 0001:000224f7       ?RestoreObjList@TSaveGame@@AAEHPAUSObjectList@@@Z 004234f7 f savegame.obj
 0001:000225fe       ?Restore@TSaveGame@@QAEHXZ 004235fe f savegame.obj
 0001:00022754       ?WriteObjList@@YAHAAVTOutputStream@@PAUSObjectList@@@Z 00423754 f savegame.obj
 0001:00022852       ?WriteGame@TSaveGame@@QAEHXZ 00423852 f savegame.obj
 0001:00022917       ?ReadObjList@@YAPAUSObjectList@@AAVTInputStream@@@Z 00423917 f savegame.obj
 0001:00022a76       ?ReadGame@TSaveGame@@QAEHXZ 00423a76 f savegame.obj
 0001:00022bd0       ??0TInputStream@@QAE@PAEH@Z 00423bd0 f savegame.obj
 0001:00022c10       ?Buffer@TOutputStream@@QAEPAXXZ 00423c10 f savegame.obj
 0001:00022c30       ?ClassName@TObjectClass@@QAEPADXZ 00423c30 f savegame.obj
 0001:00022c50       ?ObjType@TObjectInstance@@QAEHXZ 00423c50 f savegame.obj
 0001:00022ce0       ??0TLightSourceBuilder@@QAE@XZ 00423ce0 f lightsource.obj
 0001:00022d10       ?Build@TLightSourceBuilder@@UAEPAVTObjectInstance@@PAVTObjectImagery@@@Z 00423d10 f lightsource.obj
 0001:00022db0       ??0TLightSource@@QAE@PAVTObjectImagery@@@Z 00423db0 f lightsource.obj
 0001:00022e30       ??_GTLightSource@@UAEPAXI@Z 00423e30 f lightsource.obj
 0001:00022e30       ??_ETLightSource@@UAEPAXI@Z 00423e30 f lightsource.obj
 0001:00022e70       ??1TLightSource@@UAE@XZ    00423e70 f lightsource.obj
 0001:00022ed0       ?Build@TLightSourceBuilder@@UAEPAVTObjectInstance@@PAVSObjectDef@@PAVTObjectImagery@@@Z 00423ed0 f lightsource.obj
 0001:00022f70       ??0TLightSource@@QAE@PAVSObjectDef@@PAVTObjectImagery@@@Z 00423f70 f lightsource.obj
 0001:00022ff0       ?GetChar@TFont@@QAEPAVTBitmap@@D@Z 00423ff0 f font.obj
 0001:0002305d       ?FindNumLinesInText@TFont@@QAEHPADH@Z 0042405d f font.obj
 0001:000230c0       ??0TSurface@@QAE@XZ        004240c0 f surface.obj
 0001:00023130       ??1TSurface@@UAE@XZ        00424130 f surface.obj
 0001:0002314f       ?Reset@TSurface@@UAEXXZ    0042414f f surface.obj
 0001:000231b3       ?ParamPut@TSurface@@QAEHPAUSDrawParam@@PAVTBitmap@@@Z 004241b3 f surface.obj
 0001:0002381b       ?ParamBlit@TSurface@@QAEHPAUSDrawParam@@PAV1@H@Z 0042481b f surface.obj
 0001:00023995       ?Put@TSurface@@QAEHHHPAVTBitmap@@KPAUSColor@@@Z 00424995 f surface.obj
 0001:00023a1a       ?PutHue@TSurface@@QAEHHHPAVTBitmap@@KH@Z 00424a1a f surface.obj
 0001:00023a89       ?PutSV@TSurface@@QAEHHHPAVTBitmap@@KHH@Z 00424a89 f surface.obj
 0001:00023b0c       ?PutDim@TSurface@@QAEHHHPAVTBitmap@@KH@Z 00424b0c f surface.obj
 0001:00023b89       ?ZPut@TSurface@@QAEHHHHPAVTBitmap@@K@Z 00424b89 f surface.obj
 0001:00023be1       ?ZFind@TSurface@@QAEKHHHPAVTBitmap@@K@Z 00424be1 f surface.obj
 0001:00023f62       ?Clear@TSurface@@QAEHKGK@Z 00424f62 f surface.obj
 0001:00023fd9       ?Clear@TSurface@@QAEHHHHHKGK@Z 00424fd9 f surface.obj
 0001:00024084       ?WriteText@TSurface@@QAEXPADHHHPAVTFont@@PAUSColor@@KHH@Z 00425084 f surface.obj
 0001:0002429a       ?Frame@TSurface@@QAEXHHHHH@Z 0042529a f surface.obj
 0001:00024480       ??_GTSurface@@UAEPAXI@Z    00425480 f surface.obj
 0001:00024480       ??_ETSurface@@UAEPAXI@Z    00425480 f surface.obj
 0001:000244c0       ?BlitPrimary@TSurface@@UAEHPAUSDrawParam@@PAV1@H@Z 004254c0 f surface.obj
 0001:000244e0       ?InitDirectDraw@@YAHXZ     004254e0 f directdraw.obj
 0001:00024727       ?InitD3DDevice@@YAHXZ      00425727 f directdraw.obj
 0001:00024831       ?SetExclusiveMode@@YAHXZ   00425831 f directdraw.obj
 0001:00024890       ?CloseDirectDraw@@YAHXZ    00425890 f directdraw.obj
 0001:0002491a       ?EnterVideoMode@@YAHHHH@Z  0042591a f directdraw.obj
 0001:00024978       ?Setup3D@@YAHHH@Z          00425978 f directdraw.obj
 0001:00024a22       ?CloseScene@@YAXXZ         00425a22 f directdraw.obj
 0001:00024a3c       ?GetTotalVRAM@@YAHXZ       00425a3c f directdraw.obj
 0001:00024ae8       ?GetAvailableVRAM@@YAHXZ   00425ae8 f directdraw.obj
 0001:00024b94       ?GetColorMode@@YAHXZ       00425b94 f directdraw.obj
 0001:00024bde       ?IsUsingHardware@@YAHXZ    00425bde f directdraw.obj
 0001:00024bf3       ?DDEnumCallback@@YGHPAU_GUID@@PAD1PAX@Z 00425bf3 f directdraw.obj
 0001:00024d36       ?DDEnumDisplayModesCallback@@YGJPAU_DDSURFACEDESC@@PAX@Z 00425d36 f directdraw.obj
 0001:00024f26       ?D3DEnumDeviceCallBack@@YGJPAU_GUID@@PAD1PAU_D3DDeviceDesc@@2PAX@Z 00425f26 f directdraw.obj
 0001:00024fea       ?TraceErrorDD@@YAXJPADH@Z  00425fea f directdraw.obj
 0001:00026036       ?TraceErrorD3D@@YAXJPADH@Z 00427036 f directdraw.obj
 0001:000264f6       ?TraceErrorD3DRM@@YAXJPADH@Z 004274f6 f directdraw.obj
 0001:00026747       ?Round@@YAHN@Z             00427747 f colortable.obj
 0001:00026788       ?SetAmbientColor@@YAXAAUSColor@@@Z 00427788 f colortable.obj
 0001:0002680e       ?GetAmbientColor@@YAXAAUSColor@@@Z 0042780e f colortable.obj
 0001:0002683e       ?SetMonoPercent@@YAXH@Z    0042783e f colortable.obj
 0001:00027107       ?GetMonoPercent@@YAHXZ     00428107 f colortable.obj
 0001:00027128       ?NewLightIndex@@YAHAAUSColor@@H@Z 00428128 f colortable.obj
 0001:000272c2       ?FreeLightIndex@@YAXH@Z    004282c2 f colortable.obj
 0001:000272dc       ?ClearLights@@YAXXZ        004282dc f colortable.obj
 0001:0002731b       ?SetLightColor@@YAXHAAUSColor@@H@Z 0042831b f colortable.obj
 0001:000277e8       ?GetLightColor@@YAXHAAUSColor@@AAH@Z 004287e8 f colortable.obj
 0001:00027830       ?MakeColorTables@@YAXXZ    00428830 f colortable.obj
 0001:000281b0       _atan2l                    004291b0 f colortable.obj
 0001:000281e0       ?NewBitmap@TBitmap@@SAPAV1@HHHH@Z 004291e0 f bitmap.obj
 0001:000284bf       ?Load@TBitmap@@SAPAV1@H@Z  004294bf f bitmap.obj
 0001:000284eb       ?WriteText@TBitmap@@QAEXPADHHHPAVTFont@@PAUSColor@@K@Z 004294eb f bitmap.obj
 0001:00028645       ?Decompress@TBitmap@@QAEHPAV1@@Z 00429645 f bitmap.obj
 0001:00028662       ?Decompress@TBitmap@@QAEHPAXHH@Z 00429662 f bitmap.obj
 0001:0002867f       ?Clear@TBitmap@@QAEHAAUSColor@@KG@Z 0042967f f bitmap.obj
 0001:00028910       ?Put@TBitmap@@QAEHHHPAV1@HHHHHH@Z 00429910 f bitmap.obj
 0001:00028aec       ?Put@TBitmap@@QAEHHHPAVTSurface@@HHHHHH@Z 00429aec f bitmap.obj
 0001:00028c99       ?SaveBMP@TBitmap@@QAEHPAD@Z 00429c99 f bitmap.obj
 0001:00028f62       ?OnPixel@TBitmap@@QAEHHH@Z 00429f62 f bitmap.obj
 0001:0002904c       ?Line@TBitmap@@QAEHHHHHAAUSColor@@@Z 0042a04c f bitmap.obj
 0001:00029262       ?Box@TBitmap@@QAEHHHHHAAUSColor@@@Z 0042a262 f bitmap.obj
 0001:00029308       ?TranslateColor@@YAGAAUSColor@@@Z 0042a308 f bitmap.obj
 0001:000293f0       ?set@OFFSET@@QAEXPAX@Z     0042a3f0 f bitmap.obj
 0001:00029430       ?CommandInterpreter@@YAHPAVTObjectInstance@@AAVTToken@@H@Z 0042a430 f command.obj
 0001:000297e0       ?Output@@YAXPAD@Z          0042a7e0 f command.obj
 0001:0002981d       ?CmdHelp@@YAHPAVTObjectInstance@@AAVTToken@@@Z 0042a81d f command.obj
 0001:00029a0b       ?CmdSay@@YAHPAVTObjectInstance@@AAVTToken@@@Z 0042aa0b f command.obj
 0001:00029a70       ?CmdGoto@@YAHPAVTObjectInstance@@AAVTToken@@@Z 0042aa70 f command.obj
 0001:00029ac3       ?CmdFace@@YAHPAVTObjectInstance@@AAVTToken@@@Z 0042aac3 f command.obj
 0001:00029b11       ?CmdUse@@YAHPAVTObjectInstance@@AAVTToken@@@Z 0042ab11 f command.obj
 0001:00029b91       ?CmdAttack@@YAHPAVTObjectInstance@@AAVTToken@@@Z 0042ab91 f command.obj
 0001:00029bf1       ?CmdInvoke@@YAHPAVTObjectInstance@@AAVTToken@@@Z 0042abf1 f command.obj
 0001:00029c93       ?CmdWait@@YAHPAVTObjectInstance@@AAVTToken@@@Z 0042ac93 f command.obj
 0001:00029cde       ?CmdStop@@YAHPAVTObjectInstance@@AAVTToken@@@Z 0042acde f command.obj
 0001:00029cfb       ?ApplyOperation@@YAHAAHHH@Z 0042acfb f command.obj
 0001:00029f1f       ?FindElement@@YAHPADQAPAD@Z 0042af1f f command.obj
 0001:00029f8b       ?ParseExpression@@YAHAAVTToken@@PAH@Z 0042af8b f command.obj
 0001:0002a1e1       ?CmdBegin@@YAHPAVTObjectInstance@@AAVTToken@@@Z 0042b1e1 f command.obj
 0001:0002a1f6       ?CmdEnd@@YAHPAVTObjectInstance@@AAVTToken@@@Z 0042b1f6 f command.obj
 0001:0002a20b       ?CmdIf@@YAHPAVTObjectInstance@@AAVTToken@@@Z 0042b20b f command.obj
 0001:0002a259       ?CmdElse@@YAHPAVTObjectInstance@@AAVTToken@@@Z 0042b259 f command.obj
 0001:0002a26e       ?CmdWhile@@YAHPAVTObjectInstance@@AAVTToken@@@Z 0042b26e f command.obj
 0001:0002a2bc       ?CmdSet@@YAHPAVTObjectInstance@@AAVTToken@@@Z 0042b2bc f command.obj
 0001:0002a330       ?GameState@TScriptManager@@QAEHPAD@Z 0042b330 f command.obj
 0001:0002a360       ?State@TGameState@@QAEHPAD@Z 0042b360 f command.obj
 0001:0002a390       ?State@TGameState@@QAEHH@Z 0042b390 f command.obj
 0001:0002a3d0       ?FindStateIndex@TGameState@@QAEHPAD@Z 0042b3d0 f command.obj
 0001:0002a440       ?SetGameState@TScriptManager@@QAEXPADH@Z 0042b440 f command.obj
 0001:0002a470       ?SetState@TGameState@@QAEXPADH@Z 0042b470 f command.obj
 0001:0002a4b0       ?SetState@TGameState@@QAEXHH@Z 0042b4b0 f command.obj
 0001:0002a4f0       ??0TMultiSurface@@QAE@XZ   0042b4f0 f multisurface.obj
 0001:0002a58b       ??1TMultiSurface@@UAE@XZ   0042b58b f multisurface.obj
 0001:0002a5fb       ?Initialize@TMultiSurface@@QAEXPAVTSurface@@00H@Z 0042b5fb f multisurface.obj
 0001:0002a67e       ?Reset@TMultiSurface@@UAEXXZ 0042b67e f multisurface.obj
 0001:0002a75c       ?SetOrigin@TMultiSurface@@UAEXHH@Z 0042b75c f multisurface.obj
 0001:0002a7f6       ?SetClipRect@TMultiSurface@@UAEXHHHH@Z 0042b7f6 f multisurface.obj
 0001:0002a8b0       ?SetClipMode@TMultiSurface@@UAEXH@Z 0042b8b0 f multisurface.obj
 0001:0002a93a       ?Close@TMultiSurface@@QAEXXZ 0042b93a f multisurface.obj
 0001:0002aa97       ?Use@TExit@@UAEHH@Z        0042ba97 f exit.obj
 0001:0002ab13       ?Pulse@TExit@@UAEXXZ       0042bb13 f exit.obj
 0001:0002ad50       ??0TExitBuilder@@QAE@XZ    0042bd50 f exit.obj
 0001:0002ad80       ?Build@TExitBuilder@@UAEPAVTObjectInstance@@PAVTObjectImagery@@@Z 0042bd80 f exit.obj
 0001:0002ae20       ??0TExit@@QAE@PAVTObjectImagery@@@Z 0042be20 f exit.obj
 0001:0002aea0       ??_GTExit@@UAEPAXI@Z       0042bea0 f exit.obj
 0001:0002aea0       ??_ETExit@@UAEPAXI@Z       0042bea0 f exit.obj
 0001:0002aee0       ??1TExit@@UAE@XZ           0042bee0 f exit.obj
 0001:0002af40       ?Build@TExitBuilder@@UAEPAVTObjectInstance@@PAVSObjectDef@@PAVTObjectImagery@@@Z 0042bf40 f exit.obj
 0001:0002afe0       ??0TExit@@QAE@PAVSObjectDef@@PAVTObjectImagery@@@Z 0042bfe0 f exit.obj
 0001:0002b060       ?LoadResource@@YAPAXPADHPAK@Z 0042c060 f resource.obj
 0001:0002b40b       ?LoadResourceHeader@@YAPAXPADHPAK@Z 0042c40b f resource.obj
 0001:0002b622       ?SaveResource@@YAHPADPAXH@Z 0042c622 f resource.obj
 0001:0002b807       ?SaveResourceHeader@@YAHPADPAXHH@Z 0042c807 f resource.obj
 0001:0002bc60       ?D3DVECTORNormalise@@YAPAU_D3DVECTOR@@PAU1@@Z 0042cc60 f d3dmath.obj
 0001:0002bd21       ?D3DVECTORCrossProduct@@YAPAU_D3DVECTOR@@PAU1@00@Z 0042cd21 f d3dmath.obj
 0001:0002bd8f       ?D3DMATRIXClear@@YAPAU_D3DMATRIX@@PAU1@@Z 0042cd8f f d3dmath.obj
 0001:0002bdb5       ?MultiplyD3DMATRIX@@YAPAU_D3DMATRIX@@PAU1@00@Z 0042cdb5 f d3dmath.obj
 0001:0002be9b       ?D3DMATRIXTransform@@YAXPAU_D3DMATRIX@@PAU_D3DVECTOR@@1@Z 0042ce9b f d3dmath.obj
 0001:0002bf47       ?D3DMATRIXInvert@@YAPAU_D3DMATRIX@@PAU1@0@Z 0042cf47 f d3dmath.obj
 0001:0002c018       ?D3DMATRIXSetRotation@@YAPAU_D3DMATRIX@@PAU1@PAU_D3DVECTOR@@1@Z 0042d018 f d3dmath.obj
 0001:0002c118       ?D3DMATRIXTranslate@@YAPAU_D3DMATRIX@@PAU1@PAU_D3DVECTOR@@@Z 0042d118 f d3dmath.obj
 0001:0002c16f       ?D3DMATRIXMove@@YAPAU_D3DMATRIX@@PAU1@PAU_D3DVECTOR@@@Z 0042d16f f d3dmath.obj
 0001:0002c1cc       ?D3DMATRIXScale@@YAPAU_D3DMATRIX@@PAU1@PAU_D3DVECTOR@@@Z 0042d1cc f d3dmath.obj
 0001:0002c223       ?D3DMATRIXRotateX@@YAPAU_D3DMATRIX@@PAU1@M@Z 0042d223 f d3dmath.obj
 0001:0002c2a2       ?D3DMATRIXRotateY@@YAPAU_D3DMATRIX@@PAU1@M@Z 0042d2a2 f d3dmath.obj
 0001:0002c321       ?D3DMATRIXRotateZ@@YAPAU_D3DMATRIX@@PAU1@M@Z 0042d321 f d3dmath.obj
 0001:0002c3a0       ?spline@@YAXPAU_D3DVECTOR@@M0000@Z 0042d3a0 f d3dmath.obj
 0001:0002c500       ?sqrt@@YAMM@Z              0042d500 f d3dmath.obj
 0001:0002c520       _sqrtf                     0042d520 f d3dmath.obj
 0001:0002c550       ??0T3dSurface@@QAE@XZ      0042d550 f 3dsurface.obj
 0001:0002c5bf       ??1T3dSurface@@UAE@XZ      0042d5bf f 3dsurface.obj
 0001:0002c627       ?LockBuffer@T3dSurface@@UAEPAUIDirectDrawSurface@@XZ 0042d627 f 3dsurface.obj
 0001:0002c63f       ?UnlockBuffer@T3dSurface@@UAEHXZ 0042d63f f 3dsurface.obj
 0001:0002c660       ??_GT3dSurface@@UAEPAXI@Z  0042d660 f 3dsurface.obj
 0001:0002c660       ??_ET3dSurface@@UAEPAXI@Z  0042d660 f 3dsurface.obj
 0001:0002c6cf       ??0TIdent@@QAE@XZ          0042d6cf f parse.obj
 0001:0002c720       ?Find@TIdent@@QAEPAUIdent@@PADH@Z 0042d720 f parse.obj
 0001:0002c7ad       ?FindIndex@TIdent@@QAEHPADH@Z 0042d7ad f parse.obj
 0001:0002c831       ?Add@TIdent@@QAEXPADHH@Z   0042d831 f parse.obj
 0001:0002c8b6       ?Get@TToken@@QAEXXZ        0042d8b6 f parse.obj
 0001:0002d3f6       ?WhiteGet@TToken@@QAEXXZ   0042e3f6 f parse.obj
 0001:0002d429       ?LineGet@TToken@@QAEXXZ    0042e429 f parse.obj
 0001:0002d46e       ?SkipLine@TToken@@QAEXXZ   0042e46e f parse.obj
 0001:0002d4b3       ?SkipBlanks@TToken@@QAEXXZ 0042e4b3 f parse.obj
 0001:0002d4f0       ?abbrevcmp@@YAHPAD0@Z      0042e4f0 f parse.obj
 0001:0002d58e       ?Is@TToken@@QAEHPADH@Z     0042e58e f parse.obj
 0001:0002d625       ?DoBegin@TToken@@QAEXXZ    0042e625 f parse.obj
 0001:0002d69b       ?DoEnd@TToken@@QAEXXZ      0042e69b f parse.obj
 0001:0002d712       ?ParseAnything@@YAHHAAVTToken@@PAD1@Z 0042e712 f parse.obj
 0001:0002e2af       ?Parse@@YAHAAVTToken@@PADZZ 0042f2af f parse.obj
 0001:0002e2eb       ?ParseString@@YAHPAD0ZZ    0042f2eb f parse.obj
 0001:0002e360       ?FindIndex@TIdent@@QAEHPAD@Z 0042f360 f parse.obj
 0001:0002e390       ?Get@TIdent@@QAEPAUIdent@@H@Z 0042f390 f parse.obj
 0001:0002e3c0       ?Number@TToken@@QAENXZ     0042f3c0 f parse.obj
 0001:0002e447       ?Initialize@TAmmo@@SAHXZ   0042f447 f ammo.obj
 0001:0002e503       ?Close@TAmmo@@SAXXZ        0042f503 f ammo.obj
 0001:0002e5c8       ??1TAmmo@@UAE@XZ           0042f5c8 f ammo.obj
 0001:0002e6e9       ?AddToInventory@TAmmo@@UAEXPAVTObjectInstance@@@Z 0042f6e9 f ammo.obj
 0001:0002e766       ?RemoveFromInventory@TAmmo@@UAEXPAVTObjectInstance@@@Z 0042f766 f ammo.obj
 0001:0002e7c0       ?SetAmount@TAmmo@@UAEXH@Z  0042f7c0 f ammo.obj
 0001:0002e8d6       ?Load@TAmmo@@UAEXAAVTInputStream@@@Z 0042f8d6 f ammo.obj
 0001:0002e90b       ?Save@TAmmo@@UAEXAAVTOutputStream@@@Z 0042f90b f ammo.obj
 0001:0002e941       ?AllocInvItem@TAmmo@@SAXPAVTObjectImagery@@HHH@Z 0042f941 f ammo.obj
 0001:0002ea74       ?FreeInvItem@TAmmo@@SAXHH@Z 0042fa74 f ammo.obj
 0001:0002eb28       ?AllocGroundItem@TAmmo@@SAXPAVTObjectImagery@@HHH@Z 0042fb28 f ammo.obj
 0001:0002ecba       ?FreeGroundItem@TAmmo@@SAXHH@Z 0042fcba f ammo.obj
 0001:0002ed6e       ?DrawInvItem@TAmmo@@UAEXHH@Z 0042fd6e f ammo.obj
 0001:0002ee3a       ?InventoryImage@TAmmo@@UAEPAVTBitmap@@XZ 0042fe3a f ammo.obj
 0001:0002eea3       ?GetScreenRect@TAmmo@@UAEXAAUSRect@@@Z 0042fea3 f ammo.obj
 0001:0002ef40       ?DrawUnlit@TAmmo@@UAEXPAVTSurface@@@Z 0042ff40 f ammo.obj
 0001:0002f008       ?GetStillImage@TAmmo@@UAEPAVTBitmap@@H@Z 00430008 f ammo.obj
 0001:0002f080       ?GetState@TObjectImagery@@QAEPAUSImageryStateHeader@@H@Z 00430080 f ammo.obj
 0001:0002f0e0       ??5TInputStream@@QAEAAV0@AAH@Z 004300e0 f ammo.obj
 0001:0002f110       ??6TOutputStream@@QAEAAV0@H@Z 00430110 f ammo.obj
 0001:0002f140       ?GetAmount@TAmmo@@UAEHXZ   00430140 f ammo.obj
 0001:0002f160       ??_ETAmmo@@UAEPAXI@Z       00430160 f ammo.obj
 0001:0002f160       ??_GTAmmo@@UAEPAXI@Z       00430160 f ammo.obj
 0001:0002f1a0       ??0TAmmoBuilder@@QAE@XZ    004301a0 f ammo.obj
 0001:0002f1d0       ?Build@TAmmoBuilder@@UAEPAVTObjectInstance@@PAVTObjectImagery@@@Z 004301d0 f ammo.obj
 0001:0002f270       ??0TAmmo@@QAE@PAVTObjectImagery@@@Z 00430270 f ammo.obj
 0001:0002f2f0       ?Build@TAmmoBuilder@@UAEPAVTObjectInstance@@PAVSObjectDef@@PAVTObjectImagery@@@Z 004302f0 f ammo.obj
 0001:0002f390       ??0TAmmo@@QAE@PAVSObjectDef@@PAVTObjectImagery@@@Z 00430390 f ammo.obj
 0001:0002f410       ?Put@TBitmap@@QAEHHHPAV1@HH@Z 00430410 f ammo.obj
 0001:0002f4ed       ?DrawLight@@YAXAAUS3DPoint@@AAUSColor@@HPAVTSurface@@@Z 004304ed f dls.obj
 0001:000309a8       ?DrawLightNoNormals@@YAXAAUS3DPoint@@AAUSColor@@HPAVTSurface@@@Z 004319a8 f dls.obj
 0001:00031d3d       ?DrawStaticLight@@YAXAAUS3DPoint@@AAUSColor@@HPAVTSurface@@H@Z 00432d3d f dls.obj
 0001:00032eee       ?DrawStaticMonoLight@@YAXAAUS3DPoint@@HPAVTSurface@@@Z 00433eee f dls.obj
 0001:00033fdd       ?DrawStaticDirLight@@YAXAAUS3DPoint@@AAUSColor@@HPAVTSurface@@H@Z 00434fdd f dls.obj
 0001:0003516e       ?DrawStaticDirMonoLight@@YAXAAUS3DPoint@@HPAVTSurface@@@Z 0043616e f dls.obj
 0001:0003623d       ?DrawStaticLightNoNormals@@YAXAAUS3DPoint@@AAUSColor@@HPAVTSurface@@H@Z 0043723d f dls.obj
 0001:0003726e       ?DrawStaticMonoLightNoNormals@@YAXAAUS3DPoint@@HPAVTSurface@@@Z 0043826e f dls.obj
 0001:000381dd       ?DrawAmbientLight@@YAXPAVTSurface@@AAUSRect@@@Z 004391dd f dls.obj
 0001:00038552       ?SetAmbientLight@@YAXHHHH@Z 00439552 f dls.obj
 0001:00038619       ?Transfer32to16@@YAXPAVTSurface@@0AAUSRect@@@Z 00439619 f dls.obj
 0001:00038870       ?GetOrigin@TSurface@@QAEXAAH0@Z 00439870 f dls.obj
 0001:000388a0       ?GetClipRect@TSurface@@QAEXAAH000@Z 004398a0 f dls.obj
 0001:000388f0       ?BtnEquipDown@@YAXXZ       004398f0 f equip.obj
 0001:0003890c       ?BtnEquipUp@@YAXXZ         0043990c f equip.obj
 0001:00038928       ?Initialize@TEquipPane@@UAEHXZ 00439928 f equip.obj
 0001:00038a65       ?MouseClick@TEquipPane@@UAEXHHH@Z 00439a65 f equip.obj
 0001:00038def       ?DrawBackground@TEquipPane@@UAEXXZ 00439def f equip.obj
 0001:00038fc6       ?Scroll@TEquipPane@@QAEXH@Z 00439fc6 f equip.obj
 0001:00039028       ?DrawAnim@TEquipPane@@QAEXPAVTObjectInstance@@PAVTBitmap@@@Z 0043a028 f equip.obj
 0001:000390d1       ?OnSlot@TEquipPane@@AAEHHH@Z 0043a0d1 f equip.obj
 0001:000391f0       ?GetStatVal@TObjectInstance@@QAEHPAD@Z 0043a1f0 f equip.obj
 0001:00039240       ?GetStatistic@TObjectInstance@@QAEPAUSStatistic@@PAD@Z 0043a240 f equip.obj
 0001:000392b0       ?GetStatistic@TObjectClass@@QAEPAUSStatistic@@HPAD@Z 0043a2b0 f equip.obj
 0001:00039300       ?SetInventNum@TObjectInstance@@QAEXF@Z 0043a300 f equip.obj
 0001:00039330       ?GetEquip@TPlayer@@QAEPAVTObjectInstance@@H@Z 0043a330 f equip.obj
 0001:00039360       ??0TDisplay@@QAE@XZ        0043a360 f display.obj
 0001:000393f9       ?Initialize@TDisplay@@QAEHHHH@Z 0043a3f9 f display.obj
 0001:00039948       ?Close@TDisplay@@UAEHXZ    0043a948 f display.obj
 0001:000399cb       ??1TDisplay@@UAE@XZ        0043a9cb f display.obj
 0001:00039a3b       ?FlipPage@TDisplay@@QAEHH@Z 0043aa3b f display.obj
 0001:00039b61       ?Rect@TDisplay@@UAEHHHHHAAUSColor@@@Z 0043ab61 f display.obj
 0001:00039b7e       ?Box@TDisplay@@UAEHHHHHAAUSColor@@@Z 0043ab7e f display.obj
 0001:00039b9b       ?Line@TDisplay@@UAEHHHHHAAUSColor@@@Z 0043ab9b f display.obj
 0001:00039bb8       ?InitBackgroundSystem@TDisplay@@QAEHXZ 0043abb8 f display.obj
 0001:00039d2d       ?CloseBackgroundSystem@TDisplay@@QAEHXZ 0043ad2d f display.obj
 0001:00039d5a       ?ClearBackgroundAreas@TDisplay@@QAEHXZ 0043ad5a f display.obj
 0001:00039e69       ?CreateBackgroundArea@TDisplay@@QAEHHHHHH@Z 0043ae69 f display.obj
 0001:0003a06e       ?UseBackgroundArea@TDisplay@@QAEHHHHHPAVTSurface@@@Z 0043b06e f display.obj
 0001:0003a202       ?RestoreBackgroundAreas@TDisplay@@QAEHXZ 0043b202 f display.obj
 0001:0003a320       ?DrawRestoreRect@TDisplay@@QAEHHHHHHK@Z 0043b320 f display.obj
 0001:0003a466       ?ScrollBackground@TDisplay@@QAEHHHH@Z 0043b466 f display.obj
 0001:0003a5bd       ?AddUpdateRect@TDisplay@@QAEXHHHHH@Z 0043b5bd f display.obj
 0001:0003a74e       ?AddUpdateCallback@@YAXPAUSDrawBlock@@PAUSDrawParam@@@Z 0043b74e f display.obj
 0001:0003a7b6       ?GetDrawCallBack@TDisplay@@UAEP6AXPAUSDrawBlock@@PAUSDrawParam@@@ZXZ 0043b7b6 f display.obj
 0001:0003a7e5       ?AddBackgroundUpdateRect@TDisplay@@QAEHHHHHHH@Z 0043b7e5 f display.obj
 0001:0003b190       ??_ETDisplay@@UAEPAXI@Z    0043c190 f display.obj
 0001:0003b190       ??_GTDisplay@@UAEPAXI@Z    0043c190 f display.obj
 0001:0003b1d0       ?AddSubRect@TDisplay@@AAEXHHHHHH@Z 0043c1d0 f display.obj
 0001:0003b210       ?GetClipMode@TSurface@@QAEXAAH@Z 0043c210 f display.obj
 0001:0003b240       ?Blit@TSurface@@QAEHHHPAV1@HHHHKH@Z 0043c240 f display.obj
 0001:0003b2a0       ??0TVideoSurface@@QAE@HHPAUIDirectDrawSurface@@@Z 0043c2a0 f display.obj
 0001:0003b330       ?GetZBuffer@TDisplay@@UAEPAVTSurface@@XZ 0043c330 f display.obj
 0001:0003b350       ?GetNormalBuffer@TDisplay@@UAEPAVTSurface@@XZ 0043c350 f display.obj
 0001:0003b3d7       ?Initialize@TMoney@@SAHXZ  0043c3d7 f money.obj
 0001:0003b493       ?Close@TMoney@@SAXXZ       0043c493 f money.obj
 0001:0003b558       ??1TMoney@@UAE@XZ          0043c558 f money.obj
 0001:0003b654       ?AddToInventory@TMoney@@UAEXPAVTObjectInstance@@@Z 0043c654 f money.obj
 0001:0003b6e8       ?RemoveFromInventory@TMoney@@UAEXPAVTObjectInstance@@@Z 0043c6e8 f money.obj
 0001:0003b742       ?SetAmount@TMoney@@UAEXH@Z 0043c742 f money.obj
 0001:0003b886       ?Load@TMoney@@UAEXAAVTInputStream@@@Z 0043c886 f money.obj
 0001:0003b8bb       ?Save@TMoney@@UAEXAAVTOutputStream@@@Z 0043c8bb f money.obj
 0001:0003b8f1       ?AllocInvItem@TMoney@@SAXPAVTBitmap@@HH@Z 0043c8f1 f money.obj
 0001:0003ba01       ?FreeInvItem@TMoney@@SAXHH@Z 0043ca01 f money.obj
 0001:0003bab5       ?AllocGroundItem@TMoney@@SAXPAVTBitmap@@HH@Z 0043cab5 f money.obj
 0001:0003bc02       ?FreeGroundItem@TMoney@@SAXHH@Z 0043cc02 f money.obj
 0001:0003bcb6       ?DrawInvItem@TMoney@@UAEXHH@Z 0043ccb6 f money.obj
 0001:0003bd74       ?InventoryImage@TMoney@@UAEPAVTBitmap@@XZ 0043cd74 f money.obj
 0001:0003bdb2       ?GetScreenRect@TMoney@@UAEXAAUSRect@@@Z 0043cdb2 f money.obj
 0001:0003be4f       ?DrawUnlit@TMoney@@UAEXPAVTSurface@@@Z 0043ce4f f money.obj
 0001:0003bf09       ?GetStillImage@TMoney@@UAEPAVTBitmap@@H@Z 0043cf09 f money.obj
 0001:0003bf50       ?GetAmount@TMoney@@UAEHXZ  0043cf50 f money.obj
 0001:0003bf70       ??_GTMoney@@UAEPAXI@Z      0043cf70 f money.obj
 0001:0003bf70       ??_ETMoney@@UAEPAXI@Z      0043cf70 f money.obj
 0001:0003bfb0       ??0TMoneyBuilder@@QAE@XZ   0043cfb0 f money.obj
 0001:0003bfe0       ?Build@TMoneyBuilder@@UAEPAVTObjectInstance@@PAVTObjectImagery@@@Z 0043cfe0 f money.obj
 0001:0003c080       ??0TMoney@@QAE@PAVTObjectImagery@@@Z 0043d080 f money.obj
 0001:0003c110       ?Build@TMoneyBuilder@@UAEPAVTObjectInstance@@PAVSObjectDef@@PAVTObjectImagery@@@Z 0043d110 f money.obj
 0001:0003c1b0       ??0TMoney@@QAE@PAVSObjectDef@@PAVTObjectImagery@@@Z 0043d1b0 f money.obj
 0001:0003c230       ??0TChunkCache@@QAE@XZ     0043d230 f chunkcache.obj
 0001:0003c312       ?AddChunk@TChunkCache@@QAEPAXPAXK@Z 0043d312 f chunkcache.obj
 0001:0003c44b       ?AddChunkZ@TChunkCache@@QAEPAXPAXK@Z 0043d44b f chunkcache.obj
 0001:0003c594       ?AddChunk16@TChunkCache@@QAEPAXPAXK@Z 0043d594 f chunkcache.obj
 0001:0003c6dd       ?RemoveChunk@TChunkCache@@QAEHH@Z 0043d6dd f chunkcache.obj
 0001:0003c77a       ?RemoveChunk16@TChunkCache@@QAEHH@Z 0043d77a f chunkcache.obj
 0001:0003c817       ?ChunkDecompress@TChunkCache@@QAEHPAX0K@Z 0043d817 f chunkcache.obj
 0001:0003c9b7       ?ChunkDecompressZ@TChunkCache@@QAEHPAX0K@Z 0043d9b7 f chunkcache.obj
 0001:0003cb00       ?ChunkDecompress16@TChunkCache@@QAEHPAX0K@Z 0043db00 f chunkcache.obj
 0001:0003cb42       ??1TChunkCache@@QAE@XZ     0043db42 f chunkcache.obj
 0001:0003cbef       ?AlwaysOnTop@TMultiImagery@@UAEHPAVTObjectInstance@@@Z 0043dbef f multiimage.obj
 0001:0003cc0c       ?DrawLit@TMultiImagery@@UAEXPAVTObjectInstance@@PAVTSurface@@@Z 0043dc0c f multiimage.obj
 0001:0003cc4c       ?DrawUnlit@TMultiImagery@@UAEXPAVTObjectInstance@@PAVTSurface@@@Z 0043dc4c f multiimage.obj
 0001:0003cc8c       ?NewObjectAnimator@TMultiImagery@@UAEPAVTObjectAnimator@@PAVTObjectInstance@@@Z 0043dc8c f multiimage.obj
 0001:0003cdf0       ?GetScreenRect@TMultiImagery@@UAEXPAVTObjectInstance@@AAUSRect@@@Z 0043ddf0 f multiimage.obj
 0001:0003ce90       ??0TMultiImageryBuilder@@QAE@XZ 0043de90 f multiimage.obj
 0001:0003cec0       ?Build@TMultiImageryBuilder@@UAEPAVTObjectImagery@@H@Z 0043dec0 f multiimage.obj
 0001:0003cf60       ??0TMultiImagery@@QAE@H@Z  0043df60 f multiimage.obj
 0001:0003cfe0       ?GetZ@TMultiImagery@@UAEHPAVTObjectInstance@@PAVTSurface@@@Z 0043dfe0 f multiimage.obj
 0001:0003d000       ?DrawSelected@TMultiImagery@@UAEXPAVTObjectInstance@@PAVTSurface@@@Z 0043e000 f multiimage.obj
 0001:0003d020       ?DrawInvItem@TMultiImagery@@UAEXPAVTObjectInstance@@HH@Z 0043e020 f multiimage.obj
 0001:0003d040       ?GetInvImage@TMultiImagery@@UAEPAVTBitmap@@H@Z 0043e040 f multiimage.obj
 0001:0003d060       ?GetWidth@TMultiImagery@@UAEHH@Z 0043e060 f multiimage.obj
 0001:0003d090       ?GetHeight@TMultiImagery@@UAEHH@Z 0043e090 f multiimage.obj
 0001:0003d0c0       ?GetWorldBoundBox@TMultiImagery@@UAEXHAAH00@Z 0043e0c0 f multiimage.obj
 0001:0003d110       ?GetWorldRegX@TMultiImagery@@UAEHH@Z 0043e110 f multiimage.obj
 0001:0003d140       ?GetWorldRegY@TMultiImagery@@UAEHH@Z 0043e140 f multiimage.obj
 0001:0003d170       ?GetWorldRegZ@TMultiImagery@@UAEHH@Z 0043e170 f multiimage.obj
 0001:0003d1a0       ??_GTMultiImagery@@UAEPAXI@Z 0043e1a0 f multiimage.obj
 0001:0003d1a0       ??_ETMultiImagery@@UAEPAXI@Z 0043e1a0 f multiimage.obj
 0001:0003d1e0       ??1TMultiImagery@@UAE@XZ   0043e1e0 f multiimage.obj
 0001:0003d250       ??0TScreen@@QAE@XZ         0043e250 f screen.obj
 0001:0003d28a       ??1TScreen@@UAE@XZ         0043e28a f screen.obj
 0001:0003d2a9       ?BeginScreen@TScreen@@AAEHXZ 0043e2a9 f screen.obj
 0001:0003d34f       ?EndScreen@TScreen@@AAEXXZ 0043e34f f screen.obj
 0001:0003d3c4       ?FindPane@TScreen@@QAEHPAVTPane@@@Z 0043e3c4 f screen.obj
 0001:0003d432       ?AddPane@TScreen@@QAEHPAVTPane@@H@Z 0043e432 f screen.obj
 0001:0003d490       ?RemovePane@TScreen@@QAEPAVTPane@@H@Z 0043e490 f screen.obj
 0001:0003d4cc       ?SetExclusivePane@TScreen@@QAEHHH@Z 0043e4cc f screen.obj
 0001:0003d54c       ?ReleaseExclusivePane@TScreen@@QAEXH@Z 0043e54c f screen.obj
 0001:0003d5d0       ?RedrawAllPanes@TScreen@@QAEXXZ 0043e5d0 f screen.obj
 0001:0003d710       ?DrawBackground@TScreen@@UAEXXZ 0043e710 f screen.obj
 0001:0003d87f       ?Animate@TScreen@@UAEXH@Z  0043e87f f screen.obj
 0001:0003d9f8       ?MouseClick@TScreen@@UAEXHHH@Z 0043e9f8 f screen.obj
 0001:0003dbfb       ?MouseMove@TScreen@@UAEXHHH@Z 0043ebfb f screen.obj
 0001:0003ddba       ?KeyPress@TScreen@@UAEXHH@Z 0043edba f screen.obj
 0001:0003df16       ?CharPress@TScreen@@UAEXHH@Z 0043ef16 f screen.obj
 0001:0003e072       ?Joystick@TScreen@@UAEXHHH@Z 0043f072 f screen.obj
 0001:0003e1d6       ?Command@TScreen@@UAEXH@Z  0043f1d6 f screen.obj
 0001:0003e1ee       ?ShowScreen@TScreen@@SAPAV1@PAV1@H@Z 0043f1ee f screen.obj
 0001:0003e2ac       ?TimerTick@TScreen@@UAEHH@Z 0043f2ac f screen.obj
 0001:0003e43b       ?TimerLoop@TScreen@@UAEHJ@Z 0043f43b f screen.obj
 0001:0003e881       ?Initialize@TPane@@UAEHXZ  0043f881 f screen.obj
 0001:0003e900       ?SetClipRect@TPane@@UAEXXZ 0043f900 f screen.obj
 0001:0003e97e       ?UpdateBackgroundScrollPos@TPane@@QAEXXZ 0043f97e f screen.obj
 0001:0003e9f1       ?DrawRestoreRect@TPane@@QAEXHHHHK@Z 0043f9f1 f screen.obj
 0001:0003ea30       ??_ETScreen@@UAEPAXI@Z     0043fa30 f screen.obj
 0001:0003ea30       ??_GTScreen@@UAEPAXI@Z     0043fa30 f screen.obj
 0001:0003ea70       ?Initialize@TScreen@@UAEHXZ 0043fa70 f screen.obj
 0001:0003ea90       ?Close@TScreen@@UAEXXZ     0043fa90 f screen.obj
 0001:0003eab0       ??0?$TPointerArray@VTPane@@$0CA@@@QAE@XZ 0043fab0 f screen.obj
 0001:0003eae0       ?Set@?$TPointerArray@VTPane@@$0CA@@@QAEHPAVTPane@@H@Z 0043fae0 f screen.obj
 0001:0003eb40       ??0?$TPointerIterator@VTPane@@@@QAE@PAX@Z 0043fb40 f screen.obj
 0001:0003eb80       ?Item@?$TPointerIterator@VTPane@@@@QAEPAVTPane@@XZ 0043fb80 f screen.obj
 0001:0003eba0       ?ItemNum@?$TPointerIterator@VTPane@@@@QAEHXZ 0043fba0 f screen.obj
 0001:0003ebc0       ??E?$TPointerIterator@VTPane@@@@QAEHH@Z 0043fbc0 f screen.obj
 0001:0003ec10       ??B?$TPointerIterator@VTPane@@@@QAEHXZ 0043fc10 f screen.obj
 0001:0003ec50       ?Remove@?$TPointerArray@VTPane@@$0CA@@@QAEXH@Z 0043fc50 f screen.obj
 0001:0003eca0       ?NumItems@?$TPointerArray@VTPane@@$0CA@@@QAEHXZ 0043fca0 f screen.obj
 0001:0003ecc0       ?Clear@?$TPointerArray@VTPane@@$0CA@@@QAEXXZ 0043fcc0 f screen.obj
 0001:0003ece0       ??A?$TPointerArray@VTPane@@$0CA@@@QAEPAVTPane@@H@Z 0043fce0 f screen.obj
 0001:0003ed10       ?BtnEquip@@YAXXZ           0043fd10 f multictrl.obj
 0001:0003ed2c       ?BtnMap@@YAXXZ             0043fd2c f multictrl.obj
 0001:0003ed48       ?BtnSpell@@YAXXZ           0043fd48 f multictrl.obj
 0001:0003ed64       ?BtnStats@@YAXXZ           0043fd64 f multictrl.obj
 0001:0003ed80       ?Initialize@TMultiCtrlPane@@UAEHXZ 0043fd80 f multictrl.obj
 0001:0003eef8       ?Close@TMultiCtrlPane@@UAEXXZ 0043fef8 f multictrl.obj
 0001:0003ef2c       ?ActivatePane@TMultiCtrlPane@@QAEXH@Z 0043ff2c f multictrl.obj
 0001:0003efc3       ?Hide@TMultiCtrlPane@@UAEXXZ 0043ffc3 f multictrl.obj
 0001:0003f018       ?Show@TMultiCtrlPane@@UAEXXZ 00440018 f multictrl.obj
 0001:0003f05b       ?RedrawCurPane@TMultiCtrlPane@@QAEXXZ 0044005b f multictrl.obj
 0001:0003f107       ?Use@TFood@@UAEHH@Z        00440107 f food.obj
 0001:0003f150       ??0TFoodBuilder@@QAE@XZ    00440150 f food.obj
 0001:0003f180       ?Build@TFoodBuilder@@UAEPAVTObjectInstance@@PAVTObjectImagery@@@Z 00440180 f food.obj
 0001:0003f220       ??0TFood@@QAE@PAVTObjectImagery@@@Z 00440220 f food.obj
 0001:0003f2a0       ??_ETFood@@UAEPAXI@Z       004402a0 f food.obj
 0001:0003f2a0       ??_GTFood@@UAEPAXI@Z       004402a0 f food.obj
 0001:0003f2e0       ??1TFood@@UAE@XZ           004402e0 f food.obj
 0001:0003f340       ?Build@TFoodBuilder@@UAEPAVTObjectInstance@@PAVSObjectDef@@PAVTObjectImagery@@@Z 00440340 f food.obj
 0001:0003f3e0       ??0TFood@@QAE@PAVSObjectDef@@PAVTObjectImagery@@@Z 004403e0 f food.obj
 0001:0003f460       ??0THoleAnimator@@QAE@PAVTObjectInstance@@@Z 00440460 f holeanim.obj
 0001:0003f554       ?Animate@THoleAnimator@@UAEXH@Z 00440554 f holeanim.obj
 0001:0003f774       ??1THoleAnimator@@UAE@XZ   00440774 f holeanim.obj
 0001:0003f7e0       ??_ETHoleAnimator@@UAEPAXI@Z 004407e0 f holeanim.obj
 0001:0003f7e0       ??_GTHoleAnimator@@UAEPAXI@Z 004407e0 f holeanim.obj
 0001:0003f820       ?Initialize@TTextBar@@UAEHXZ 00440820 f textbar.obj
 0001:0003f84f       ?Close@TTextBar@@UAEXXZ    0044084f f textbar.obj
 0001:0003f865       ?DrawBackground@TTextBar@@UAEXXZ 00440865 f textbar.obj
 0001:0003f8eb       ?Print@TTextBar@@QAEXPAD@Z 004408eb f textbar.obj
 0001:0003f940       ?Draw@@YAHPAUSDrawBlock@@PAUSDrawParam@@P6AX01@Z@Z 00440940 f graphics.obj
 0001:000402bd       ?Clip@@YAHPAUSDrawBlock@@PAUSDrawParam@@1AAH@Z 004412bd f graphics.obj
 0001:00040f34       ?StretchClip@@YAHPAUSDrawBlock@@PAUSDrawParam@@1AAH@Z 00441f34 f graphics.obj
 0001:00040f4f       ?Put@@YAHPAUSDrawBlock@@PAUSDrawParam@@@Z 00441f4f f graphics.obj
 0001:00041135       ?Put8@@YAHPAUSDrawBlock@@PAUSDrawParam@@@Z 00442135 f graphics.obj
 0001:000412d0       ?Put88@@YAHPAUSDrawBlock@@PAUSDrawParam@@@Z 004422d0 f graphics.obj
 0001:0004148f       ?Put816@@YAHPAUSDrawBlock@@PAUSDrawParam@@@Z 0044248f f graphics.obj
 0001:00041622       ?Put32@@YAHPAUSDrawBlock@@PAUSDrawParam@@@Z 00442622 f graphics.obj
 0001:00041901       ?ShutterPut@@YAHPAUSDrawBlock@@PAUSDrawParam@@@Z 00442901 f graphics.obj
 0001:00041b1b       ?ShutterPut8@@YAHPAUSDrawBlock@@PAUSDrawParam@@@Z 00442b1b f graphics.obj
 0001:00041d2c       ?ShutterPut816@@YAHPAUSDrawBlock@@PAUSDrawParam@@@Z 00442d2c f graphics.obj
 0001:00041f36       ?ShutterPut32@@YAHPAUSDrawBlock@@PAUSDrawParam@@@Z 00442f36 f graphics.obj
 0001:00042331       ?PutChunk8@@YAHPAUSDrawBlock@@PAUSDrawParam@@@Z 00443331 f graphics.obj
 0001:00042882       ?TransPut@@YAHPAUSDrawBlock@@PAUSDrawParam@@@Z 00443882 f graphics.obj
 0001:00042ad4       ?TransPut8@@YAHPAUSDrawBlock@@PAUSDrawParam@@@Z 00443ad4 f graphics.obj
 0001:00042c84       ?TransZStaticPut8@@YAHPAUSDrawBlock@@PAUSDrawParam@@@Z 00443c84 f graphics.obj
 0001:00042eb0       ?TransPut816@@YAHPAUSDrawBlock@@PAUSDrawParam@@@Z 00443eb0 f graphics.obj
 0001:0004305e       ?TransPut88@@YAHPAUSDrawBlock@@PAUSDrawParam@@@Z 0044405e f graphics.obj
 0001:000431eb       ?TransPutColor@@YAHPAUSDrawBlock@@PAUSDrawParam@@@Z 004441eb f graphics.obj
 0001:000433b3       ?TransPutSVChange@@YAHPAUSDrawBlock@@PAUSDrawParam@@@Z 004443b3 f graphics.obj
 0001:00043c80       ?PutHueChange@@YAHPAUSDrawBlock@@PAUSDrawParam@@@Z 00444c80 f graphics.obj
 0001:00044257       ?TransPutKey@@YAHPAUSDrawBlock@@PAUSDrawParam@@@Z 00445257 f graphics.obj
 0001:00044532       ?TransPut32@@YAHPAUSDrawBlock@@PAUSDrawParam@@@Z 00445532 f graphics.obj
 0001:00044835       ?Stretch@@YAHPAUSDrawBlock@@PAUSDrawParam@@@Z 00445835 f graphics.obj
 0001:00044847       ?TransStretch@@YAHPAUSDrawBlock@@PAUSDrawParam@@@Z 00445847 f graphics.obj
 0001:00044859       ?Mask@@YAHPAUSDrawBlock@@PAUSDrawParam@@@Z 00445859 f graphics.obj
 0001:0004496c       ?MaskStretch@@YAHPAUSDrawBlock@@PAUSDrawParam@@@Z 0044596c f graphics.obj
 0001:0004497e       ?Translucent@@YAHPAUSDrawBlock@@PAUSDrawParam@@@Z 0044597e f graphics.obj
 0001:00044b41       ?TransTranslucent@@YAHPAUSDrawBlock@@PAUSDrawParam@@@Z 00445b41 f graphics.obj
 0001:00044d0e       ?TranslucentStretch@@YAHPAUSDrawBlock@@PAUSDrawParam@@@Z 00445d0e f graphics.obj
 0001:00044d20       ?AlphaLighten@@YAHPAUSDrawBlock@@PAUSDrawParam@@@Z 00445d20 f graphics.obj
 0001:00044fbb       ?Alpha@@YAHPAUSDrawBlock@@PAUSDrawParam@@@Z 00445fbb f graphics.obj
 0001:00045225       ?Alpha8@@YAHPAUSDrawBlock@@PAUSDrawParam@@@Z 00446225 f graphics.obj
 0001:000454da       ?AlphaZ@@YAHPAUSDrawBlock@@PAUSDrawParam@@@Z 004464da f graphics.obj
 0001:000457a2       ?AlphaZ8@@YAHPAUSDrawBlock@@PAUSDrawParam@@@Z 004467a2 f graphics.obj
 0001:00045a9a       ?AlphaDim@@YAHPAUSDrawBlock@@PAUSDrawParam@@@Z 00446a9a f graphics.obj
 0001:00045d56       ?AlphaDimZ@@YAHPAUSDrawBlock@@PAUSDrawParam@@@Z 00446d56 f graphics.obj
 0001:0004606d       ?Alpha32@@YAHPAUSDrawBlock@@PAUSDrawParam@@@Z 0044706d f graphics.obj
 0001:00046342       ?Alias@@YAHPAUSDrawBlock@@PAUSDrawParam@@@Z 00447342 f graphics.obj
 0001:00046594       ?AliasColor@@YAHPAUSDrawBlock@@PAUSDrawParam@@@Z 00447594 f graphics.obj
 0001:0004680a       ?Alias32@@YAHPAUSDrawBlock@@PAUSDrawParam@@@Z 0044780a f graphics.obj
 0001:00046b39       ?DrawSelected8@@YAHPAUSDrawBlock@@PAUSDrawParam@@@Z 00447b39 f graphics.obj
 0001:00046d42       ?DrawSelected@@YAHPAUSDrawBlock@@PAUSDrawParam@@@Z 00447d42 f graphics.obj
 0001:00046fa4       ?ZPut@@YAHPAUSDrawBlock@@PAUSDrawParam@@@Z 00447fa4 f graphics.obj
 0001:000471da       ?ZPut8@@YAHPAUSDrawBlock@@PAUSDrawParam@@@Z 004481da f graphics.obj
 0001:00047480       ?ZPut816@@YAHPAUSDrawBlock@@PAUSDrawParam@@@Z 00448480 f graphics.obj
 0001:00047709       ?ZPut32@@YAHPAUSDrawBlock@@PAUSDrawParam@@@Z 00448709 f graphics.obj
 0001:00047b9e       ?ShutterZPut@@YAHPAUSDrawBlock@@PAUSDrawParam@@@Z 00448b9e f graphics.obj
 0001:00047e50       ?ShutterZPut8@@YAHPAUSDrawBlock@@PAUSDrawParam@@@Z 00448e50 f graphics.obj
 0001:00048170       ?ShutterZPut816@@YAHPAUSDrawBlock@@PAUSDrawParam@@@Z 00449170 f graphics.obj
 0001:00048478       ?ShutterZPut32@@YAHPAUSDrawBlock@@PAUSDrawParam@@@Z 00449478 f graphics.obj
 0001:00048a66       ?ZNormalPut@@YAHPAUSDrawBlock@@PAUSDrawParam@@@Z 00449a66 f graphics.obj
 0001:00048cff       ?ZNormalPut8@@YAHPAUSDrawBlock@@PAUSDrawParam@@@Z 00449cff f graphics.obj
 0001:00048ff3       ?ZNormalPut816@@YAHPAUSDrawBlock@@PAUSDrawParam@@@Z 00449ff3 f graphics.obj
 0001:000492e5       ?ZNormalPut32@@YAHPAUSDrawBlock@@PAUSDrawParam@@@Z 0044a2e5 f graphics.obj
 0001:000497e1       ?ShutterZNormalPut@@YAHPAUSDrawBlock@@PAUSDrawParam@@@Z 0044a7e1 f graphics.obj
 0001:00049ad4       ?ShutterZNormalPut8@@YAHPAUSDrawBlock@@PAUSDrawParam@@@Z 0044aad4 f graphics.obj
 0001:00049e27       ?ShutterZNormalPut816@@YAHPAUSDrawBlock@@PAUSDrawParam@@@Z 0044ae27 f graphics.obj
 0001:0004a171       ?ShutterZNormalPut32@@YAHPAUSDrawBlock@@PAUSDrawParam@@@Z 0044b171 f graphics.obj
 0001:0004a735       ?ParamZFind@@YAHPAUSDrawBlock@@PAUSDrawParam@@@Z 0044b735 f graphics.obj
 0001:0004aa19       ?ZStretch@@YAHPAUSDrawBlock@@PAUSDrawParam@@@Z 0044ba19 f graphics.obj
 0001:0004aa66       ?ZMaskStretch@@YAHPAUSDrawBlock@@PAUSDrawParam@@@Z 0044ba66 f graphics.obj
 0001:0004aab3       ?Clear@@YAHPAUSDrawBlock@@PAUSDrawParam@@@Z 0044bab3 f graphics.obj
 0001:0004ae39       ?Convert15to16@@YAHPAVTBitmapData@@@Z 0044be39 f graphics.obj
 0001:0004b322       ?ConvertPal15to16@@YAHPAVTBitmapData@@@Z 0044c322 f graphics.obj
 0001:0004b3ed       ?Convert16to15@@YAHPAVTBitmapData@@@Z 0044c3ed f graphics.obj
 0001:0004b8c3       ?ConvertPal16to15@@YAHPAVTBitmapData@@@Z 0044c8c3 f graphics.obj
 0001:0004b98e       ?ParamLine@@YAHHHHHAAUSColor@@PAUSDrawBlock@@PAUSDrawParam@@@Z 0044c98e f graphics.obj
 0001:0004bfe4       ?ParamWriteText@@YAHPAUSDrawBlock@@PAUSDrawParam@@HHPADPAVTFont@@HP6AX01@ZH@Z 0044cfe4 f graphics.obj
 0001:0004c32c       ?ParamNumLinesInText@@YAXPADPAVTFont@@H@Z 0044d32c f graphics.obj
 0001:0004c33c       ?ParamFrame@@YAXPAUSDrawBlock@@PAUSDrawParam@@HP6AX01@Z@Z 0044d33c f graphics.obj
 0001:0004c518       ?ZFindChunk@@YAGPAUSDrawBlock@@PAUSDrawParam@@@Z 0044d518 f graphics.obj
 0001:0004c5f0       ?SetupDraw@@YAXPAH00000PAUSDrawBlock@@PAUSDrawParam@@@Z 0044d5f0 f graphics.obj
 0001:0004c6d0       ?SetupDraw24@@YAXPAH00000PAUSDrawBlock@@PAUSDrawParam@@@Z 0044d6d0 f graphics.obj
 0001:0004c7e0       ?StartHeight@TFont@@QAEHD@Z 0044d7e0 f graphics.obj
 0001:0004c810       ?DrawRight@TFont@@QAEHD@Z  0044d810 f graphics.obj
 0001:0004c850       ?DrawLeft@TFont@@QAEHD@Z   0044d850 f graphics.obj
 0001:0004c890       ?Initialize@TSpellPane@@UAEHXZ 0044d890 f spell.obj
 0001:0004c91b       ?Close@TSpellPane@@UAEXXZ  0044d91b f spell.obj
 0001:0004c97f       ?DrawBackground@TSpellPane@@UAEXXZ 0044d97f f spell.obj
 0001:0004cb1a       ?KeyPress@TSpellPane@@UAEXHH@Z 0044db1a f spell.obj
 0001:0004cb56       ?MouseClick@TSpellPane@@UAEXHHH@Z 0044db56 f spell.obj
 0001:0004cb78       ?OnTalisman@TSpellPane@@QAEHHH@Z 0044db78 f spell.obj
 0001:0004cbe9       ?Invoke@TSpellPane@@AAEXPAHH@Z 0044dbe9 f spell.obj
 0001:0004cc27       ?BtnSpellOne@@YAXXZ        0044dc27 f spell.obj
 0001:0004cc37       ?BtnSpellTwo@@YAXXZ        0044dc37 f spell.obj
 0001:0004cc47       ?BtnSpellThree@@YAXXZ      0044dc47 f spell.obj
 0001:0004cc57       ?BtnSpellFour@@YAXXZ       0044dc57 f spell.obj
 0001:0004cc67       ?Initialize@TQuickSpellPane@@UAEHXZ 0044dc67 f spell.obj
 0001:0004cc8a       ?Close@TQuickSpellPane@@UAEXXZ 0044dc8a f spell.obj
 0001:0004cca8       ?DrawBackground@TQuickSpellPane@@UAEXXZ 0044dca8 f spell.obj
 0001:0004ccd0       ?Decompress@@YAHPAUSDrawBlock@@PAUSDrawParam@@H@Z 0044dcd0 f decompress16.obj
 0001:0004cfe7       ?ClipDecompress@@YAHPAUSDrawBlock@@PAUSDrawParam@@H@Z 0044dfe7 f decompress16.obj
 0001:0004d598       ?AlphaDecompress@@YAHPAUSDrawBlock@@PAUSDrawParam@@@Z 0044e598 f decompress16.obj
 0001:0004d93a       ?AlphaStaticZDecompress@@YAHPAUSDrawBlock@@PAUSDrawParam@@@Z 0044e93a f decompress16.obj
 0001:0004dd1d       ?ZBufferDecompress@@YAHPAUSDrawBlock@@PAUSDrawParam@@@Z 0044ed1d f decompress16.obj
 0001:0004e061       ?ClipZBufferDecompress@@YAHPAUSDrawBlock@@PAUSDrawParam@@@Z 0044f061 f decompress16.obj
 0001:0004e523       ?ZNormalDecompress@@YAHPAUSDrawBlock@@PAUSDrawParam@@@Z 0044f523 f decompress16.obj
 0001:0004e8d0       ?ZFindDecompress@@YAGPAUSDrawBlock@@PAUSDrawParam@@@Z 0044f8d0 f decompress16.obj
 0001:0004eb00       ??0TAnimation@@QAE@XZ      0044fb00 f animation.obj
 0001:0004eb21       ??1TAnimation@@QAE@XZ      0044fb21 f animation.obj
 0001:0004eb37       ?Load@TAnimation@@SAPAV1@H@Z 0044fb37 f animation.obj
 0001:0004eb5a       ?Decompress@TAnimation@@QAEHPAUSDrawBlock@@HH@Z 0044fb5a f animation.obj
 0001:0004eb77       ?Put@TAnimation@@QAEXPAVTSurface@@PAXHPAUSDrawParam@@@Z 0044fb77 f animation.obj
 0001:0004edc6       ?Stretch@TAnimation@@QAEXPAVTSurface@@0HHHH@Z 0044fdc6 f animation.obj
 0001:0004edde       ?GetFrame@TAnimation@@QAEPAVTBitmap@@H@Z 0044fdde f animation.obj
 0001:0004ee1e       ?Move@TAnimation@@AAEXAAH0HH@Z 0044fe1e f animation.obj
 0001:0004ee36       ?SizeMove@TAnimation@@AAEXAAH0HHH@Z 0044fe36 f animation.obj
 0001:0004ee50       ??0TAnimationData@@QAE@XZ  0044fe50 f animation.obj
 0001:0004ee80       ??0SAnimationFrame@@QAE@XZ 0044fe80 f animation.obj
 0001:0004eeb0       ??0?$TOffset@VTBitmap@@@@QAE@XZ 0044feb0 f animation.obj
 0001:0004eee0       ??0OFFSET@@QAE@XZ          0044fee0 f animation.obj
 0001:0004ef00       ??B?$TOffset@VTBitmap@@@@QAEPAVTBitmap@@XZ 0044ff00 f animation.obj
 0001:0004efa7       ?ClearHole@THoleInst@@QAEXXZ 0044ffa7 f holeinst.obj
 0001:0004efc7       ??0THoleInst@@QAE@XZ       0044ffc7 f holeinst.obj
 0001:0004f03e       ??0THoleInst@@QAE@US3DPoint@@H@Z 0045003e f holeinst.obj
 0001:0004f0cf       ??0THoleInst@@QAE@PAVTObjectImagery@@@Z 004500cf f holeinst.obj
 0001:0004f158       ??0THoleInst@@QAE@PAVSObjectDef@@PAVTObjectImagery@@@Z 00450158 f holeinst.obj
 0001:0004f20c       ??1THoleInst@@UAE@XZ       0045020c f holeinst.obj
 0001:0004f274       ?RepaintObject@THoleInst@@UAEXXZ 00450274 f holeinst.obj
 0001:0004f28a       ?AddToInventory@THoleInst@@UAEHH@Z 0045028a f holeinst.obj
 0001:0004f2b9       ?SendToInventory@THoleInst@@UAEXHH@Z 004502b9 f holeinst.obj
 0001:0004f2e5       ?RedrawBackground@THoleInst@@QAEXH@Z 004502e5 f holeinst.obj
 0001:0004f336       ?Move@THoleInst@@UAEKXZ    00450336 f holeinst.obj
 0001:0004f49f       ?Pulse@THoleInst@@UAEXXZ   0045049f f holeinst.obj
 0001:0004f505       ?Animate@THoleInst@@UAEXH@Z 00450505 f holeinst.obj
 0001:0004f552       ?AI@THoleInst@@UAEXXZ      00450552 f holeinst.obj
 0001:0004f568       ?OnScreen@THoleInst@@UAEXXZ 00450568 f holeinst.obj
 0001:0004f615       ?OffScreen@THoleInst@@UAEXXZ 00450615 f holeinst.obj
 0001:0004f66e       ?RedrawLight@THoleInst@@QAEXXZ 0045066e f holeinst.obj
 0001:0004f6c5       ?GetLightRect@THoleInst@@QAEXAAUSRect@@@Z 004506c5 f holeinst.obj
 0001:0004f773       ?SetLightIntensity@THoleInst@@QAEXE@Z 00450773 f holeinst.obj
 0001:0004f819       ?SetLightMultiplier@THoleInst@@QAEXH@Z 00450819 f holeinst.obj
 0001:0004f87c       ?SetLightPos@THoleInst@@QAEXAAUS3DPoint@@@Z 0045087c f holeinst.obj
 0001:0004f8f0       ?SetLightColor@THoleInst@@QAEXUSColor@@@Z 004508f0 f holeinst.obj
 0001:0004f9d5       ?SetCommandDone@THoleInst@@UAEXH@Z 004509d5 f holeinst.obj
 0001:0004f9f6       ?Load@THoleInst@@UAEXAAVTInputStream@@@Z 004509f6 f holeinst.obj
 0001:0004fa0e       ?Save@THoleInst@@UAEXAAVTOutputStream@@@Z 00450a0e f holeinst.obj
 0001:0004fa30       ??_GTHoleInst@@UAEPAXI@Z   00450a30 f holeinst.obj
 0001:0004fa30       ??_ETHoleInst@@UAEPAXI@Z   00450a30 f holeinst.obj
 0001:0004fa70       ?GetZ@THoleInst@@UAEHPAVTSurface@@@Z 00450a70 f holeinst.obj
 0001:0004fa90       ?DrawInvItem@THoleInst@@UAEXHH@Z 00450a90 f holeinst.obj
 0001:0004fab0       ?AlwaysOnTop@THoleInst@@UAEHXZ 00450ab0 f holeinst.obj
 0001:0004fb00       ?SetState@THoleInst@@UAEHH@Z 00450b00 f holeinst.obj
 0001:0004fb30       ?InventoryImage@THoleInst@@UAEPAVTBitmap@@XZ 00450b30 f holeinst.obj
 0001:0004fb90       ?IsInventoryItem@THoleInst@@UAEHXZ 00450b90 f holeinst.obj
 0001:0004fc00       ?FindState@THoleInst@@UAEHPAD@Z 00450c00 f holeinst.obj
 0001:0004fc20       ?CommandDone@THoleInst@@UAEHXZ 00450c20 f holeinst.obj
 0001:0004fc40       ??0THoleInstBuilder@@QAE@XZ 00450c40 f holeinst.obj
 0001:0004fc70       ?Build@THoleInstBuilder@@UAEPAVTObjectInstance@@PAVTObjectImagery@@@Z 00450c70 f holeinst.obj
 0001:0004fd10       ?Build@THoleInstBuilder@@UAEPAVTObjectInstance@@PAVSObjectDef@@PAVTObjectImagery@@@Z 00450d10 f holeinst.obj
 0001:0004fdb0       ?Pulse@TBattle@@UAEXXZ     00450db0 f battle.obj
 0001:0004fdce       ?Clear@TBattle@@QAEXXZ     00450dce f battle.obj
 0001:0004fe25       ?Attack@TBattle@@QAEXHHHHHKKH@Z 00450e25 f battle.obj
 0001:0004ff29       ?Ambush@TBattle@@QAEXHHHHHKKH@Z 00450f29 f battle.obj
 0001:0005005f       ?Defend@TBattle@@QAEXHHHHHKKH@Z 0045105f f battle.obj
 0001:00050180       ?Guard@TBattle@@QAEXHHHHKKH@Z 00451180 f battle.obj
 0001:000502ce       ?Patrol@TBattle@@QAEXHHHHKKH@Z 004512ce f battle.obj
 0001:0005041c       ?Flee@TBattle@@QAEXHHHKK@Z 0045141c f battle.obj
 0001:00050520       ?CDPlayTrack@@YAXH@Z       00451520 f sound.obj
 0001:00050619       ?CDPlayRandomTrack@@YAXXZ  00451619 f sound.obj
 0001:0005076e       ?CDStop@@YAXXZ             0045176e f sound.obj
 0001:000507a1       ?CDPlaying@@YAHXZ          004517a1 f sound.obj
 0001:000507e9       ?CDSetVolume@@YAXG@Z       004517e9 f sound.obj
 0001:0005086c       ?Load@TSound@@SAPAV1@H@Z   0045186c f sound.obj
 0001:000508a1       ?Load@TSound@@SAPAV1@PAVTWaveData@@@Z 004518a1 f sound.obj
 0001:00050a95       ?Play@TSound@@QAEXH@Z      00451a95 f sound.obj
 0001:00050b29       ?Stop@TSound@@QAEXXZ       00451b29 f sound.obj
 0001:00050b72       ?Initialize@TSoundPlayer@@QAEHXZ 00451b72 f sound.obj
 0001:00050c5c       ?Close@TSoundPlayer@@QAEXXZ 00451c5c f sound.obj
 0001:00050cc0       ?Pause@TSoundPlayer@@QAEXXZ 00451cc0 f sound.obj
 0001:00050cf8       ?Unpause@TSoundPlayer@@QAEXXZ 00451cf8 f sound.obj
 0001:00050d36       ?SetVolume@TSoundPlayer@@QAEXH@Z 00451d36 f sound.obj
 0001:00050d74       ?FindSound@TSoundPlayer@@AAEPAUSSoundRef@@PAD@Z 00451d74 f sound.obj
 0001:00050e11       ?Mount@TSoundPlayer@@QAEXPAD@Z 00451e11 f sound.obj
 0001:00050e93       ?Unmount@TSoundPlayer@@QAEXPAD@Z 00451e93 f sound.obj
 0001:00050f30       ?Play@TSoundPlayer@@QAEXPADH@Z 00451f30 f sound.obj
 0001:00050f92       ?Stop@TSoundPlayer@@QAEXPAD@Z 00451f92 f sound.obj
 0001:00050ff0       ?ReadSoundList@TSoundPlayer@@AAEXXZ 00451ff0 f sound.obj
 0001:000511a0       ??_GTSound@@QAEPAXI@Z      004521a0 f sound.obj
 0001:000511e0       ??0TSound@@QAE@XZ          004521e0 f sound.obj
 0001:00051210       ??1TSound@@QAE@XZ          00452210 f sound.obj
 0001:00051250       ?Functioning@TSoundPlayer@@QAEHXZ 00452250 f sound.obj
 0001:00051290       ?AllocDecBuffer@TAnimSprite@@IAEXJ@Z 00452290 f animsprite.obj
 0001:000512a8       ?FreeDecBuffer@TAnimSprite@@IAEXXZ 004522a8 f animsprite.obj
 0001:000512be       ?Draw@TAnimSprite@@IAEXPAVTSurface@@@Z 004522be f animsprite.obj
 0001:000512d6       ?Erase@TAnimSprite@@IAEXPAVTSurface@@@Z 004522d6 f animsprite.obj
 0001:000512ee       ?NextFrame@TAnimSprite@@IAEXXZ 004522ee f animsprite.obj
 0001:00051304       ?Move@TAnimSprite@@IAEXHH@Z 00452304 f animsprite.obj
 0001:0005131c       ?Goto@TAnimSprite@@IAEXHH@Z 0045231c f animsprite.obj
 0001:00051334       ?SizeMove@TAnimSprite@@IAEXHH@Z 00452334 f animsprite.obj
 0001:0005134c       ?SizeGoto@TAnimSprite@@IAEXHH@Z 0045234c f animsprite.obj
 0001:00051364       ?Done@TAnimSprite@@IAEHXZ  00452364 f animsprite.obj
 0001:0005154e       ?MemCopy@@YAXPAX0H@Z       0045254e f editor.obj
 0001:000515ea       ?sprintbit@@YAPADHQAPADPAD@Z 004525ea f editor.obj
 0001:00051656       ?StartEditor@@YAXXZ        00452656 f editor.obj
 0001:00051804       ?ShutDownEditor@@YAXXZ     00452804 f editor.obj
 0001:00051953       ?GetTerrainType@@YAEPAEHH@Z 00452953 f editor.obj
 0001:000519a7       ?BaseTerrain@@YAHPAEHH@Z   004529a7 f editor.obj
 0001:00051a4e       ?GetTileCode@@YAHPAEHH@Z   00452a4e f editor.obj
 0001:00051afd       ?TerrainHeight@@YAHPAEHH@Z 00452afd f editor.obj
 0001:00051c6e       ?TerrainToCode@@YAHD@Z     00452c6e f editor.obj
 0001:00051cf7       ?FindSuperTile@@YAHPAEHH0PAH@Z 00452cf7 f editor.obj
 0001:00051fc2       ?overlay@@YAHPAEHH@Z       00452fc2 f editor.obj
 0001:0005201a       ?GetOverlayTile@@YAHPAEHHH@Z 0045301a f editor.obj
 0001:00052252       ?GenerateObj@@YAPAVTObjectInstance@@PAVTSector@@PAE1HHHHHH@Z 00453252 f editor.obj
 0001:0005243a       ?GenerateMap@@YAXHHHH@Z    0045343a f editor.obj
 0001:00052db7       ?Initialize@TTextPane@@UAEHXZ 00453db7 f editor.obj
 0001:00052eb8       ?Close@TTextPane@@UAEXXZ   00453eb8 f editor.obj
 0001:00052ee9       ?DrawBackground@TTextPane@@UAEXXZ 00453ee9 f editor.obj
 0001:00052f7f       ?endofline@@YAHPAD@Z       00453f7f f editor.obj
 0001:00052feb       ?InsertText@TTextPane@@QAEHPAD@Z 00453feb f editor.obj
 0001:00053129       ?RemoveText@TTextPane@@QAEHHH@Z 00454129 f editor.obj
 0001:0005323b       ?UpdateWindow@TTextPane@@QAEXXZ 0045423b f editor.obj
 0001:0005332d       ?SetCursor@TTextPane@@QAEHHHH@Z 0045432d f editor.obj
 0001:00053580       ?KeyPress@TTextPane@@UAEXHH@Z 00454580 f editor.obj
 0001:0005391b       ?CharPress@TTextPane@@UAEXHH@Z 0045491b f editor.obj
 0001:00053986       ?Initialize@TConsolePane@@UAEHXZ 00454986 f editor.obj
 0001:00053a15       ?SetupMouseBitmap@TConsolePane@@QAEXHH@Z 00454a15 f editor.obj
 0001:00053aa9       ?ChainMouse@TConsolePane@@QAEXP6AXHH@ZHHHHHH@Z 00454aa9 f editor.obj
 0001:00053bee       ?SetBounds@TConsolePane@@QAEXXZ 00454bee f editor.obj
 0001:00053e82       ?AddAxis@TConsolePane@@QAEHPAVTObjectInstance@@@Z 00454e82 f editor.obj
 0001:00053f2a       ?ClearAxis@TConsolePane@@QAEXXZ 00454f2a f editor.obj
 0001:00053fa4       ?KeyPress@TConsolePane@@UAEXHH@Z 00454fa4 f editor.obj
 0001:0005458a       ?MouseMove@TConsolePane@@UAEXHHH@Z 0045558a f editor.obj
 0001:0005461b       ?MouseClick@TConsolePane@@UAEXHHH@Z 0045561b f editor.obj
 0001:00054834       ?DrawBackground@TConsolePane@@UAEXXZ 00455834 f editor.obj
 0001:000549aa       ?Input@TConsolePane@@UAEHPAD@Z 004559aa f editor.obj
 0001:00054d5a       ?Output@TConsolePane@@UAEHPAD@Z 00455d5a f editor.obj
 0001:00054dad       ?Initialize@TScriptPane@@UAEHXZ 00455dad f editor.obj
 0001:00054dda       ?LoadScript@TScriptPane@@QAEXPAVTObjectInstance@@@Z 00455dda f editor.obj
 0001:00054e66       ?SaveScript@TScriptPane@@QAEXXZ 00455e66 f editor.obj
 0001:00054f08       ?KeyPress@TScriptPane@@UAEXHH@Z 00455f08 f editor.obj
 0001:00054f89       ?Initialize@TScrollEditorPane@@UAEHXZ 00455f89 f editor.obj
 0001:00054fc4       ?SetScroll@TScrollEditorPane@@QAEXPAVTObjectInstance@@@Z 00455fc4 f editor.obj
 0001:0005505f       ?SaveText@TScrollEditorPane@@QAEXXZ 0045605f f editor.obj
 0001:000550e7       ?KeyPress@TScrollEditorPane@@UAEXHH@Z 004560e7 f editor.obj
 0001:00055168       ?CmdSelect@@YAHPAVTObjectInstance@@AAVTToken@@@Z 00456168 f editor.obj
 0001:000553c7       ?CmdDeselect@@YAHPAVTObjectInstance@@AAVTToken@@@Z 004563c7 f editor.obj
 0001:00055433       ?CmdAdd@@YAHPAVTObjectInstance@@AAVTToken@@@Z 00456433 f editor.obj
 0001:00055c85       ?CmdGenerate@@YAHPAVTObjectInstance@@AAVTToken@@@Z 00456c85 f editor.obj
 0001:00055d07       ?CmdCalcWalkmap@@YAHPAVTObjectInstance@@AAVTToken@@@Z 00456d07 f editor.obj
 0001:00055d23       ?CmdSaveWalkmap@@YAHPAVTObjectInstance@@AAVTToken@@@Z 00456d23 f editor.obj
 0001:00055d58       ?CmdWalkmap@@YAHPAVTObjectInstance@@AAVTToken@@@Z 00456d58 f editor.obj
 0001:00055e52       ?CmdState@@YAHPAVTObjectInstance@@AAVTToken@@@Z 00456e52 f editor.obj
 0001:00055eb2       ?CmdReveal@@YAHPAVTObjectInstance@@AAVTToken@@@Z 00456eb2 f editor.obj
 0001:00055f19       ?CmdLevel@@YAHPAVTObjectInstance@@AAVTToken@@@Z 00456f19 f editor.obj
 0001:00055f63       ?CmdCGSGen@@YAHPAVTObjectInstance@@AAVTToken@@@Z 00456f63 f editor.obj
 0001:000562c7       ?CmdUnusedImagery@@YAHPAVTObjectInstance@@AAVTToken@@@Z 004572c7 f editor.obj
 0001:00056388       ?CmdTemplate@@YAHPAVTObjectInstance@@AAVTToken@@@Z 00457388 f editor.obj
 0001:00056594       ?CmdText@@YAHPAVTObjectInstance@@AAVTToken@@@Z 00457594 f editor.obj
 0001:000565d9       ?CmdUndo@@YAHPAVTObjectInstance@@AAVTToken@@@Z 004575d9 f editor.obj
 0001:000565f5       ?CmdMove@@YAHPAVTObjectInstance@@AAVTToken@@@Z 004575f5 f editor.obj
 0001:00056703       ?CmdDelete@@YAHPAVTObjectInstance@@AAVTToken@@@Z 00457703 f editor.obj
 0001:00056756       ?CmdStat@@YAHPAVTObjectInstance@@AAVTToken@@@Z 00457756 f editor.obj
 0001:0005691a       ?CmdScript@@YAHPAVTObjectInstance@@AAVTToken@@@Z 0045791a f editor.obj
 0001:0005696f       ?CmdGroup@@YAHPAVTObjectInstance@@AAVTToken@@@Z 0045796f f editor.obj
 0001:0005698e       ?CmdCenterOn@@YAHPAVTObjectInstance@@AAVTToken@@@Z 0045798e f editor.obj
 0001:000569c5       ?CmdMapPos@@YAHPAVTObjectInstance@@AAVTToken@@@Z 004579c5 f editor.obj
 0001:00056a1f       ?ShowObjList@@YAHPAVTObjectClass@@PAD@Z 00457a1f f editor.obj
 0001:00056b43       ?ShowObjTypeInfo@@YAXPAVTObjectClass@@H@Z 00457b43 f editor.obj
 0001:00056cbc       ?CmdShow@@YAHPAVTObjectInstance@@AAVTToken@@@Z 00457cbc f editor.obj
 0001:00056ebb       ?Ambient@@YAXHH@Z          00457ebb f editor.obj
 0001:00056ee9       ?CmdAmbient@@YAHPAVTObjectInstance@@AAVTToken@@@Z 00457ee9 f editor.obj
 0001:00056f33       ?AmbientColorRed@@YAXHH@Z  00457f33 f editor.obj
 0001:00056f6e       ?AmbientColorGreen@@YAXHH@Z 00457f6e f editor.obj
 0001:00056fa9       ?AmbientColorBlue@@YAXHH@Z 00457fa9 f editor.obj
 0001:00056fe4       ?CmdAmbColor@@YAHPAVTObjectInstance@@AAVTToken@@@Z 00457fe4 f editor.obj
 0001:0005703e       ?Mono@@YAXHH@Z             0045803e f editor.obj
 0001:00057064       ?CmdMono@@YAHPAVTObjectInstance@@AAVTToken@@@Z 00458064 f editor.obj
 0001:000570ae       ?CmdDirLight@@YAHPAVTObjectInstance@@AAVTToken@@@Z 004580ae f editor.obj
 0001:00057122       ?CmdBaseLight@@YAHPAVTObjectInstance@@AAVTToken@@@Z 00458122 f editor.obj
 0001:00057189       ?CmdReplace@@YAHPAVTObjectInstance@@AAVTToken@@@Z 00458189 f editor.obj
 0001:00057324       ?CmdLight@@YAHPAVTObjectInstance@@AAVTToken@@@Z 00458324 f editor.obj
 0001:00057693       ?ZOffset@@YAXHH@Z          00458693 f editor.obj
 0001:00057737       ?CmdZOffset@@YAHPAVTObjectInstance@@AAVTToken@@@Z 00458737 f editor.obj
 0001:0005786f       ?CmdRegistration@@YAHPAVTObjectInstance@@AAVTToken@@@Z 0045886f f editor.obj
 0001:00057959       ?CmdAnimRegistration@@YAHPAVTObjectInstance@@AAVTToken@@@Z 00458959 f editor.obj
 0001:00057a30       ?CmdAnimZ@@YAHPAVTObjectInstance@@AAVTToken@@@Z 00458a30 f editor.obj
 0001:00057ae2       ?CmdName@@YAHPAVTObjectInstance@@AAVTToken@@@Z 00458ae2 f editor.obj
 0001:00057b78       ?CmdFlip@@YAHPAVTObjectInstance@@AAVTToken@@@Z 00458b78 f editor.obj
 0001:00057bf1       ?CmdLock@@YAHPAVTObjectInstance@@AAVTToken@@@Z 00458bf1 f editor.obj
 0001:00057c12       ?CmdUnlock@@YAHPAVTObjectInstance@@AAVTToken@@@Z 00458c12 f editor.obj
 0001:00057c3b       ?CmdImmobile@@YAHPAVTObjectInstance@@AAVTToken@@@Z 00458c3b f editor.obj
 0001:00057c5c       ?CmdUnimmobile@@YAHPAVTObjectInstance@@AAVTToken@@@Z 00458c5c f editor.obj
 0001:00057c85       ?CmdLoad@@YAHPAVTObjectInstance@@AAVTToken@@@Z 00458c85 f editor.obj
 0001:00057cae       ?CmdSave@@YAHPAVTObjectInstance@@AAVTToken@@@Z 00458cae f editor.obj
 0001:00057d3f       ?CmdSaveEnv@@YAHPAVTObjectInstance@@AAVTToken@@@Z 00458d3f f editor.obj
 0001:00057d90       ?CmdLoadEnv@@YAHPAVTObjectInstance@@AAVTToken@@@Z 00458d90 f editor.obj
 0001:00057de1       ?CmdDXStats@@YAHPAVTObjectInstance@@AAVTToken@@@Z 00458de1 f editor.obj
 0001:00057f98       ?CmdMemory@@YAHPAVTObjectInstance@@AAVTToken@@@Z 00458f98 f editor.obj
 0001:000582cd       ?BtnInvert@@YAXXZ          004592cd f editor.obj
 0001:000582e7       ?BtnPrev@@YAXXZ            004592e7 f editor.obj
 0001:00058301       ?BtnNext@@YAXXZ            00459301 f editor.obj
 0001:0005831b       ?BtnDeselect@@YAXXZ        0045931b f editor.obj
 0001:00058335       ?BtnCenterOn@@YAXXZ        00459335 f editor.obj
 0001:0005838c       ?BtnUndo@@YAXXZ            0045938c f editor.obj
 0001:000583a6       ?BtnWalkmap@@YAXXZ         004593a6 f editor.obj
 0001:000583ca       ?BtnScroll@@YAXXZ          004593ca f editor.obj
 0001:0005840a       ?Initialize@TEditStatusPane@@UAEHXZ 0045940a f editor.obj
 0001:0005878a       ?Close@TEditStatusPane@@UAEXXZ 0045978a f editor.obj
 0001:000587e6       ?DrawBackground@TEditStatusPane@@UAEXXZ 004597e6 f editor.obj
 0001:000589ab       ?InvertAxisButtons@TEditStatusPane@@QAEXXZ 004599ab f editor.obj
 0001:000589f4       ?Select@TEditStatusPane@@QAEHHH@Z 004599f4 f editor.obj
 0001:00058b60       ?Deselect@TEditStatusPane@@QAEHXZ 00459b60 f editor.obj
 0001:00058c5d       ?Deselect@TEditStatusPane@@QAEHH@Z 00459c5d f editor.obj
 0001:00058d51       ?Reselect@TEditStatusPane@@QAEHHH@Z 00459d51 f editor.obj
 0001:00058dce       ?SetCurObj@TEditStatusPane@@QAEHH@Z 00459dce f editor.obj
 0001:00058e24       ?Next@TEditStatusPane@@QAEHXZ 00459e24 f editor.obj
 0001:00058e75       ?Prev@TEditStatusPane@@QAEHXZ 00459e75 f editor.obj
 0001:00058ebd       ?Validate@TEditStatusPane@@QAEXXZ 00459ebd f editor.obj
 0001:00058f2f       ?Delete@TEditStatusPane@@QAEXXZ 00459f2f f editor.obj
 0001:00058ff1       ?StartObjMoving@@YAXPAVTObjectInstance@@@Z 00459ff1 f editor.obj
 0001:00059068       ?StartMoving@TEditStatusPane@@QAEXXZ 0045a068 f editor.obj
 0001:0005912e       ?StopObjMoving@@YAXPAVTObjectInstance@@@Z 0045a12e f editor.obj
 0001:00059195       ?StopMoving@TEditStatusPane@@QAEXXZ 0045a195 f editor.obj
 0001:00059241       ?Undo@TEditStatusPane@@QAEXXZ 0045a241 f editor.obj
 0001:000592b5       ?BtnSave@@YAXXZ            0045a2b5 f editor.obj
 0001:000592d4       ?BtnReveal@@YAXXZ          0045a2d4 f editor.obj
 0001:000592f3       ?BtnStat@@YAXXZ            0045a2f3 f editor.obj
 0001:00059312       ?BtnZOff@@YAXXZ            0045a312 f editor.obj
 0001:000593d5       ?Registration@@YAXUS3DPoint@@@Z 0045a3d5 f editor.obj
 0001:00059527       ?RegistrationAbort@@YAXXZ  0045a527 f editor.obj
 0001:00059580       ?BtnReg@@YAXXZ             0045a580 f editor.obj
 0001:00059614       ?BtnDel@@YAXXZ             0045a614 f editor.obj
 0001:0005962e       ?BtnAmb@@YAXXZ             0045a62e f editor.obj
 0001:0005966f       ?BtnAmbCol@@YAXXZ          0045a66f f editor.obj
 0001:00059703       ?BtnMono@@YAXXZ            0045a703 f editor.obj
 0001:00059741       ?Clone@@YAXUS3DPoint@@@Z   0045a741 f editor.obj
 0001:000598fa       ?CloneAbort@@YAXXZ         0045a8fa f editor.obj
 0001:00059914       ?BtnClone@@YAXXZ           0045a914 f editor.obj
 0001:00059971       ?BtnFlip@@YAXXZ            0045a971 f editor.obj
 0001:00059990       ?BtnCalc@@YAXXZ            0045a990 f editor.obj
 0001:000599aa       ?BtnSavWM@@YAXXZ           0045a9aa f editor.obj
 0001:000599c9       ?BtnBound@@YAXXZ           0045a9c9 f editor.obj
 0001:000599e3       ?AnimRegistration@@YAXHH@Z 0045a9e3 f editor.obj
 0001:00059a89       ?AnimZ@@YAXHH@Z            0045aa89 f editor.obj
 0001:00059b5b       ?BtnAnReg@@YAXXZ           0045ab5b f editor.obj
 0001:00059c26       ?BtnAnimZ@@YAXXZ           0045ac26 f editor.obj
 0001:00059cc0       ?BtnTemplate@@YAXXZ        0045acc0 f editor.obj
 0001:00059cdf       ?Initialize@TEditToolsPane@@UAEHXZ 0045acdf f editor.obj
 0001:00059dd9       ?DrawBackground@TEditToolsPane@@UAEXXZ 0045add9 f editor.obj
 0001:00059e3e       ?BtnMaximize@@YAXXZ        0045ae3e f editor.obj
 0001:00059f85       ?BtnScrollUp@@YAXXZ        0045af85 f editor.obj
 0001:00059fac       ?BtnScrollDown@@YAXXZ      0045afac f editor.obj
 0001:00059fd1       ?BtnTileClass@@YAXXZ       0045afd1 f editor.obj
 0001:00059fed       ?BtnCharacterClass@@YAXXZ  0045afed f editor.obj
 0001:0005a009       ?BtnWeaponClass@@YAXXZ     0045b009 f editor.obj
 0001:0005a025       ?BtnArmorClass@@YAXXZ      0045b025 f editor.obj
 0001:0005a041       ?BtnTalismanClass@@YAXXZ   0045b041 f editor.obj
 0001:0005a05d       ?BtnFoodClass@@YAXXZ       0045b05d f editor.obj
 0001:0005a079       ?BtnLightSourceClass@@YAXXZ 0045b079 f editor.obj
 0001:0005a095       ?BtnToolClass@@YAXXZ       0045b095 f editor.obj
 0001:0005a0b1       ?BtnContainerClass@@YAXXZ  0045b0b1 f editor.obj
 0001:0005a0cd       ?BtnNothing@@YAXXZ         0045b0cd f editor.obj
 0001:0005a0dd       ?ObjDownCallback@@YAXUS3DPoint@@@Z 0045b0dd f editor.obj
 0001:0005a10c       ?ObjDownAbortCallback@@YAXXZ 0045b10c f editor.obj
 0001:0005a126       ?Initialize@TEditClassPane@@UAEHXZ 0045b126 f editor.obj
 0001:0005a42e       ?Close@TEditClassPane@@UAEXXZ 0045b42e f editor.obj
 0001:0005a4c0       ?DrawBackground@TEditClassPane@@UAEXXZ 0045b4c0 f editor.obj
 0001:0005a6f4       ?MouseClick@TEditClassPane@@UAEXHHH@Z 0045b6f4 f editor.obj
 0001:0005a89a       ?MouseMove@TEditClassPane@@UAEXHHH@Z 0045b89a f editor.obj
 0001:0005a99f       ?Animate@TEditClassPane@@UAEXH@Z 0045b99f f editor.obj
 0001:0005aab0       ?GetThumbnail@TEditClassPane@@QAEPAVTBitmap@@PAD@Z 0045bab0 f editor.obj
 0001:0005aceb       ?PutObject@TEditClassPane@@QAEHUS3DPoint@@@Z 0045bceb f editor.obj
 0001:0005ad99       ?Scroll@TEditClassPane@@QAEXH@Z 0045bd99 f editor.obj
 0001:0005ae18       ?SelectSame@TEditClassPane@@QAEXH@Z 0045be18 f editor.obj
 0001:0005af00       ?isvalid@@YAHH@Z           0045bf00 f editor.obj
 0001:0005af60       ?NumTypes@TObjectClass@@QAEHXZ 0045bf60 f editor.obj
 0001:0005af90       ?ClassId@TObjectClass@@QAEHXZ 0045bf90 f editor.obj
 0001:0005afb0       ?ResetStat@TObjectClass@@QAEXHH@Z 0045bfb0 f editor.obj
 0001:0005aff0       ?StatDef@TObjectClass@@QAEHH@Z 0045bff0 f editor.obj
 0001:0005b020       ?SetStatistic@TObjectClass@@QAEXHHH@Z 0045c020 f editor.obj
 0001:0005b070       ?AddStat@TObjectClass@@QAEHUSStatisticDef@@@Z 0045c070 f editor.obj
 0001:0005b0a0       ?Add@?$TArray@USStatisticDef@@$0EA@@@QAEHAAUSStatisticDef@@@Z 0045c0a0 f editor.obj
 0001:0005b140       ??A?$TArray@USStatisticDef@@$0EA@@@QAEAAUSStatisticDef@@H@Z 0045c140 f editor.obj
 0001:0005b170       ?NumItems@?$TArray@USObjectInfo@@$0EAA@@@QAEHXZ 0045c170 f editor.obj
 0001:0005b190       ?StatName@TObjectClass@@QAEPADH@Z 0045c190 f editor.obj
 0001:0005b1c0       ?GetStatistic@TObjectClass@@QAEPAUSStatistic@@HH@Z 0045c1c0 f editor.obj
 0001:0005b200       ?NumStatistics@TObjectClass@@QAEHXZ 0045c200 f editor.obj
 0001:0005b230       ?NumItems@?$TArray@USStatisticDef@@$0EA@@@QAEHXZ 0045c230 f editor.obj
 0001:0005b250       ?GetClassNameA@TObjectInstance@@QAEPADXZ 0045c250 f editor.obj
 0001:0005b2a0       ?NumClasses@TObjectClass@@SAHXZ 0045c2a0 f editor.obj
 0001:0005b2c0       ?SetLightFlags@TObjectInstance@@QAEXE@Z 0045c2c0 f editor.obj
 0001:0005b2f0       ?ResetLightFlags@TObjectInstance@@QAEXE@Z 0045c2f0 f editor.obj
 0001:0005b320       ?GetLightFlags@TObjectInstance@@QAEEXZ 0045c320 f editor.obj
 0001:0005b340       ?SetTypeName@TObjectInstance@@QAEXPAD@Z 0045c340 f editor.obj
 0001:0005b380       ?SetName@TObjectInstance@@QAEXPAD@Z 0045c380 f editor.obj
 0001:0005b3b0       ?Remove@?$TPointerArray@VTObjectInstance@@$0BAAA@@@QAEXV?$TPointerIterator@VTObjectInstance@@@@@Z 0045c3b0 f editor.obj
 0001:0005b3e0       ?Remove@?$TPointerArray@VTObjectInstance@@$0BAAA@@@QAEXH@Z 0045c3e0 f editor.obj
 0001:0005b430       ??_GTTerrainTemplate@@QAEPAXI@Z 0045c430 f editor.obj
 0001:0005b470       ?GetMapLevel@TMapPane@@QAEHXZ 0045c470 f editor.obj
 0001:0005b490       ?SaveWalkmap@TMapPane@@QAEHPAVTObjectInstance@@@Z 0045c490 f editor.obj
 0001:0005b4d0       ?SaveHeader@TObjectInstance@@QAEXXZ 0045c4d0 f editor.obj
 0001:0005b510       ?ResetDrag@TMapPane@@QAEXXZ 0045c510 f editor.obj
 0001:0005b580       ?SetWalkmapReveal@TMapPane@@QAEXHHHH@Z 0045c580 f editor.obj
 0001:0005b5d0       ?SetState@TButton@@QAEXH@Z 0045c5d0 f editor.obj
 0001:0005b600       ?Invert@TButton@@QAEXXZ    0045c600 f editor.obj
 0001:0005b650       ?Health@TObjectInstance@@QAEHXZ 0045c650 f editor.obj
 0001:0005b670       ?GetLightMultiplier@TObjectInstance@@QAEFXZ 0045c670 f editor.obj
 0001:0005b690       ?GetLightPos@TObjectInstance@@QAEXAAUS3DPoint@@@Z 0045c690 f editor.obj
 0001:0005b6c0       ?GetLightColor@TObjectInstance@@QAEXAAUSColor@@@Z 0045c6c0 f editor.obj
 0001:0005b6f0       ?SetPosX@TPane@@QAEXH@Z    0045c6f0 f editor.obj
 0001:0005b720       ?SetWidth@TPane@@QAEXH@Z   0045c720 f editor.obj
 0001:0005b750       ?SetPosX@TButton@@QAEXH@Z  0045c750 f editor.obj
 0001:0005b780       ??0TScrollEditorPane@@QAE@XZ 0045c780 f editor.obj
 0001:0005b800       ??0TTextPane@@QAE@HHHH@Z   0045c800 f editor.obj
 0001:0005b850       ??1TTextPane@@QAE@XZ       0045c850 f editor.obj
 0001:0005b870       ?Input@TTextPane@@UAEHPAD@Z 0045c870 f editor.obj
 0001:0005b8a0       ?Output@TTextPane@@UAEHPAD@Z 0045c8a0 f editor.obj
 0001:0005b8d0       ??1TScrollEditorPane@@QAE@XZ 0045c8d0 f editor.obj
 0001:0005b940       ??0TScriptPane@@QAE@XZ     0045c940 f editor.obj
 0001:0005b9c0       ??1TScriptPane@@QAE@XZ     0045c9c0 f editor.obj
 0001:0005ba30       ??0TConsolePane@@QAE@XZ    0045ca30 f editor.obj
 0001:0005bab0       ??1TConsolePane@@QAE@XZ    0045cab0 f editor.obj
 0001:0005bb20       ?AdjustingBounds@TConsolePane@@QAEHXZ 0045cb20 f editor.obj
 0001:0005bb60       ??0TEditStatusPane@@QAE@XZ 0045cb60 f editor.obj
 0001:0005bbf0       ?Hide@TEditStatusPane@@UAEXXZ 0045cbf0 f editor.obj
 0001:0005bc20       ??0TEditToolsPane@@QAE@XZ  0045cc20 f editor.obj
 0001:0005bc60       ?Hide@TEditToolsPane@@UAEXXZ 0045cc60 f editor.obj
 0001:0005bc90       ??0TEditClassPane@@QAE@XZ  0045cc90 f editor.obj
 0001:0005bd50       ?SelClass@TEditClassPane@@QAEXH@Z 0045cd50 f editor.obj
 0001:0005bd90       ?SelObjType@TEditClassPane@@QAEXH@Z 0045cd90 f editor.obj
 0001:0005bde0       ?GetObjType@TEditClassPane@@QAEHXZ 0045cde0 f editor.obj
 0001:0005be00       ?GetMaxLines@TEditClassPane@@QAEHXZ 0045ce00 f editor.obj
 0001:0005be20       ?SetText@TScript@@QAEXPAD@Z 0045ce20 f editor.obj
 0001:0005be50       ?Text@TScript@@QAEPADXZ    0045ce50 f editor.obj
 0001:0005be70       ?Initialize@TStatPane@@UAEHXZ 0045ce70 f statpane.obj
 0001:0005be8b       ?Close@TStatPane@@UAEXXZ   0045ce8b f statpane.obj
 0001:0005bea1       ?DrawBackground@TStatPane@@UAEXXZ 0045cea1 f statpane.obj
 0001:0005c060       ?Skill@TPlayer@@QAEHH@Z    0045d060 f statpane.obj
 0001:0005c090       ?Clear@TSprite@@QAEXXZ     0045d090 f sprite.obj
 0001:0005c0a6       ?Move@TSprite@@QAEXHH@Z    0045d0a6 f sprite.obj
 0001:0005c0be       ?Goto@TSprite@@QAEXHH@Z    0045d0be f sprite.obj
 0001:0005c0e0       ??0TSector@@QAE@HHH@Z      0045d0e0 f Sector.obj
 0001:0005c153       ??1TSector@@QAE@XZ         0045d153 f Sector.obj
 0001:0005c230       ?Load@TSector@@QAEHH@Z     0045d230 f Sector.obj
 0001:0005c451       ?Save@TSector@@QAEXXZ      0045d451 f Sector.obj
 0001:0005c5fb       ?GetMaxScreenRect@TSector@@QAEXAAUSRect@@@Z 0045d5fb f Sector.obj
 0001:0005c688       ?GetMaxMapRect@TSector@@QAEXAAUS3DRect@@@Z 0045d688 f Sector.obj
 0001:0005c756       ?AddObject@TSector@@QAEHPAVTObjectInstance@@H@Z 0045d756 f Sector.obj
 0001:0005c7b3       ?SetObject@TSector@@QAEHPAVTObjectInstance@@H@Z 0045d7b3 f Sector.obj
 0001:0005c7de       ?RemoveObject@TSector@@QAEPAVTObjectInstance@@H@Z 0045d7de f Sector.obj
 0001:0005c81a       ?FindObject@TSector@@QAEHPAVTObjectInstance@@@Z 0045d81a f Sector.obj
 0001:0005c89c       ?FindObject@TSector@@QAEHPADAAHH@Z 0045d89c f Sector.obj
 0001:0005c989       ?FindClosestObject@TSector@@QAEHPADAAUS3DPoint@@H@Z 0045d989 f Sector.obj
 0001:0005cbdc       ?WalkmapHandler@TSector@@QAEXHPAEHHHHHH@Z 0045dbdc f Sector.obj
 0001:0005ceaa       ?ReturnWalkmap@TSector@@QAEHAAUS3DPoint@@@Z 0045deaa f Sector.obj
 0001:0005cef4       ?SetWalkmap@TSector@@QAEXAAUS3DPoint@@@Z 0045def4 f Sector.obj
 0001:0005cf42       ?CheckRect@TSector@@QAEHUSRect@@HH@Z 0045df42 f Sector.obj
 0001:0005d240       ?ZPosToWalkmap@@YAHH@Z     0045e240 f Sector.obj
 0001:0005d260       ?WalkmapToZPos@@YAHE@Z     0045e260 f Sector.obj
 0001:0005d280       ??0?$TPointerArray@VTObjectInstance@@$0BAAA@@@QAE@XZ 0045e280 f Sector.obj
 0001:0005d2b0       ?Add@?$TPointerArray@VTObjectInstance@@$0BAAA@@@QAEHPAVTObjectInstance@@@Z 0045e2b0 f Sector.obj
 0001:0005d340       ?Set@?$TPointerArray@VTObjectInstance@@$0BAAA@@@QAEHPAVTObjectInstance@@H@Z 0045e340 f Sector.obj
 0001:0005d3a0       ?NumItems@?$TPointerArray@VTObjectInstance@@$0BAAA@@@QAEHXZ 0045e3a0 f Sector.obj
 0001:0005d3c0       ?Clear@?$TPointerArray@VTObjectInstance@@$0BAAA@@@QAEXXZ 0045e3c0 f Sector.obj
 0001:0005d3e0       ??0TButton@@QAE@PADHHHHGP6AXXZPAVTBitmap@@2HHH@Z 0045e3e0 f button.obj
 0001:0005d54b       ?Draw@TButton@@QAEXXZ      0045e54b f button.obj
 0001:0005d73e       ?OnButton@TButton@@QAEHHH@Z 0045e73e f button.obj
 0001:0005d883       ?Initialize@TButtonPane@@UAEHXZ 0045e883 f button.obj
 0001:0005d8c3       ?Close@TButtonPane@@UAEXXZ 0045e8c3 f button.obj
 0001:0005d950       ?DrawBackground@TButtonPane@@UAEXXZ 0045e950 f button.obj
 0001:0005d9cf       ?RedrawButtons@TButtonPane@@QAEXXZ 0045e9cf f button.obj
 0001:0005da37       ?KeyPress@TButtonPane@@UAEXHH@Z 0045ea37 f button.obj
 0001:0005dc15       ?MouseClick@TButtonPane@@UAEXHHH@Z 0045ec15 f button.obj
 0001:0005de02       ?MouseMove@TButtonPane@@UAEXHHH@Z 0045ee02 f button.obj
 0001:0005df32       ?NewButton@TButtonPane@@QAEHPADHHHHGP6AXXZPAVTBitmap@@2HHH@Z 0045ef32 f button.obj
 0001:0005e030       ?IsKey@TButton@@QAEHH@Z    0045f030 f button.obj
 0001:0005e0f0       ?IsDirty@TButton@@QAEHXZ   0045f0f0 f button.obj
 0001:0005e110       ?IsToggle@TButton@@QAEHXZ  0045f110 f button.obj
 0001:0005e130       ?ButtonFunc@TButton@@QAEXXZ 0045f130 f button.obj
 0001:0005e160       ?Add@?$TPointerArray@VTButton@@$0EA@@@QAEHPAVTButton@@@Z 0045f160 f button.obj
 0001:0005e1f0       ??0?$TPointerIterator@VTButton@@@@QAE@PAX@Z 0045f1f0 f button.obj
 0001:0005e230       ?Item@?$TPointerIterator@VTButton@@@@QAEPAVTButton@@XZ 0045f230 f button.obj
 0001:0005e250       ?ItemNum@?$TPointerIterator@VTButton@@@@QAEHXZ 0045f250 f button.obj
 0001:0005e270       ??E?$TPointerIterator@VTButton@@@@QAEHH@Z 0045f270 f button.obj
 0001:0005e2c0       ??B?$TPointerIterator@VTButton@@@@QAEHXZ 0045f2c0 f button.obj
 0001:0005e300       ?Remove@?$TPointerArray@VTButton@@$0EA@@@QAEXV?$TPointerIterator@VTButton@@@@@Z 0045f300 f button.obj
 0001:0005e330       ?Remove@?$TPointerArray@VTButton@@$0EA@@@QAEXH@Z 0045f330 f button.obj
 0001:0005e380       ?Clear@?$TPointerArray@VTButton@@$0EA@@@QAEXXZ 0045f380 f button.obj
 0001:0005e3a0       ?FirstChar@TFont@@QAEHXZ   0045f3a0 f button.obj
 0001:0005e3c0       ?Initialize@TInventory@@UAEHXZ 0045f3c0 f inventory.obj
 0001:0005e417       ?Close@TInventory@@UAEXXZ  0045f417 f inventory.obj
 0001:0005e45e       ?DrawBackground@TInventory@@UAEXXZ 0045f45e f inventory.obj
 0001:0005e69d       ?Animate@TInventory@@UAEXXZ 0045f69d f inventory.obj
 0001:0005e6b3       ?MouseClick@TInventory@@UAEXHHH@Z 0045f6b3 f inventory.obj
 0001:0005eaad       ?MouseMove@TInventory@@UAEXHHH@Z 0045faad f inventory.obj
 0001:0005ebae       ?DrawAnim@TInventory@@QAEXPAVTObjectInstance@@PAVTBitmap@@@Z 0045fbae f inventory.obj
 0001:0005ecb6       ?OnSlot@TInventory@@AAEHHH@Z 0045fcb6 f inventory.obj
 0001:0005ed4d       ?SwapSlots@TInventory@@AAEXHH@Z 0045fd4d f inventory.obj
 0001:0005edd0       ?Object@TMulti@@QAEPAXPAD@Z 0045fdd0 f multi.obj
 0001:0005eebf       ??0TObjectAnimator@@QAE@PAVTObjectInstance@@@Z 0045febf f imagery.obj
 0001:0005ef2c       ??1TObjectAnimator@@UAE@XZ 0045ff2c f imagery.obj
 0001:0005ef4b       ?Animate@TObjectAnimator@@UAEXH@Z 0045ff4b f imagery.obj
 0001:0005f29e       ??0TImageryBuilder@@QAE@H@Z 0046029e f imagery.obj
 0001:0005f2ef       ??0TObjectImagery@@QAE@H@Z 004602ef f imagery.obj
 0001:0005f364       ??1TObjectImagery@@UAE@XZ  00460364 f imagery.obj
 0001:0005f38b       ?RegisterImagery@TObjectImagery@@SAHPAD@Z 0046038b f imagery.obj
 0001:0005f5d6       ?FreeAllImagery@TObjectImagery@@SAXXZ 004605d6 f imagery.obj
 0001:0005f6a1       ?ReloadImagery@TObjectImagery@@SAXXZ 004606a1 f imagery.obj
 0001:0005f76e       ?NeedsAnimator@TObjectImagery@@UAEHPAVTObjectInstance@@@Z 0046076e f imagery.obj
 0001:0005f7b3       ?SetImageryPath@TObjectImagery@@SAXPAD@Z 004607b3 f imagery.obj
 0001:0005f7de       ?SaveAllHeaders@TObjectImagery@@SAXXZ 004607de f imagery.obj
 0001:0005f824       ?LoadImagery@TObjectImagery@@SAPAV1@H@Z 00460824 f imagery.obj
 0001:0005f904       ?FreeImagery@TObjectImagery@@SAXPAV1@@Z 00460904 f imagery.obj
 0001:0005f9d2       ?FindState@TObjectImagery@@UAEHPAD@Z 004609d2 f imagery.obj
 0001:0005fa61       ?GetUseCount@TObjectImagery@@QAEHXZ 00460a61 f imagery.obj
 0001:0005fa80       ?GetScreenRect@TObjectImagery@@UAEXPAVTObjectInstance@@AAUSRect@@@Z 00460a80 f imagery.obj
 0001:0005fb75       ?SaveHeader@TObjectImagery@@SAXH@Z 00460b75 f imagery.obj
 0001:0005fc33       ?SetWorldBoundBox@TObjectImagery@@UAEXHHHH@Z 00460c33 f imagery.obj
 0001:0005ff9d       ?BeginLoaderThread@TObjectImagery@@SAXXZ 00460f9d f imagery.obj
 0001:0005fff1       ?EndLoaderThread@TObjectImagery@@SAXXZ 00460ff1 f imagery.obj
 0001:00060017       ?LoaderThread@TObjectImagery@@SAXPAX@Z 00461017 f imagery.obj
 0001:000601d0       ?LoadBody@TObjectImagery@@QAEPAUSImageryBody@@H@Z 004611d0 f imagery.obj
 0001:0006037c       ?FreeBody@TObjectImagery@@QAEXXZ 0046137c f imagery.obj
 0001:00060490       ??0?$TArray@USImageryEntry@@$0EAA@@@QAE@XZ 00461490 f imagery.obj
 0001:000604c0       ??_ETObjectAnimator@@UAEPAXI@Z 004614c0 f imagery.obj
 0001:000604c0       ??_GTObjectAnimator@@UAEPAXI@Z 004614c0 f imagery.obj
 0001:00060500       ??A?$TArray@USImageryEntry@@$0EAA@@@QAEAAUSImageryEntry@@H@Z 00461500 f imagery.obj
 0001:00060530       ??_GTObjectImagery@@UAEPAXI@Z 00461530 f imagery.obj
 0001:00060530       ??_ETObjectImagery@@UAEPAXI@Z 00461530 f imagery.obj
 0001:00060570       ?Add@?$TArray@USImageryEntry@@$0EAA@@@QAEHAAUSImageryEntry@@@Z 00461570 f imagery.obj
 0001:00060610       ?NumItems@?$TArray@USImageryEntry@@$0EAA@@@QAEHXZ 00461610 f imagery.obj
 0001:00060630       ?GetBuilder@TImageryBuilder@@SAPAV1@H@Z 00461630 f imagery.obj
 0001:00060670       ?GetResSize@TObjectImagery@@QAEKXZ 00461670 f imagery.obj
 0001:00060690       ?GetZ@TObjectImagery@@UAEHPAVTObjectInstance@@PAVTSurface@@@Z 00461690 f imagery.obj
 0001:000606b0       ?AlwaysOnTop@TObjectImagery@@UAEHPAVTObjectInstance@@@Z 004616b0 f imagery.obj
 0001:000606d0       ?NewObjectAnimator@TObjectImagery@@UAEPAVTObjectAnimator@@PAVTObjectInstance@@@Z 004616d0 f imagery.obj
 0001:000606f0       ?Initialize@TMainWindow@@QAEHPAX0PADH@Z 004616f0 f Mainwnd.obj
 0001:00060904       ?Close@TMainWindow@@QAEXXZ 00461904 f Mainwnd.obj
 0001:00060931       ??1TMainWindow@@UAE@XZ     00461931 f Mainwnd.obj
 0001:00061460       ?WorldToScreen@@YAXAAUS3DPoint@@AAH1@Z 00462460 f object.obj
 0001:000614b8       ?WorldToScreen@@YAXAAUS3DPoint@@0@Z 004624b8 f object.obj
 0001:0006155d       ?ScreenToWorld@@YAXHHAAUS3DPoint@@@Z 0046255d f object.obj
 0001:0006159e       ?ConvertToVector@@YAXHHAAUS3DPoint@@@Z 0046259e f object.obj
 0001:00061624       ?ConvertToFacing@@YAHAAUS3DPoint@@0@Z 00462624 f object.obj
 0001:000616fe       ??0TObjectBuilder@@QAE@PAD@Z 004626fe f object.obj
 0001:0006175a       ?GetBuilder@TObjectBuilder@@SAPAV1@H@Z 0046275a f object.obj
 0001:00061789       ?GetBuilder@TObjectBuilder@@SAPAV1@PAD@Z 00462789 f object.obj
 0001:000617f1       ?ClearObject@TObjectInstance@@UAEXXZ 004627f1 f object.obj
 0001:00061953       ??0TObjectInstance@@QAE@PAVTObjectImagery@@@Z 00462953 f object.obj
 0001:000619af       ??0TObjectInstance@@QAE@PAVSObjectDef@@PAVTObjectImagery@@@Z 004629af f object.obj
 0001:00061a36       ??1TObjectInstance@@UAE@XZ 00462a36 f object.obj
 0001:00061b2b       ?GetImagery@TObjectInstance@@QAEPAVTObjectImagery@@XZ 00462b2b f object.obj
 0001:00061b4a       ?CreateAnimator@TObjectInstance@@UAEHXZ 00462b4a f object.obj
 0001:00061ba0       ?FreeAnimator@TObjectInstance@@UAEXXZ 00462ba0 f object.obj
 0001:00061c00       ?NeedsAnimator@TObjectInstance@@UAEHXZ 00462c00 f object.obj
 0001:00061c58       ?Damage@TObjectInstance@@UAEXH@Z 00462c58 f object.obj
 0001:00061c98       ?RepaintObject@TObjectInstance@@UAEXXZ 00462c98 f object.obj
 0001:00061cae       ?SetPos@TObjectInstance@@UAEHAAUS3DPoint@@@Z 00462cae f object.obj
 0001:00061dee       ?InRange@TObjectInstance@@QAEHUS3DPoint@@@Z 00462dee f object.obj
 0001:00061efb       ?SetState@TObjectInstance@@UAEHH@Z 00462efb f object.obj
 0001:00061f7d       ?PlaceInInventory@TObjectInstance@@UAEHH@Z 00462f7d f object.obj
 0001:00061fac       ?SendToInventory@TObjectInstance@@UAEXHH@Z 00462fac f object.obj
 0001:00061fd8       ?AddToInventory@TObjectInstance@@UAEXPAV1@@Z 00462fd8 f object.obj
 0001:00062023       ?RemoveFromInventory@TObjectInstance@@UAEXPAV1@@Z 00463023 f object.obj
 0001:0006205c       ?Use@TObjectInstance@@UAEHH@Z 0046305c f object.obj
 0001:00062285       ?Face@TObjectInstance@@UAEXH@Z 00463285 f object.obj
 0001:000622a6       ?Pulse@TObjectInstance@@UAEXXZ 004632a6 f object.obj
 0001:000622e5       ?Move@TObjectInstance@@UAEKXZ 004632e5 f object.obj
 0001:000624e5       ?Animate@TObjectInstance@@UAEXH@Z 004634e5 f object.obj
 0001:00062528       ?AI@TObjectInstance@@UAEXXZ 00463528 f object.obj
 0001:0006253e       ?OnScreen@TObjectInstance@@UAEXXZ 0046353e f object.obj
 0001:000625e7       ?OffScreen@TObjectInstance@@UAEXXZ 004635e7 f object.obj
 0001:00062640       ?FreeLight@TObjectInstance@@UAEXXZ 00463640 f object.obj
 0001:0006267c       ?RedrawBackground@TObjectInstance@@QAEXH@Z 0046367c f object.obj
 0001:000626dd       ?InitScript@TObjectInstance@@QAEXPAVTScript@@@Z 004636dd f object.obj
 0001:0006271a       ?ContinueScript@TObjectInstance@@QAEXXZ 0046371a f object.obj
 0001:0006274c       ?RedrawLight@TObjectInstance@@QAEXXZ 0046374c f object.obj
 0001:000627a3       ?GetLightRect@TObjectInstance@@QAEXAAUSRect@@@Z 004637a3 f object.obj
 0001:00062851       ?SetLightIntensity@TObjectInstance@@QAEXE@Z 00463851 f object.obj
 0001:000628f7       ?SetLightMultiplier@TObjectInstance@@QAEXH@Z 004638f7 f object.obj
 0001:0006295a       ?SetLightPos@TObjectInstance@@QAEXAAUS3DPoint@@@Z 0046395a f object.obj
 0001:000629ce       ?SetLightColor@TObjectInstance@@QAEXUSColor@@@Z 004639ce f object.obj
 0001:00062ab3       ?DrawLight@TObjectInstance@@QAEXPAVTSurface@@H@Z 00463ab3 f object.obj
 0001:00062c1e       ?SetCommandDone@TObjectInstance@@UAEXH@Z 00463c1e f object.obj
 0001:00062c3f       ?Load@TObjectInstance@@UAEXAAVTInputStream@@@Z 00463c3f f object.obj
 0001:00062e01       ?Save@TObjectInstance@@UAEXAAVTOutputStream@@@Z 00463e01 f object.obj
 0001:00062fcf       ??0TObjectClass@@QAE@PADHG@Z 00463fcf f object.obj
 0001:00063070       ?AddType@TObjectClass@@QAEHUSObjectInfo@@@Z 00464070 f object.obj
 0001:000630ef       ?NewObject@TObjectClass@@QAEPAVTObjectInstance@@PAVSObjectDef@@@Z 004640ef f object.obj
 0001:0006328a       ?FindClass@TObjectClass@@SAHPAD@Z 0046428a f object.obj
 0001:00063311       ?FindObjType@TObjectClass@@QAEHPADH@Z 00464311 f object.obj
 0001:000633e2       ?FindStatistic@TObjectClass@@QAEHPAD@Z 004643e2 f object.obj
 0001:00063475       ?FindStatisticVal@TObjectClass@@QAEHHH@Z 00464475 f object.obj
 0001:00063509       ?FindRandStatisticVal@TObjectClass@@QAEHHHPAH@Z 00464509 f object.obj
 0001:000638fc       ?LoadClasses@TObjectClass@@SAHH@Z 004648fc f object.obj
 0001:00063a61       ?SaveClasses@TObjectClass@@SAHH@Z 00464a61 f object.obj
 0001:00063b1b       ?WriteClass@TObjectClass@@AAEHPAU_iobuf@@@Z 00464b1b f object.obj
 0001:00063f05       ?ParseClass@TObjectClass@@CAHAAVTToken@@@Z 00464f05 f object.obj
 0001:00064360       ??5TInputStream@@QAEAAV0@AAK@Z 00465360 f object.obj
 0001:00064390       ??5TInputStream@@QAEAAV0@AAE@Z 00465390 f object.obj
 0001:000643c0       ??6TOutputStream@@QAEAAV0@K@Z 004653c0 f object.obj
 0001:000643f0       ??6TOutputStream@@QAEAAV0@E@Z 004653f0 f object.obj
 0001:00064420       ?IsEnd@TToken@@QAEHXZ      00465420 f object.obj
 0001:00064460       ?ObjectFlags@TObjectClass@@UAEKXZ 00465460 f object.obj
 0001:00064490       ??0?$TArray@USStatisticDef@@$0EA@@@QAE@XZ 00465490 f object.obj
 0001:000644c0       ??0?$TIterator@USStatisticDef@@@@QAE@PAX@Z 004654c0 f object.obj
 0001:00064500       ?Item@?$TIterator@USStatisticDef@@@@QAEPAUSStatisticDef@@XZ 00465500 f object.obj
 0001:00064520       ?ItemNum@?$TIterator@USStatisticDef@@@@QAEHXZ 00465520 f object.obj
 0001:00064540       ??E?$TIterator@USStatisticDef@@@@QAEHH@Z 00465540 f object.obj
 0001:00064590       ??B?$TIterator@USStatisticDef@@@@QAEHXZ 00465590 f object.obj
 0001:000645d0       ?Clear@?$TArray@USStatisticDef@@$0EA@@@QAEXXZ 004655d0 f object.obj
 0001:000645f0       ??0?$TArray@USObjectInfo@@$0EAA@@@QAE@XZ 004655f0 f object.obj
 0001:00064620       ?Add@?$TArray@USObjectInfo@@$0EAA@@@QAEHAAUSObjectInfo@@@Z 00465620 f object.obj
 0001:000646c0       ??0?$TIterator@USObjectInfo@@@@QAE@PAX@Z 004656c0 f object.obj
 0001:00064700       ?Item@?$TIterator@USObjectInfo@@@@QAEPAUSObjectInfo@@XZ 00465700 f object.obj
 0001:00064720       ?ItemNum@?$TIterator@USObjectInfo@@@@QAEHXZ 00465720 f object.obj
 0001:00064740       ??E?$TIterator@USObjectInfo@@@@QAEHH@Z 00465740 f object.obj
 0001:00064790       ??B?$TIterator@USObjectInfo@@@@QAEHXZ 00465790 f object.obj
 0001:000647d0       ?Clear@?$TArray@USObjectInfo@@$0EAA@@@QAEXXZ 004657d0 f object.obj
 0001:000647f0       ?ReadFile@@YAIPADPAIPAX@Z  004657f0 f zcomp.obj
 0001:0006485d       ?WriteFile@@YAXPADPAIPAX@Z 0046585d f zcomp.obj
 0001:00064897       ?ReadBuff@@YAIPADPAIPAX@Z  00465897 f zcomp.obj
 0001:00064908       ?WriteBuff@@YAXPADPAIPAX@Z 00465908 f zcomp.obj
 0001:0006494b       ?cfopen@@YAPAU_iobuf@@PBD0HH@Z 0046594b f zcomp.obj
 0001:00064a20       ?cfread@@YAIPAXJIPAU_iobuf@@@Z 00465a20 f zcomp.obj
 0001:00064aac       ?cfwrite@@YAIPBXJIPAU_iobuf@@@Z 00465aac f zcomp.obj
 0001:00064b36       ?cfclose@@YAHPAU_iobuf@@@Z 00465b36 f zcomp.obj
 0001:00064b6d       ?getCompSize@@YAJXZ        00465b6d f zcomp.obj
 0001:00064c00       ??0TTalismanBuilder@@QAE@XZ 00465c00 f talisman.obj
 0001:00064c30       ?Build@TTalismanBuilder@@UAEPAVTObjectInstance@@PAVTObjectImagery@@@Z 00465c30 f talisman.obj
 0001:00064cd0       ??0TTalisman@@QAE@PAVTObjectImagery@@@Z 00465cd0 f talisman.obj
 0001:00064d50       ??_ETTalisman@@UAEPAXI@Z   00465d50 f talisman.obj
 0001:00064d50       ??_GTTalisman@@UAEPAXI@Z   00465d50 f talisman.obj
 0001:00064d90       ??1TTalisman@@UAE@XZ       00465d90 f talisman.obj
 0001:00064df0       ?Build@TTalismanBuilder@@UAEPAVTObjectInstance@@PAVSObjectDef@@PAVTObjectImagery@@@Z 00465df0 f talisman.obj
 0001:00064e90       ??0TTalisman@@QAE@PAVSObjectDef@@PAVTObjectImagery@@@Z 00465e90 f talisman.obj
 0001:00064f10       _memset                    00465f10 f libcmtd:memset.obj
 0001:00064f70       _fclose                    00465f70 f libcmtd:fclose.obj
 0001:00065000       __fclose_lk                00466000 f libcmtd:fclose.obj
 0001:000650d0       _strcpy                    004660d0 f libcmtd:strcat.obj
 0001:000650e0       _strcat                    004660e0 f libcmtd:strcat.obj
 0001:000651c0       __fsopen                   004661c0 f libcmtd:fopen.obj
 0001:000652d0       _fopen                     004662d0 f libcmtd:fopen.obj
 0001:00065300       __chkstk                   00466300   libcmtd:chkstk.obj
 0001:00065300       __alloca_probe             00466300   libcmtd:chkstk.obj
 0001:00065330       _fprintf                   00466330 f libcmtd:fprintf.obj
 0001:00065400       __purecall                 00466400 f libcmtd:purevirt.obj
 0001:00065420       _fgetc                     00466420 f libcmtd:fgetc.obj
 0001:000654c0       _getc                      004664c0 f libcmtd:fgetc.obj
 0001:000654e0       _fseek                     004664e0 f libcmtd:fseek.obj
 0001:00065560       __fseek_lk                 00466560 f libcmtd:fseek.obj
 0001:000656a0       _ftell                     004666a0 f libcmtd:ftell.obj
 0001:00065710       __ftell_lk                 00466710 f libcmtd:ftell.obj
 0001:000659d0       __fpmath                   004669d0 f libcmtd:fpinit.obj
 0001:00065a00       __fpclear                  00466a00 f libcmtd:fpinit.obj
 0001:00065a10       __cfltcvt_init             00466a10 f libcmtd:fpinit.obj
 0001:00065a60       ___setfflag                00466a60 f libcmtd:fpinit.obj
 0001:00065a90       _memcpy                    00466a90 f libcmtd:memcpy.obj
 0001:00065be0       __global_unwind2           00466be0 f libcmtd:exsup.obj
 0001:00065c22       __local_unwind2            00466c22 f libcmtd:exsup.obj
 0001:00065c7a       __NLG_Return2              00466c7a   libcmtd:exsup.obj
 0001:00065c8a       __abnormal_termination     00466c8a f libcmtd:exsup.obj
 0001:00065cad       __NLG_Notify1              00466cad f libcmtd:exsup.obj
 0001:00065cb6       __NLG_Notify               00466cb6 f libcmtd:exsup.obj
 0001:00065cc9       __NLG_Dispatch             00466cc9   libcmtd:exsup.obj
 0001:00065cd0       ?_JumpToContinuation@@YGXPAXPAUEHRegistrationNode@@@Z 00466cd0 f libcmtd:trnsctrl.obj
 0001:00065d10       ?_CallMemberFunction0@@YGXPAX0@Z 00466d10 f libcmtd:trnsctrl.obj
 0001:00065d20       ?_CallMemberFunction1@@YGXPAX00@Z 00466d20 f libcmtd:trnsctrl.obj
 0001:00065d30       ?_CallMemberFunction2@@YGXPAX00H@Z 00466d30 f libcmtd:trnsctrl.obj
 0001:00065d40       ?_UnwindNestedFrames@@YGXPAUEHRegistrationNode@@PAUEHExceptionRecord@@@Z 00466d40 f libcmtd:trnsctrl.obj
 0001:00065da0       ___CxxFrameHandler         00466da0 f libcmtd:trnsctrl.obj
 0001:00065de0       ___CxxLongjmpUnwind@4      00466de0 f libcmtd:trnsctrl.obj
 0001:00065e20       ?_CallCatchBlock2@@YAPAXPAUEHRegistrationNode@@PBU_s_FuncInfo@@PAXHK@Z 00466e20 f libcmtd:trnsctrl.obj
 0001:00065ed0       ?_CallSETranslator@@YAHPAUEHExceptionRecord@@PAUEHRegistrationNode@@PAX2PBU_s_FuncInfo@@H1@Z 00466ed0 f libcmtd:trnsctrl.obj
 0001:00066020       _sqrt                      00467020 f libcmtd:87csqrt.obj
 0001:0006602a       __CIsqrt                   0046702a f libcmtd:87csqrt.obj
 0001:00066040       _strlen                    00467040 f libcmtd:strlen.obj
 0001:000660c0       _malloc                    004670c0 f libcmtd:dbgheap.obj
 0001:000660f0       __malloc_dbg               004670f0 f libcmtd:dbgheap.obj
 0001:00066120       __nh_malloc                00467120 f libcmtd:dbgheap.obj
 0001:00066150       __nh_malloc_dbg            00467150 f libcmtd:dbgheap.obj
 0001:000661d0       __heap_alloc               004671d0 f libcmtd:dbgheap.obj
 0001:00066200       __heap_alloc_dbg           00467200 f libcmtd:dbgheap.obj
 0001:00066540       _calloc                    00467540 f libcmtd:dbgheap.obj
 0001:00066570       __calloc_dbg               00467570 f libcmtd:dbgheap.obj
 0001:000665e0       _realloc                   004675e0 f libcmtd:dbgheap.obj
 0001:00066610       __realloc_dbg              00467610 f libcmtd:dbgheap.obj
 0001:00066bf0       __expand                   00467bf0 f libcmtd:dbgheap.obj
 0001:00066c20       __expand_dbg               00467c20 f libcmtd:dbgheap.obj
 0001:00066c70       _free                      00467c70 f libcmtd:dbgheap.obj
 0001:00066c90       __free_lk                  00467c90 f libcmtd:dbgheap.obj
 0001:00066cb0       __free_dbg                 00467cb0 f libcmtd:dbgheap.obj
 0001:00066ce0       __free_dbg_lk              00467ce0 f libcmtd:dbgheap.obj
 0001:00067110       __msize                    00468110 f libcmtd:dbgheap.obj
 0001:00067130       __msize_dbg                00468130 f libcmtd:dbgheap.obj
 0001:000672b0       __CrtSetBreakAlloc         004682b0 f libcmtd:dbgheap.obj
 0001:000672e0       __CrtSetDbgBlockType       004682e0 f libcmtd:dbgheap.obj
 0001:000673a0       __CrtSetAllocHook          004683a0 f libcmtd:dbgheap.obj
 0001:00067460       __CrtCheckMemory           00468460 f libcmtd:dbgheap.obj
 0001:00067800       __CrtSetDbgFlag            00468800 f libcmtd:dbgheap.obj
 0001:00067830       __CrtDoForAllClientObjects 00468830 f libcmtd:dbgheap.obj
 0001:000678b0       __CrtIsValidPointer        004688b0 f libcmtd:dbgheap.obj
 0001:00067910       __CrtIsValidHeapPointer    00468910 f libcmtd:dbgheap.obj
 0001:000679e0       __CrtIsMemoryBlock         004689e0 f libcmtd:dbgheap.obj
 0001:00067b00       __CrtSetDumpClient         00468b00 f libcmtd:dbgheap.obj
 0001:00067b30       __CrtMemCheckpoint         00468b30 f libcmtd:dbgheap.obj
 0001:00067c80       __CrtMemDifference         00468c80 f libcmtd:dbgheap.obj
 0001:00067dc0       __CrtMemDumpAllObjectsSince 00468dc0 f libcmtd:dbgheap.obj
 0001:000681a0       __CrtDumpMemoryLeaks       004691a0 f libcmtd:dbgheap.obj
 0001:00068230       __CrtMemDumpStatistics     00469230 f libcmtd:dbgheap.obj
 0001:00068300       _fputc                     00469300 f libcmtd:fputc.obj
 0001:000683b0       _putc                      004693b0 f libcmtd:fputc.obj
 0001:000683d0       _fread                     004693d0 f libcmtd:fread.obj
 0001:00068420       __fread_lk                 00469420 f libcmtd:fread.obj
 0001:000685f0       _fwrite                    004695f0 f libcmtd:fwrite.obj
 0001:00068640       __fwrite_lk                00469640 f libcmtd:fwrite.obj
 0001:00068860       _sprintf                   00469860 f libcmtd:sprintf.obj
 0001:00068950       __onexit                   00469950 f libcmtd:onexit.obj
 0001:00068a20       _atexit                    00469a20 f libcmtd:onexit.obj
 0001:00068a50       ___onexitinit              00469a50 f libcmtd:onexit.obj
 0001:00068ab0       __cinit                    00469ab0 f libcmtd:crt0dat.obj
 0001:00068b00       _exit                      00469b00 f libcmtd:crt0dat.obj
 0001:00068b20       __exit                     00469b20 f libcmtd:crt0dat.obj
 0001:00068b40       __cexit                    00469b40 f libcmtd:crt0dat.obj
 0001:00068b60       __c_exit                   00469b60 f libcmtd:crt0dat.obj
 0001:00068c90       __lockexit                 00469c90 f libcmtd:crt0dat.obj
 0001:00068cb0       __unlockexit               00469cb0 f libcmtd:crt0dat.obj
 0001:00068d10       _srand                     00469d10 f libcmtd:rand.obj
 0001:00068d30       _rand                      00469d30 f libcmtd:rand.obj
 0001:00068d80       _strstr                    00469d80 f libcmtd:strstr.obj
 0001:00068e00       _time                      00469e00 f libcmtd:time.obj
 0001:00068f90       __get_sbh_threshold        00469f90 f libcmtd:sbheap.obj
 0001:00068fb0       __set_sbh_threshold        00469fb0 f libcmtd:sbheap.obj
 0001:00069000       ___sbh_new_region          0046a000 f libcmtd:sbheap.obj
 0001:00069210       ___sbh_release_region      0046a210 f libcmtd:sbheap.obj
 0001:000692a0       ___sbh_decommit_pages      0046a2a0 f libcmtd:sbheap.obj
 0001:00069420       ___sbh_find_block          0046a420 f libcmtd:sbheap.obj
 0001:000694d0       ___sbh_free_block          0046a4d0 f libcmtd:sbheap.obj
 0001:00069560       ___sbh_alloc_block         0046a560 f libcmtd:sbheap.obj
 0001:00069a30       ___sbh_alloc_block_from_page 0046aa30 f libcmtd:sbheap.obj
 0001:00069d30       ___sbh_resize_block        0046ad30 f libcmtd:sbheap.obj
 0001:00069ef0       ___sbh_heap_check          0046aef0 f libcmtd:sbheap.obj
 0001:0006a160       _isalpha                   0046b160 f libcmtd:_ctype.obj
 0001:0006a1b0       _isupper                   0046b1b0 f libcmtd:_ctype.obj
 0001:0006a200       _islower                   0046b200 f libcmtd:_ctype.obj
 0001:0006a250       _isdigit                   0046b250 f libcmtd:_ctype.obj
 0001:0006a2a0       _isxdigit                  0046b2a0 f libcmtd:_ctype.obj
 0001:0006a2f0       _isspace                   0046b2f0 f libcmtd:_ctype.obj
 0001:0006a340       _ispunct                   0046b340 f libcmtd:_ctype.obj
 0001:0006a390       _isalnum                   0046b390 f libcmtd:_ctype.obj
 0001:0006a3e0       _isprint                   0046b3e0 f libcmtd:_ctype.obj
 0001:0006a430       _isgraph                   0046b430 f libcmtd:_ctype.obj
 0001:0006a480       _iscntrl                   0046b480 f libcmtd:_ctype.obj
 0001:0006a4d0       ___isascii                 0046b4d0 f libcmtd:_ctype.obj
 0001:0006a500       ___toascii                 0046b500 f libcmtd:_ctype.obj
 0001:0006a520       ___iscsymf                 0046b520 f libcmtd:_ctype.obj
 0001:0006a5a0       ___iscsym                  0046b5a0 f libcmtd:_ctype.obj
 0001:0006a620       _fputs                     0046b620 f libcmtd:fputs.obj
 0001:0006a710       __filelength               0046b710 f libcmtd:flength.obj
 0001:0006a7fc       __ftol                     0046b7fc f libcmtd:ftol.obj
 0001:0006a830       _sin                       0046b830 f libcmtd:87ctrig.obj
 0001:0006a83a       _cos                       0046b83a f libcmtd:87ctrig.obj
 0001:0006a841       _tan                       0046b841 f libcmtd:87ctrig.obj
 0001:0006a848       __CIsin                    0046b848 f libcmtd:87ctrig.obj
 0001:0006a852       __CIcos                    0046b852 f libcmtd:87ctrig.obj
 0001:0006a859       __CItan                    0046b859 f libcmtd:87ctrig.obj
 0001:0006a860       _strcmp                    0046b860 f libcmtd:strcmp.obj
 0001:0006a8f0       _asin                      0046b8f0 f libcmtd:87ctriga.obj
 0001:0006a8fa       _acos                      0046b8fa f libcmtd:87ctriga.obj
 0001:0006a901       _atan                      0046b901 f libcmtd:87ctriga.obj
 0001:0006a908       _atan2                     0046b908 f libcmtd:87ctriga.obj
 0001:0006a912       __CIasin                   0046b912 f libcmtd:87ctriga.obj
 0001:0006a91c       __CIacos                   0046b91c f libcmtd:87ctriga.obj
 0001:0006a923       __CIatan                   0046b923 f libcmtd:87ctriga.obj
 0001:0006a92a       __CIatan2                  0046b92a f libcmtd:87ctriga.obj
 0001:0006a940       _atol                      0046b940 f libcmtd:atox.obj
 0001:0006aa60       _atoi                      0046ba60 f libcmtd:atox.obj
 0001:0006aa80       __atoi64                   0046ba80 f libcmtd:atox.obj
 0001:0006abe0       _strchr                    0046bbe0 f libcmtd:strchr.obj
 0001:0006abe6       ___from_strstr_to_strchr   0046bbe6   libcmtd:strchr.obj
 0001:0006aca0       _rewind                    0046bca0 f libcmtd:rewind.obj
 0001:0006ad80       _memcmp                    0046bd80 f libcmtd:memcmp.obj
 0001:0006ae30       _atof                      0046be30 f libcmtd:atof.obj
 0001:0006aec0       __toupper                  0046bec0 f libcmtd:toupper.obj
 0001:0006aee0       _toupper                   0046bee0 f libcmtd:toupper.obj
 0001:0006af90       __toupper_lk               0046bf90 f libcmtd:toupper.obj
 0001:0006b0d0       __tolower                  0046c0d0 f libcmtd:tolower.obj
 0001:0006b0f0       _tolower                   0046c0f0 f libcmtd:tolower.obj
 0001:0006b1a0       __tolower_lk               0046c1a0 f libcmtd:tolower.obj
 0001:0006b2e0       _strncpy                   0046c2e0 f libcmtd:strncpy.obj
 0001:0006b3e0       __strlwr                   0046c3e0 f libcmtd:strlwr.obj
 0001:0006b5e0       _fgets                     0046c5e0 f libcmtd:fgets.obj
 0001:0006b730       _strncmp                   0046c730 f libcmtd:strncmp.obj
 0001:0006b770       __beginthread              0046c770 f libcmtd:thread.obj
 0001:0006b950       __endthread                0046c950 f libcmtd:thread.obj
 0001:0006b9c0       __strdup                   0046c9c0 f libcmtd:strdup.obj
 0001:0006b9c0       _strdup                    0046c9c0 f libcmtd:strdup.obj
 0001:0006b9f0       _WinMainCRTStartup         0046c9f0 f libcmtd:wincrt0.obj
 0001:0006bc50       __amsg_exit                0046cc50 f libcmtd:wincrt0.obj
 0001:0006bc90       __mtinitlocks              0046cc90 f libcmtd:mlock.obj
 0001:0006bcd0       __mtdeletelocks            0046ccd0 f libcmtd:mlock.obj
 0001:0006bd90       __lock                     0046cd90 f libcmtd:mlock.obj
 0001:0006be40       __unlock                   0046ce40 f libcmtd:mlock.obj
 0001:0006be60       __lock_file                0046ce60 f libcmtd:mlock.obj
 0001:0006bec0       __lock_file2               0046cec0 f libcmtd:mlock.obj
 0001:0006bf00       __unlock_file              0046cf00 f libcmtd:mlock.obj
 0001:0006bf60       __unlock_file2             0046cf60 f libcmtd:mlock.obj
 0001:0006bfa0       __lockerr_exit             0046cfa0 f libcmtd:mlock.obj
 0001:0006bfd0       __CrtDbgBreak              0046cfd0 f libcmtd:dbgrpt.obj
 0001:0006bff0       __CrtSetReportMode         0046cff0 f libcmtd:dbgrpt.obj
 0001:0006c070       __CrtSetReportFile         0046d070 f libcmtd:dbgrpt.obj
 0001:0006c120       __CrtSetReportHook         0046d120 f libcmtd:dbgrpt.obj
 0001:0006c150       __CrtDbgReport             0046d150 f libcmtd:dbgrpt.obj
 0001:0006c870       __close                    0046d870 f libcmtd:close.obj
 0001:0006c910       __close_lk                 0046d910 f libcmtd:close.obj
 0001:0006c9e0       __freebuf                  0046d9e0 f libcmtd:_freebuf.obj
 0001:0006ca70       _fflush                    0046da70 f libcmtd:fflush.obj
 0001:0006cad0       __fflush_lk                0046dad0 f libcmtd:fflush.obj
 0001:0006cb40       __flush                    0046db40 f libcmtd:fflush.obj
 0001:0006cc00       __flushall                 0046dc00 f libcmtd:fflush.obj
 0001:0006cd80       __openfile                 0046dd80 f libcmtd:_open.obj
 0001:0006d140       __getstream                0046e140 f libcmtd:stream.obj
 0001:0006d2e0       __stbuf                    0046e2e0 f libcmtd:_sftbuf.obj
 0001:0006d430       __ftbuf                    0046e430 f libcmtd:_sftbuf.obj
 0001:0006d4d0       __output                   0046e4d0 f libcmtd:output.obj
 0001:0006e400       __filbuf                   0046f400 f libcmtd:_filbuf.obj
 0001:0006e5f0       __lseek                    0046f5f0 f libcmtd:lseek.obj
 0001:0006e6a0       __lseek_lk                 0046f6a0 f libcmtd:lseek.obj
 0001:0006e790       __dosmaperr                0046f790 f libcmtd:dosmap.obj
 0001:0006e870       __errno                    0046f870 f libcmtd:dosmap.obj
 0001:0006e890       ___doserrno                0046f890 f libcmtd:dosmap.obj
 0001:0006e8b0       __ioinit                   0046f8b0 f libcmtd:ioinit.obj
 0001:0006ec00       __ioterm                   0046fc00 f libcmtd:ioinit.obj
 0001:0006ecc0       __setdefaultprecision      0046fcc0 f libcmtd:fp8.obj
 0001:0006ece0       __ms_p5_test_fdiv          0046fce0 f libcmtd:testfdiv.obj
 0001:0006ed40       __ms_p5_mp_test_fdiv       0046fd40 f libcmtd:testfdiv.obj
 0001:0006eda0       __forcdecpt                0046fda0 f libcmtd:cvt.obj
 0001:0006ee60       __cropzeros                0046fe60 f libcmtd:cvt.obj
 0001:0006ef40       __positive                 0046ff40 f libcmtd:cvt.obj
 0001:0006ef80       __fassign                  0046ff80 f libcmtd:cvt.obj
 0001:0006efe0       __cftoe                    0046ffe0 f libcmtd:cvt.obj
 0001:0006f1e0       __cftof                    004701e0 f libcmtd:cvt.obj
 0001:0006f3a0       __cftog                    004703a0 f libcmtd:cvt.obj
 0001:0006f4b0       __cfltcvt                  004704b0 f libcmtd:cvt.obj
 0001:0006f570       ___InternalCxxFrameHandler 00470570 f libcmtd:frame.obj
 0001:0006fc30       ___FrameUnwindToState      00470c30 f libcmtd:frame.obj
 0001:00070440       __CallSettingFrame@12      00471440 f libcmtd:lowhelpr.obj
 0001:00070465       __NLG_Return               00471465   libcmtd:lowhelpr.obj
 0001:00070490       __mtinit                   00471490 f libcmtd:tidtable.obj
 0001:00070530       __mtterm                   00471530 f libcmtd:tidtable.obj
 0001:00070570       __initptd                  00471570 f libcmtd:tidtable.obj
 0001:00070590       __getptd                   00471590 f libcmtd:tidtable.obj
 0001:00070640       __freeptd                  00471640 f libcmtd:tidtable.obj
 0001:00070750       ___threadid                00471750 f libcmtd:tidtable.obj
 0001:00070770       ___threadhandle            00471770 f libcmtd:tidtable.obj
 0001:000707b0       __cintrindisp2             004717b0 f libcmtd:87cdisp.obj
 0001:000707ee       __cintrindisp1             004717ee f libcmtd:87cdisp.obj
 0001:0007082b       __ctrandisp2               0047182b f libcmtd:87cdisp.obj
 0001:000709ab       __ctrandisp1               004719ab f libcmtd:87cdisp.obj
 0001:000709de       __fload                    004719de f libcmtd:87cdisp.obj
 0001:00070a20       ?_set_new_handler@@YAP6AHI@ZP6AHI@Z@Z 00471a20 f libcmtd:handler.obj
 0001:00070a60       ?_query_new_handler@@YAP6AHI@ZXZ 00471a60 f libcmtd:handler.obj
 0001:00070a80       __callnewh                 00471a80 f libcmtd:handler.obj
 0001:00070ae0       __malloc_base              00471ae0 f libcmtd:malloc.obj
 0001:00070b10       __nh_malloc_base           00471b10 f libcmtd:malloc.obj
 0001:00070bb0       __heap_alloc_base          00471bb0 f libcmtd:malloc.obj
 0001:00070c30       __CrtDefaultAllocHook      00471c30 f libcmtd:dbghook.obj
 0001:00070c50       __expand_base              00471c50 f libcmtd:expand.obj
 0001:00070d40       __realloc_base             00471d40 f libcmtd:realloc.obj
 0001:00070f70       __free_base                00471f70 f libcmtd:free.obj
 0001:00071000       __heapchk                  00472000 f libcmtd:heapchk.obj
 0001:000710a0       __heapset                  004720a0 f libcmtd:heapchk.obj
 0001:000710c0       __heap_init                004720c0 f libcmtd:heapinit.obj
 0001:00071120       __heap_term                00472120 f libcmtd:heapinit.obj
 0001:00071180       __isctype                  00472180 f libcmtd:isctype.obj
 0001:00071240       __flsbuf                   00472240 f libcmtd:_flsbuf.obj
 0001:000714e0       __read                     004724e0 f libcmtd:read.obj
 0001:00071590       __read_lk                  00472590 f libcmtd:read.obj
 0001:00071a50       __write                    00472a50 f libcmtd:write.obj
 0001:00071b00       __write_lk                 00472b00 f libcmtd:write.obj
 0001:00071e00       ___loctotime_t             00472e00 f libcmtd:dtoxtime.obj
 0001:00071f20       __alloc_osfhnd             00472f20 f libcmtd:osfinfo.obj
 0001:00072110       __set_osfhnd               00473110 f libcmtd:osfinfo.obj
 0001:00072220       __free_osfhnd              00473220 f libcmtd:osfinfo.obj
 0001:00072350       __get_osfhandle            00473350 f libcmtd:osfinfo.obj
 0001:000723f0       __open_osfhandle           004733f0 f libcmtd:osfinfo.obj
 0001:00072510       __lock_fhandle             00473510 f libcmtd:osfinfo.obj
 0001:000725b0       __unlock_fhandle           004735b0 f libcmtd:osfinfo.obj
 0001:000725f0       __fFCOS                    004735f0   libcmtd:87trig.obj
 0001:000725fa       __fFSIN                    004735fa   libcmtd:87trig.obj
 0001:0007263c       __fFATN2                   0047363c   libcmtd:87triga.obj
 0001:0007268c       __rtpiby2                  0047368c   libcmtd:87triga.obj
 0001:000726d0       __allmul                   004736d0 f libcmtd:llmul.obj
 0001:00072710       __fltin2                   00473710 f libcmtd:cfin.obj
 0001:000727e0       _setlocale                 004737e0 f libcmtd:setlocal.obj
 0001:00072ec0       __expandlocale             00473ec0 f libcmtd:setlocal.obj
 0001:00073080       ___init_dummy              00474080 f libcmtd:setlocal.obj
 0001:000730a0       __strcats                  004740a0 f libcmtd:setlocal.obj
 0001:00073100       ___lc_strtolc              00474100 f libcmtd:setlocal.obj
 0001:000732b0       ___lc_lctostr              004742b0 f libcmtd:setlocal.obj
 0001:00073330       ___crtLCMapStringW         00474330 f libcmtd:aw_map.obj
 0001:000736a0       ___crtLCMapStringA         004746a0 f libcmtd:aw_map.obj
 0001:00073a30       __XcptFilter               00474a30 f libcmtd:winxfltr.obj
 0001:00073ca8       __except_handler3          00474ca8 f libcmtd:exsup3.obj
 0001:00073d65       __seh_longjmp_unwind@4     00474d65 f libcmtd:exsup3.obj
 0001:00073d80       __ismbbkalnum              00474d80 f libcmtd:ismbbyte.obj
 0001:00073da0       __ismbbkprint              00474da0 f libcmtd:ismbbyte.obj
 0001:00073dc0       __ismbbkpunct              00474dc0 f libcmtd:ismbbyte.obj
 0001:00073de0       __ismbbalnum               00474de0 f libcmtd:ismbbyte.obj
 0001:00073e10       __ismbbalpha               00474e10 f libcmtd:ismbbyte.obj
 0001:00073e40       __ismbbgraph               00474e40 f libcmtd:ismbbyte.obj
 0001:00073e70       __ismbbprint               00474e70 f libcmtd:ismbbyte.obj
 0001:00073ea0       __ismbbpunct               00474ea0 f libcmtd:ismbbyte.obj
 0001:00073ec0       __ismbblead                00474ec0 f libcmtd:ismbbyte.obj
 0001:00073ee0       __ismbbtrail               00474ee0 f libcmtd:ismbbyte.obj
 0001:00073f00       __ismbbkana                00474f00 f libcmtd:ismbbyte.obj
 0001:00073fc0       __setenvp                  00474fc0 f libcmtd:stdenvp.obj
 0001:00074100       __setargv                  00475100 f libcmtd:stdargv.obj
 0001:00074590       ___crtGetEnvironmentStringsW 00475590 f libcmtd:aw_env.obj
 0001:00074850       ___crtGetEnvironmentStringsA 00475850 f libcmtd:aw_env.obj
 0001:00074ab0       __setmbcp                  00475ab0 f libcmtd:mbctype.obj
 0001:00074fe0       __getmbcp                  00475fe0 f libcmtd:mbctype.obj
 0001:00075000       ___initmbctable            00476000 f libcmtd:mbctype.obj
 0001:00075020       __FF_MSGBANNER             00476020 f libcmtd:crt0msg.obj
 0001:00075080       __NMSG_WRITE               00476080 f libcmtd:crt0msg.obj
 0001:000752a0       __GET_RTERRMSG             004762a0 f libcmtd:crt0msg.obj
 0001:00075320       ___initstdio               00476320 f libcmtd:_file.obj
 0001:00075480       ___endstdio                00476480 f libcmtd:_file.obj
 0001:000754b0       _itoa                      004764b0 f libcmtd:xtoa.obj
 0001:000754b0       __itoa                     004764b0 f libcmtd:xtoa.obj
 0001:000755d0       __ltoa                     004765d0 f libcmtd:xtoa.obj
 0001:00075630       __ultoa                    00476630 f libcmtd:xtoa.obj
 0001:00075660       __i64toa                   00476660 f libcmtd:xtoa.obj
 0001:000757b0       __ui64toa                  004767b0 f libcmtd:xtoa.obj
 0001:000757e0       __snprintf                 004767e0 f libcmtd:snprintf.obj
 0001:000758d0       __vsnprintf                004768d0 f libcmtd:vsnprint.obj
 0001:000759c0       _signal                    004769c0 f libcmtd:winsig.obj
 0001:00075cf0       _raise                     00476cf0 f libcmtd:winsig.obj
 0001:00075ff0       ___fpecode                 00476ff0 f libcmtd:winsig.obj
 0001:00076010       ___pxcptinfoptrs           00477010 f libcmtd:winsig.obj
 0001:00076030       ___crtMessageBoxA          00477030 f libcmtd:crtmbox.obj
 0001:00076110       __commit                   00477110 f libcmtd:commit.obj
 0001:00076230       __open                     00477230 f libcmtd:open.obj
 0001:00076280       __sopen                    00477280 f libcmtd:open.obj
 0001:000768c0       __isatty                   004778c0 f libcmtd:isatty.obj
 0001:00076910       _wctomb                    00477910 f libcmtd:wctomb.obj
 0001:00076990       __wctomb_lk                00477990 f libcmtd:wctomb.obj
 0001:00076a70       __aulldiv                  00477a70 f libcmtd:ulldiv.obj
 0001:00076ae0       __aullrem                  00477ae0 f libcmtd:ullrem.obj
 0001:00076b60       __getbuf                   00477b60 f libcmtd:_getbuf.obj
 0001:00076c20       __statusfp                 00477c20 f libcmtd:ieee87.obj
 0001:00076c50       __clearfp                  00477c50 f libcmtd:ieee87.obj
 0001:00076c80       __control87                00477c80 f libcmtd:ieee87.obj
 0001:00076cd0       __controlfp                00477cd0 f libcmtd:ieee87.obj
 0001:00076d00       __fpreset                  00477d00 f libcmtd:ieee87.obj
 0001:00077100       __fptrap                   00478100 f libcmtd:crt0fp.obj
 0001:00077120       __ZeroTail                 00478120 f libcmtd:intrncvt.obj
 0001:000771c0       __IncMan                   004781c0 f libcmtd:intrncvt.obj
 0001:00077280       __RoundMan                 00478280 f libcmtd:intrncvt.obj
 0001:00077360       __CopyMan                  00478360 f libcmtd:intrncvt.obj
 0001:000773b0       __FillZeroMan              004783b0 f libcmtd:intrncvt.obj
 0001:000773f0       __IsZeroMan                004783f0 f libcmtd:intrncvt.obj
 0001:00077440       __ShrMan                   00478440 f libcmtd:intrncvt.obj
 0001:00077530       __ld12cvt                  00478530 f libcmtd:intrncvt.obj
 0001:000777a0       __ld12tod                  004787a0 f libcmtd:intrncvt.obj
 0001:000777d0       __ld12tof                  004787d0 f libcmtd:intrncvt.obj
 0001:00077800       __ld12told                 00478800 f libcmtd:intrncvt.obj
 0001:000778d0       __atodbl                   004788d0 f libcmtd:intrncvt.obj
 0001:00077910       __atoldbl                  00478910 f libcmtd:intrncvt.obj
 0001:00077950       __atoflt                   00478950 f libcmtd:intrncvt.obj
 0001:00077990       __fptostr                  00478990 f libcmtd:_fptostr.obj
 0001:00077a70       __fltout2                  00478a70 f libcmtd:cfout.obj
 0001:00077af0       ___dtold                   00478af0 f libcmtd:cfout.obj
 0001:00077c70       _memmove                   00478c70 f libcmtd:memmove.obj
 0001:00077e10       ?__CxxUnhandledExceptionFilter@@YGJPAU_EXCEPTION_POINTERS@@@Z 00478e10 f libcmtd:unhandld.obj
 0001:00077eb0       ?__CxxRestoreUnhandledExceptionFilter@@YAXXZ 00478eb0 f libcmtd:unhandld.obj
 0001:00077ed0       ?terminate@@YAXXZ          00478ed0 f libcmtd:hooks.obj
 0001:00077f70       ?unexpected@@YAXXZ         00478f70 f libcmtd:hooks.obj
 0001:00077fa0       ?_inconsistency@@YAXXZ     00478fa0 f libcmtd:hooks.obj
 0001:00078040       ?_ValidateRead@@YAHPBXI@Z  00479040 f libcmtd:validate.obj
 0001:00078080       ?_ValidateWrite@@YAHPAXI@Z 00479080 f libcmtd:validate.obj
 0001:000780c0       ?_ValidateExecute@@YAHP6GHXZ@Z 004790c0 f libcmtd:validate.obj
 0001:00078100       __trandisp1                00479100 f libcmtd:87disp.obj
 0001:00078167       __trandisp2                00479167 f libcmtd:87disp.obj
 0001:000781f3       __rttospopde               004791f3   libcmtd:87disp.obj
 0001:000781f8       __rttospop                 004791f8   libcmtd:87disp.obj
 0001:000781fa       __rtnospop                 004791fa   libcmtd:87disp.obj
 0001:000781fc       __rttosnpop                004791fc   libcmtd:87disp.obj
 0001:000781fd       __rtnospopde               004791fd   libcmtd:87disp.obj
 0001:00078204       __rtzeropop                00479204   libcmtd:87disp.obj
 0001:00078206       __rtzeronpop               00479206   libcmtd:87disp.obj
 0001:0007820b       __rtonepop                 0047920b   libcmtd:87disp.obj
 0001:0007820d       __rtonenpop                0047920d   libcmtd:87disp.obj
 0001:00078212       __tosnan1                  00479212   libcmtd:87disp.obj
 0001:0007823d       __nosnan2                  0047923d   libcmtd:87disp.obj
 0001:0007823f       __tosnan2                  0047923f   libcmtd:87disp.obj
 0001:00078267       __nan2                     00479267   libcmtd:87disp.obj
 0001:000782a6       __rtindfpop                004792a6   libcmtd:87disp.obj
 0001:000782a8       __rtindfnpop               004792a8   libcmtd:87disp.obj
 0001:000782b9       __rttosnpopde              004792b9   libcmtd:87disp.obj
 0001:000782c3       __rtchsifneg               004792c3   libcmtd:87disp.obj
 0001:000782d0       __87except                 004792d0 f libcmtd:87except.obj
 0001:00078490       ___crtGetStringTypeW       00479490 f libcmtd:aw_str.obj
 0001:000786f0       ___crtGetStringTypeA       004796f0 f libcmtd:aw_str.obj
 0001:00078890       ___tzset                   00479890 f libcmtd:tzset.obj
 0001:000788e0       __tzset                    004798e0 f libcmtd:tzset.obj
 0001:00078ca0       __isindst                  00479ca0 f libcmtd:tzset.obj
 0001:00079271       __fFEXP                    0047a271   libcmtd:87tran.obj
 0001:000792d8       __rtinfpopse               0047a2d8   libcmtd:87tran.obj
 0001:000792da       __rtinfnpopse              0047a2da   libcmtd:87tran.obj
 0001:000792ea       __fFLN                     0047a2ea   libcmtd:87tran.obj
 0001:0007939f       __rtinfpop                 0047a39f   libcmtd:87tran.obj
 0001:000793a1       __rtinfnpop                0047a3a1   libcmtd:87tran.obj
 0001:000793be       __ffexpm1                  0047a3be   libcmtd:87tran.obj
 0001:00079470       ___strgtold12              0047a470 f libcmtd:strgtold.obj
 0001:0007a090       ___STRINGTOLD              0047b090 f libcmtd:strgtold.obj
 0001:0007a0f0       ___init_time               0047b0f0 f libcmtd:inittime.obj
 0001:0007ab50       ___init_numeric            0047bb50 f libcmtd:initnum.obj
 0001:0007aea0       ___init_monetary           0047bea0 f libcmtd:initmon.obj
 0001:0007b300       ___init_ctype              0047c300 f libcmtd:initctyp.obj
 0001:0007b700       ___init_collate            0047c700 f libcmtd:initcoll.obj
 0001:0007b720       _strcspn                   0047c720 f libcmtd:strcspn.obj
 0001:0007b760       _strpbrk                   0047c760 f libcmtd:strpbrk.obj
 0001:0007b7a0       ___get_qualified_locale    0047c7a0 f libcmtd:getqloc.obj
 0001:0007bef0       _wcslen                    0047cef0 f libcmtd:wcslen.obj
 0001:0007bf40       __fcloseall                0047cf40 f libcmtd:closeall.obj
 0001:0007c030       __chsize                   0047d030 f libcmtd:chsize.obj
 0001:0007c0d0       __chsize_lk                0047d0d0 f libcmtd:chsize.obj
 0001:0007c360       ___addl                    0047d360 f libcmtd:mantold.obj
 0001:0007c3b0       ___add_12                  0047d3b0 f libcmtd:mantold.obj
 0001:0007c460       ___shl_12                  0047d460 f libcmtd:mantold.obj
 0001:0007c4e0       ___shr_12                  0047d4e0 f libcmtd:mantold.obj
 0001:0007c560       ___mtold12                 0047d560 f libcmtd:mantold.obj
 0001:0007c6a0       _$I10_OUTPUT               0047d6a0 f libcmtd:x10fout.obj
 0001:0007cbe0       _abort                     0047dbe0 f libcmtd:abort.obj
 0001:0007cc10       __handle_qnan1             0047dc10 f libcmtd:fpexcept.obj
 0001:0007cc90       __handle_qnan2             0047dc90 f libcmtd:fpexcept.obj
 0001:0007cd20       __except1                  0047dd20 f libcmtd:fpexcept.obj
 0001:0007cdf0       __except2                  0047ddf0 f libcmtd:fpexcept.obj
 0001:0007cee0       __raise_exc                0047dee0 f libcmtd:fpexcept.obj
 0001:0007d430       __handle_exc               0047e430 f libcmtd:fpexcept.obj
 0001:0007d7c0       __umatherr                 0047e7c0 f libcmtd:fpexcept.obj
 0001:0007d880       __set_errno                0047e880 f libcmtd:fpexcept.obj
 0001:0007d950       __errcode                  0047e950 f libcmtd:fpexcept.obj
 0001:0007d9e0       __matherr                  0047e9e0 f libcmtd:matherr.obj
 0001:0007da00       __statfp                   0047ea00 f libcmtd:fpctrl.obj
 0001:0007da20       __clrfp                    0047ea20 f libcmtd:fpctrl.obj
 0001:0007da40       __ctrlfp                   0047ea40 f libcmtd:fpctrl.obj
 0001:0007da80       __set_statfp               0047ea80 f libcmtd:fpctrl.obj
 0001:0007db00       _wcstombs                  0047eb00 f libcmtd:wcstombs.obj
 0001:0007db80       __wcstombs_lk              0047eb80 f libcmtd:wcstombs.obj
 0001:0007df70       _getenv                    0047ef70 f libcmtd:getenv.obj
 0001:0007dfb0       __getenv_lk                0047efb0 f libcmtd:getenv.obj
 0001:0007e0a0       __powhlp                   0047f0a0 f libcmtd:powhlp.obj
 0001:0007e340       __d_inttype                0047f340 f libcmtd:powhlp.obj
 0001:0007e3e0       _fdiv_main_routine         0047f3e0 f libcmtd:adj_fdiv.obj
 0001:0007e4f7       __adj_fdiv_r               0047f4f7 f libcmtd:adj_fdiv.obj
 0001:0007e996       __fdivp_sti_st             0047f996 f libcmtd:adj_fdiv.obj
 0001:0007e9a9       __fdivrp_sti_st            0047f9a9 f libcmtd:adj_fdiv.obj
 0001:0007e9bc       __adj_fdiv_m32             0047f9bc f libcmtd:adj_fdiv.obj
 0001:0007ea08       __adj_fdiv_m64             0047fa08 f libcmtd:adj_fdiv.obj
 0001:0007ea54       __adj_fdiv_m16i            0047fa54 f libcmtd:adj_fdiv.obj
 0001:0007ea88       __adj_fdiv_m32i            0047fa88 f libcmtd:adj_fdiv.obj
 0001:0007eabc       __adj_fdivr_m32            0047fabc f libcmtd:adj_fdiv.obj
 0001:0007eb08       __adj_fdivr_m64            0047fb08 f libcmtd:adj_fdiv.obj
 0001:0007eb54       __adj_fdivr_m16i           0047fb54 f libcmtd:adj_fdiv.obj
 0001:0007eb88       __adj_fdivr_m32i           0047fb88 f libcmtd:adj_fdiv.obj
 0001:0007ebbc       __safe_fdiv                0047fbbc f libcmtd:adj_fdiv.obj
 0001:0007ebd1       __safe_fdivr               0047fbd1 f libcmtd:adj_fdiv.obj
 0001:0007ebe6       __fprem_common             0047fbe6 f libcmtd:adj_fdiv.obj
 0001:0007edec       __adj_fprem                0047fdec f libcmtd:adj_fdiv.obj
 0001:0007ee9e       __fprem1_common            0047fe9e f libcmtd:adj_fdiv.obj
 0001:0007f0a4       __adj_fprem1               004800a4 f libcmtd:adj_fdiv.obj
 0001:0007f159       __safe_fprem               00480159 f libcmtd:adj_fdiv.obj
 0001:0007f15f       __safe_fprem1              0048015f f libcmtd:adj_fdiv.obj
 0001:0007f165       __adj_fpatan               00480165 f libcmtd:adj_fdiv.obj
 0001:0007f168       __adj_fptan                00480168 f libcmtd:adj_fdiv.obj
 0001:0007f170       ___ld12mul                 00480170 f libcmtd:tenpow.obj
 0001:0007f5a0       ___multtenpow12            004805a0 f libcmtd:tenpow.obj
 0001:0007f680       __Getdays                  00480680 f libcmtd:strftime.obj
 0001:0007f790       __Getmonths                00480790 f libcmtd:strftime.obj
 0001:0007f8b0       __Gettnames                004808b0 f libcmtd:strftime.obj
 0001:0007fbf0       _strftime                  00480bf0 f libcmtd:strftime.obj
 0001:0007fc20       __Strftime                 00480c20 f libcmtd:strftime.obj
 0001:00080a30       ___getlocaleinfo           00481a30 f libcmtd:inithelp.obj
 0001:00080d00       _localeconv                00481d00 f libcmtd:lconv.obj
 0001:00080d20       ___crtGetLocaleInfoW       00481d20 f libcmtd:aw_loc.obj
 0001:00080ee0       ___crtGetLocaleInfoA       00481ee0 f libcmtd:aw_loc.obj
 0001:000810b0       _wcstol                    004820b0 f libcmtd:wcstol.obj
 0001:00081420       _wcstoul                   00482420 f libcmtd:wcstol.obj
 0001:00081450       _stricmp                   00482450 f libcmtd:stricmp.obj
 0001:00081450       __strcmpi                  00482450 f libcmtd:stricmp.obj
 0001:00081450       _strcmpi                   00482450 f libcmtd:stricmp.obj
 0001:00081450       __stricmp                  00482450 f libcmtd:stricmp.obj
 0001:00081520       __setmode                  00482520 f libcmtd:setmode.obj
 0001:000815c0       __setmode_lk               004825c0 f libcmtd:setmode.obj
 0001:000816e0       __set_exp                  004826e0 f libcmtd:util.obj
 0001:00081730       __get_exp                  00482730 f libcmtd:util.obj
 0001:00081770       __add_exp                  00482770 f libcmtd:util.obj
 0001:000817b0       __set_bexp                 004827b0 f libcmtd:util.obj
 0001:000817f0       __sptype                   004827f0 f libcmtd:util.obj
 0001:000818b0       __decomp                   004828b0 f libcmtd:util.obj
 0001:00081a00       __mbsnbicoll               00482a00 f libcmtd:mbsnbico.obj
 0001:00081a70       ___wtomb_environ           00482a70 f libcmtd:wtombenv.obj
 0001:00081b40       __frnd                     00482b40 f libcmtd:frnd.obj
 0001:00081b60       __copysign                 00482b60 f libcmtd:ieeemisc.obj
 0001:00081ba0       __chgsign                  00482ba0 f libcmtd:ieeemisc.obj
 0001:00081be0       __scalb                    00482be0 f libcmtd:ieeemisc.obj
 0001:00081c10       __logb                     00482c10 f libcmtd:ieeemisc.obj
 0001:00081d70       __nextafter                00482d70 f libcmtd:ieeemisc.obj
 0001:00082120       __finite                   00483120 f libcmtd:ieeemisc.obj
 0001:00082160       __isnan                    00483160 f libcmtd:ieeemisc.obj
 0001:000821d0       __fpclass                  004831d0 f libcmtd:ieeemisc.obj
 0001:00082310       _towupper                  00483310 f libcmtd:towupper.obj
 0001:000823d0       __towupper_lk              004833d0 f libcmtd:towupper.obj
 0001:000824b0       _iswctype                  004834b0 f libcmtd:iswctype.obj
 0001:00082560       _is_wctype                 00483560 f libcmtd:iswctype.obj
 0001:00082580       ___crtCompareStringW       00483580 f libcmtd:aw_cmp.obj
 0001:000828e0       ___crtCompareStringA       004838e0 f libcmtd:aw_cmp.obj
 0001:00082db0       ___crtsetenv               00483db0 f libcmtd:setenv.obj
 0001:000832c0       _ldexp                     004842c0 f libcmtd:ldexp.obj
 0001:000835b0       __mbschr                   004845b0 f libcmtd:mbschr.obj
 0001:000836be       _joyGetNumDevs@0           004846be f winmm:WINMM.dll
 0001:000836c4       _timeKillEvent@4           004846c4 f winmm:WINMM.dll
 0001:000836ca       _timeEndPeriod@4           004846ca f winmm:WINMM.dll
 0001:000836d0       _timeSetEvent@20           004846d0 f winmm:WINMM.dll
 0001:000836d6       _timeBeginPeriod@4         004846d6 f winmm:WINMM.dll
 0001:000836dc       _timeGetDevCaps@8          004846dc f winmm:WINMM.dll
 0001:000836e2       _mciSendStringA@16         004846e2 f winmm:WINMM.dll
 0001:000836e8       _auxSetVolume@8            004846e8 f winmm:WINMM.dll
 0001:000836ee       _auxGetDevCapsA@12         004846ee f winmm:WINMM.dll
 0001:000836f4       _auxGetNumDevs@0           004846f4 f winmm:WINMM.dll
 0001:000836fa       _DirectDrawCreate@12       004846fa f ddraw:DDRAW.dll
 0001:00083700       _DirectDrawEnumerateA@8    00484700 f ddraw:DDRAW.dll
 0001:00083706       _InitializeCriticalSection@4 00484706 f kernel32:KERNEL32.dll
 0001:0008370c       _GetModuleFileNameA@12     0048470c f kernel32:KERNEL32.dll
 0001:00083712       _GetVersion@0              00484712 f kernel32:KERNEL32.dll
 0001:00083718       _SetErrorMode@4            00484718 f kernel32:KERNEL32.dll
 0001:0008371e       _GlobalMemoryStatus@4      0048471e f kernel32:KERNEL32.dll
 0001:00083724       _GlobalSize@4              00484724 f kernel32:KERNEL32.dll
 0001:0008372a       _GlobalHandle@4            0048472a f kernel32:KERNEL32.dll
 0001:00083730       _GetTickCount@0            00484730 f kernel32:KERNEL32.dll
 0001:00083736       _LeaveCriticalSection@4    00484736 f kernel32:KERNEL32.dll
 0001:0008373c       _EnterCriticalSection@4    0048473c f kernel32:KERNEL32.dll
 0001:00083742       _CreateEventA@16           00484742 f kernel32:KERNEL32.dll
 0001:00083748       _PulseEvent@4              00484748 f kernel32:KERNEL32.dll
 0001:0008374e       _CloseHandle@4             0048474e f kernel32:KERNEL32.dll
 0001:00083754       _WaitForSingleObject@8     00484754 f kernel32:KERNEL32.dll
 0001:0008375a       _SetThreadPriority@8       0048475a f kernel32:KERNEL32.dll
 0001:00083760       _GetCurrentThread@0        00484760 f kernel32:KERNEL32.dll
 0001:00083766       _RtlUnwind@16              00484766 f kernel32:KERNEL32.dll
 0001:0008376c       _IsBadWritePtr@8           0048476c f kernel32:KERNEL32.dll
 0001:00083772       _IsBadReadPtr@8            00484772 f kernel32:KERNEL32.dll
 0001:00083778       _HeapValidate@12           00484778 f kernel32:KERNEL32.dll
 0001:0008377e       _ExitProcess@4             0048477e f kernel32:KERNEL32.dll
 0001:00083784       _TerminateProcess@8        00484784 f kernel32:KERNEL32.dll
 0001:0008378a       _GetCurrentProcess@0       0048478a f kernel32:KERNEL32.dll
 0001:00083790       _GetTimeZoneInformation@4  00484790 f kernel32:KERNEL32.dll
 0001:00083796       _GetSystemTime@4           00484796 f kernel32:KERNEL32.dll
 0001:0008379c       _GetLocalTime@4            0048479c f kernel32:KERNEL32.dll
 0001:000837a2       _HeapFree@12               004847a2 f kernel32:KERNEL32.dll
 0001:000837a8       _VirtualFree@12            004847a8 f kernel32:KERNEL32.dll
 0001:000837ae       _VirtualAlloc@16           004847ae f kernel32:KERNEL32.dll
 0001:000837b4       _HeapAlloc@12              004847b4 f kernel32:KERNEL32.dll
 0001:000837ba       _GetLastError@0            004847ba f kernel32:KERNEL32.dll
 0001:000837c0       _ResumeThread@4            004847c0 f kernel32:KERNEL32.dll
 0001:000837c6       _CreateThread@24           004847c6 f kernel32:KERNEL32.dll
 0001:000837cc       _TlsSetValue@8             004847cc f kernel32:KERNEL32.dll
 0001:000837d2       _ExitThread@4              004847d2 f kernel32:KERNEL32.dll
 0001:000837d8       _GetModuleHandleA@4        004847d8 f kernel32:KERNEL32.dll
 0001:000837de       _GetStartupInfoA@4         004847de f kernel32:KERNEL32.dll
 0001:000837e4       _GetCommandLineA@0         004847e4 f kernel32:KERNEL32.dll
 0001:000837ea       _DeleteCriticalSection@4   004847ea f kernel32:KERNEL32.dll
 0001:000837f0       _FatalAppExitA@8           004847f0 f kernel32:KERNEL32.dll
 0001:000837f6       _DebugBreak@0              004847f6 f kernel32:KERNEL32.dll
 0001:000837fc       _GetStdHandle@4            004847fc f kernel32:KERNEL32.dll
 0001:00083802       _InterlockedDecrement@4    00484802 f kernel32:KERNEL32.dll
 0001:00083808       _OutputDebugStringA@4      00484808 f kernel32:KERNEL32.dll
 0001:0008380e       _WriteFile@20              0048480e f kernel32:KERNEL32.dll
 0001:00083814       _GetProcAddress@8          00484814 f kernel32:KERNEL32.dll
 0001:0008381a       _LoadLibraryA@4            0048481a f kernel32:KERNEL32.dll
 0001:00083820       _InterlockedIncrement@4    00484820 f kernel32:KERNEL32.dll
 0001:00083826       _SetFilePointer@16         00484826 f kernel32:KERNEL32.dll
 0001:0008382c       _SetHandleCount@4          0048482c f kernel32:KERNEL32.dll
 0001:00083832       _GetFileType@4             00484832 f kernel32:KERNEL32.dll
 0001:00083838       _GetCurrentThreadId@0      00484838 f kernel32:KERNEL32.dll
 0001:0008383e       _TlsAlloc@0                0048483e f kernel32:KERNEL32.dll
 0001:00083844       _TlsFree@4                 00484844 f kernel32:KERNEL32.dll
 0001:0008384a       _SetLastError@4            0048484a f kernel32:KERNEL32.dll
 0001:00083850       _TlsGetValue@4             00484850 f kernel32:KERNEL32.dll
 0001:00083856       _HeapReAlloc@16            00484856 f kernel32:KERNEL32.dll
 0001:0008385c       _HeapDestroy@4             0048485c f kernel32:KERNEL32.dll
 0001:00083862       _HeapCreate@12             00484862 f kernel32:KERNEL32.dll
 0001:00083868       _ReadFile@20               00484868 f kernel32:KERNEL32.dll
 0001:0008386e       _SetStdHandle@8            0048486e f kernel32:KERNEL32.dll
 0001:00083874       _Sleep@4                   00484874 f kernel32:KERNEL32.dll
 0001:0008387a       _MultiByteToWideChar@24    0048487a f kernel32:KERNEL32.dll
 0001:00083880       _LCMapStringA@24           00484880 f kernel32:KERNEL32.dll
 0001:00083886       _WideCharToMultiByte@32    00484886 f kernel32:KERNEL32.dll
 0001:0008388c       _LCMapStringW@24           0048488c f kernel32:KERNEL32.dll
 0001:00083892       _UnhandledExceptionFilter@4 00484892 f kernel32:KERNEL32.dll
 0001:00083898       _FreeEnvironmentStringsA@4 00484898 f kernel32:KERNEL32.dll
 0001:0008389e       _GetEnvironmentStrings@0   0048489e f kernel32:KERNEL32.dll
 0001:000838a4       _FreeEnvironmentStringsW@4 004848a4 f kernel32:KERNEL32.dll
 0001:000838aa       _GetEnvironmentStringsW@0  004848aa f kernel32:KERNEL32.dll
 0001:000838b0       _GetCPInfo@8               004848b0 f kernel32:KERNEL32.dll
 0001:000838b6       _GetACP@0                  004848b6 f kernel32:KERNEL32.dll
 0001:000838bc       _GetOEMCP@0                004848bc f kernel32:KERNEL32.dll
 0001:000838c2       _SetConsoleCtrlHandler@8   004848c2 f kernel32:KERNEL32.dll
 0001:000838c8       _FlushFileBuffers@4        004848c8 f kernel32:KERNEL32.dll
 0001:000838ce       _CreateFileA@28            004848ce f kernel32:KERNEL32.dll
 0001:000838d4       _SetUnhandledExceptionFilter@4 004848d4 f kernel32:KERNEL32.dll
 0001:000838da       _IsBadCodePtr@4            004848da f kernel32:KERNEL32.dll
 0001:000838e0       _GetStringTypeA@20         004848e0 f kernel32:KERNEL32.dll
 0001:000838e6       _GetStringTypeW@16         004848e6 f kernel32:KERNEL32.dll
 0001:000838ec       _IsValidLocale@8           004848ec f kernel32:KERNEL32.dll
 0001:000838f2       _IsValidCodePage@4         004848f2 f kernel32:KERNEL32.dll
 0001:000838f8       _GetUserDefaultLCID@0      004848f8 f kernel32:KERNEL32.dll
 0001:000838fe       _SetEndOfFile@4            004848fe f kernel32:KERNEL32.dll
 0001:00083904       _RaiseException@16         00484904 f kernel32:KERNEL32.dll
 0001:0008390a       _GetLocaleInfoA@16         0048490a f kernel32:KERNEL32.dll
 0001:00083910       _GetLocaleInfoW@16         00484910 f kernel32:KERNEL32.dll
 0001:00083916       _CompareStringA@24         00484916 f kernel32:KERNEL32.dll
 0001:0008391c       _CompareStringW@24         0048491c f kernel32:KERNEL32.dll
 0001:00083922       _SetEnvironmentVariableA@8 00484922 f kernel32:KERNEL32.dll
 0001:00083928       _SetCursorPos@8            00484928 f user32:USER32.dll
 0001:0008392e       _DispatchMessageA@4        0048492e f user32:USER32.dll
 0001:00083934       _TranslateMessage@4        00484934 f user32:USER32.dll
 0001:0008393a       _PeekMessageA@20           0048493a f user32:USER32.dll
 0001:00083940       _MessageBoxA@16            00484940 f user32:USER32.dll
 0001:00083946       _ShowWindow@8              00484946 f user32:USER32.dll
 0001:0008394c       _PostQuitMessage@4         0048494c f user32:USER32.dll
 0001:00083952       _wsprintfA                 00484952 f user32:USER32.dll
 0001:00083958       _ValidateRect@8            00484958 f user32:USER32.dll
 0001:0008395e       _ShowCursor@4              0048495e f user32:USER32.dll
 0001:00083964       _SetFocus@4                00484964 f user32:USER32.dll
 0001:0008396a       _UpdateWindow@4            0048496a f user32:USER32.dll
 0001:00083970       _GetClientRect@8           00484970 f user32:USER32.dll
 0001:00083976       _ClientToScreen@8          00484976 f user32:USER32.dll
 0001:0008397c       _CreateWindowExA@48        0048497c f user32:USER32.dll
 0001:00083982       _GetSystemMetrics@4        00484982 f user32:USER32.dll
 0001:00083988       _RegisterClassA@4          00484988 f user32:USER32.dll
 0001:0008398e       _LoadCursorA@8             0048498e f user32:USER32.dll
 0001:00083994       _LoadIconA@8               00484994 f user32:USER32.dll
 0001:0008399a       _DefWindowProcA@16         0048499a f user32:USER32.dll
 0001:000839a0       _explode                   004849a0 f implode:explode.obj
 0001:00084060       _implode                   00485060 f implode:implode.obj
 0001:00084b34       _DirectSoundCreate@12      00485b34 f dsound:DSOUND.dll
 0001:00084b40       _remove                    00485b40 f libcmtd:unlink.obj
 0001:00084ba0       __unlink                   00485ba0 f libcmtd:unlink.obj
 0001:00084ba0       _unlink                    00485ba0 f libcmtd:unlink.obj
 0001:00084bc0       __mkdir                    00485bc0 f libcmtd:mkdir.obj
 0001:00084bc0       _mkdir                     00485bc0 f libcmtd:mkdir.obj
 0001:00084c20       __strupr                   00485c20 f libcmtd:strupr.obj
 0001:00084c20       _strupr                    00485c20 f libcmtd:strupr.obj
 0001:00084e20       __fileno                   00485e20 f libcmtd:fileno.obj
 0001:00084e20       _fileno                    00485e20 f libcmtd:fileno.obj
 0001:00084e36       _DeleteFileA@4             00485e36 f kernel32:KERNEL32.dll
 0001:00084e3c       _CreateDirectoryA@8        00485e3c f kernel32:KERNEL32.dll
 0002:00000058       ??_7TFileParseStream@@6B@  00486058   template.obj
 0002:00000070       ??_7TParseStream@@6B@      00486070   template.obj
 0002:000000d8       ??_7TWeaponBuilder@@6B@    004860d8   weapon.obj
 0002:000000e0       ??_7TWeapon@@6B@           004860e0   weapon.obj
 0002:00000190       ??_7TTileBuilder@@6B@      00486190   tile.obj
 0002:00000198       ??_7TTile@@6B@             00486198   tile.obj
 0002:00000248       ??_7TBitmapSurface@@6B@    00486248   bmsurface.obj
 0002:00000298       ??_7TScrollBuilder@@6B@    00486298   scroll.obj
 0002:000002a0       ??_7TScroll@@6B@           004862a0   scroll.obj
 0002:00000350       ??_7TScrollPane@@6B@       00486350   scroll.obj
 0002:000003a8       ??_7TButtonPane@@6B@       004863a8   scroll.obj
 0002:00000400       ??_7TPane@@6B@             00486400   scroll.obj
 0002:00000458       ??_7TPlayScreen@@6B@       00486458   playscreen.obj
 0002:00000490       ??_7TLogoScreen@@6B@       00486490   logoscreen.obj
 0002:000004c8       ??_7TPlayerBuilder@@6B@    004864c8   player.obj
 0002:000004d0       ??_7TPlayer@@6B@           004864d0   player.obj
 0002:00000580       ??_7TMultiAnimImageryBuilder@@6B@ 00486580   multianimimage.obj
 0002:00000588       ??_7TMultiAnimImagery@@6B@ 00486588   multianimimage.obj
 0002:00000650       ??_7TAnimImagery@@6B@      00486650   multianimimage.obj
 0002:00000718       ??_7TToolBuilder@@6B@      00486718   tool.obj
 0002:00000720       ??_7TTool@@6B@             00486720   tool.obj
 0002:000007d0       ??_7TMapPane@@6B@          004867d0   exlmain.obj
 0002:00000828       ??_7TAutoMap@@6B@          00486828   exlmain.obj
 0002:00000880       ??_7TInventory@@6B@        00486880   exlmain.obj
 0002:000008d8       ??_7TMainWindow@@6B@       004868d8   exlmain.obj
 0002:000008e0       ??_7TEquipPane@@6B@        004868e0   exlmain.obj
 0002:00000938       ??_7TMultiCtrlPane@@6B@    00486938   exlmain.obj
 0002:00000990       ??_7TSpellPane@@6B@        00486990   exlmain.obj
 0002:000009e8       ??_7TQuickSpellPane@@6B@   004869e8   exlmain.obj
 0002:00000a40       ??_7TStatPane@@6B@         00486a40   exlmain.obj
 0002:00000a98       ??_7TTextBar@@6B@          00486a98   exlmain.obj
 0002:00000af0       ??_7THealthBar@@6B@        00486af0   exlmain.obj
 0002:00000b48       ??_7TStatusBar@@6B@        00486b48   exlmain.obj
 0002:00000ba0       ??_7TStaminaBar@@6B@       00486ba0   exlmain.obj
 0002:00000bf8       ??_7THelperBuilder@@6B@    00486bf8   helper.obj
 0002:00000c00       ??_7THelper@@6B@           00486c00   helper.obj
 0002:00000cb0       ??_7TRangedWeaponBuilder@@6B@ 00486cb0   rangedweapon.obj
 0002:00000cb8       ??_7TRangedWeapon@@6B@     00486cb8   rangedweapon.obj
 0002:00000d68       ??_7TArmorBuilder@@6B@     00486d68   armor.obj
 0002:00000d70       ??_7TArmor@@6B@            00486d70   armor.obj
 0002:00000e20       ??_7TLightningAnimator@@6B@ 00486e20   lightninganim.obj
 0002:00000e30       ??_7TVideoSurface@@6B@     00486e30   ddsurface.obj
 0002:00000e90       ??_7TStringParseStream@@6B@ 00486e90   script.obj
 0002:00000ea8       ??_7T3DImagery@@6B@        00486ea8   3dimage.obj
 0002:00000fa0       ??_7T3DAnimator@@6B@       00486fa0   3dimage.obj
 0002:00000fb8       ??_7T3DHelperImagery@@6B@  00486fb8   3dimage.obj
 0002:00001080       ??_7T3DImageryBuilder@@6B@ 00487080   3dimage.obj
 0002:00001084       ??_7T3DHelperImageryBuilder@@6B@ 00487084   3dimage.obj
 0002:00001088       ??_7TLightningInst@@6B@    00487088   lightninginst.obj
 0002:00001168       ??_7TObjectInstance@@6B@   00487168   lightninginst.obj
 0002:00001218       ??_7TLightningInstBuilder@@6B@ 00487218   lightninginst.obj
 0002:00001220       ??_7TContainerBuilder@@6B@ 00487220   container.obj
 0002:00001228       ??_7TContainer@@6B@        00487228   container.obj
 0002:000012d8       ??_7TShadowBuilder@@6B@    004872d8   shadow.obj
 0002:000012e0       ??_7TShadow@@6B@           004872e0   shadow.obj
 0002:00001390       ??_7TAnimAnimator@@6B@     00487390   animimage.obj
 0002:0000139c       ??_7TAnimImageryBuilder@@6B@ 0048739c   animimage.obj
 0002:000013c8       ??_7TMultiSurface@@6B@     004873c8   Mappane.obj
 0002:00001410       ??_7TCharacter@@6B@        00487410   character.obj
 0002:000014c0       ??_7TCharacterBuilder@@6B@ 004874c0   character.obj
 0002:000014c8       ??_7TLightSourceBuilder@@6B@ 004874c8   lightsource.obj
 0002:000014d0       ??_7TLightSource@@6B@      004874d0   lightsource.obj
 0002:00001580       ??_7TSurface@@6B@          00487580   surface.obj
 0002:000015c8       _CLSID_DirectDraw          004875c8   directdraw.obj
 0002:000015d8       _CLSID_DirectDrawClipper   004875d8   directdraw.obj
 0002:000015e8       _IID_IDirectDraw           004875e8   directdraw.obj
 0002:000015f8       _IID_IDirectDraw2          004875f8   directdraw.obj
 0002:00001608       _IID_IDirectDrawSurface    00487608   directdraw.obj
 0002:00001618       _IID_IDirectDrawSurface2   00487618   directdraw.obj
 0002:00001628       _IID_IDirectDrawPalette    00487628   directdraw.obj
 0002:00001638       _IID_IDirectDrawClipper    00487638   directdraw.obj
 0002:00001648       _IID_IDirect3D             00487648   directdraw.obj
 0002:00001658       _IID_IDirect3DTexture      00487658   directdraw.obj
 0002:00001668       _IID_IDirect3DLight        00487668   directdraw.obj
 0002:00001678       _IID_IDirect3DMaterial     00487678   directdraw.obj
 0002:00001688       _IID_IDirect3DExecuteBuffer 00487688   directdraw.obj
 0002:00001698       _IID_IDirect3DViewport     00487698   directdraw.obj
 0002:000016a8       _CLSID_CDirect3DRMDevice   004876a8   directdraw.obj
 0002:000016b8       _CLSID_CDirect3DRMViewport 004876b8   directdraw.obj
 0002:000016c8       _CLSID_CDirect3DRMFrame    004876c8   directdraw.obj
 0002:000016d8       _CLSID_CDirect3DRMMesh     004876d8   directdraw.obj
 0002:000016e8       _CLSID_CDirect3DRMMeshBuilder 004876e8   directdraw.obj
 0002:000016f8       _CLSID_CDirect3DRMFace     004876f8   directdraw.obj
 0002:00001708       _CLSID_CDirect3DRMLight    00487708   directdraw.obj
 0002:00001718       _CLSID_CDirect3DRMTexture  00487718   directdraw.obj
 0002:00001728       _CLSID_CDirect3DRMWrap     00487728   directdraw.obj
 0002:00001738       _CLSID_CDirect3DRMMaterial 00487738   directdraw.obj
 0002:00001748       _CLSID_CDirect3DRMAnimation 00487748   directdraw.obj
 0002:00001758       _CLSID_CDirect3DRMAnimationSet 00487758   directdraw.obj
 0002:00001768       _CLSID_CDirect3DRMUserVisual 00487768   directdraw.obj
 0002:00001778       _CLSID_CDirect3DRMShadow   00487778   directdraw.obj
 0002:00001788       _IID_IDirect3DRMObject     00487788   directdraw.obj
 0002:00001798       _IID_IDirect3DRMDevice     00487798   directdraw.obj
 0002:000017a8       _IID_IDirect3DRMViewport   004877a8   directdraw.obj
 0002:000017b8       _IID_IDirect3DRMFrame      004877b8   directdraw.obj
 0002:000017c8       _IID_IDirect3DRMVisual     004877c8   directdraw.obj
 0002:000017d8       _IID_IDirect3DRMMesh       004877d8   directdraw.obj
 0002:000017e8       _IID_IDirect3DRMMeshBuilder 004877e8   directdraw.obj
 0002:000017f8       _IID_IDirect3DRMFace       004877f8   directdraw.obj
 0002:00001808       _IID_IDirect3DRMLight      00487808   directdraw.obj
 0002:00001818       _IID_IDirect3DRMTexture    00487818   directdraw.obj
 0002:00001828       _IID_IDirect3DRMWrap       00487828   directdraw.obj
 0002:00001838       _IID_IDirect3DRMMaterial   00487838   directdraw.obj
 0002:00001848       _IID_IDirect3DRMAnimation  00487848   directdraw.obj
 0002:00001858       _IID_IDirect3DRMAnimationSet 00487858   directdraw.obj
 0002:00001868       _IID_IDirect3DRMDeviceArray 00487868   directdraw.obj
 0002:00001878       _IID_IDirect3DRMViewportArray 00487878   directdraw.obj
 0002:00001888       _IID_IDirect3DRMFrameArray 00487888   directdraw.obj
 0002:00001898       _IID_IDirect3DRMVisualArray 00487898   directdraw.obj
 0002:000018a8       _IID_IDirect3DRMLightArray 004878a8   directdraw.obj
 0002:000018b8       _IID_IDirect3DRMPickedArray 004878b8   directdraw.obj
 0002:000018c8       _IID_IDirect3DRMFaceArray  004878c8   directdraw.obj
 0002:000018d8       _IID_IDirect3DRMUserVisual 004878d8   directdraw.obj
 0002:000018e8       _IID_IDirect3DRMShadow     004878e8   directdraw.obj
 0002:000018f8       _IID_IDirect3DRM           004878f8   directdraw.obj
 0002:00001908       _IID_IDirect3DRMWinDevice  00487908   directdraw.obj
 0002:00001980       ??_7TExitBuilder@@6B@      00487980   exit.obj
 0002:00001988       ??_7TExit@@6B@             00487988   exit.obj
 0002:00001a88       ??_7T3dSurface@@6B@        00487a88   3dsurface.obj
 0002:00001b00       ??_7TAmmo@@6B@             00487b00   ammo.obj
 0002:00001bb0       ??_7TAmmoBuilder@@6B@      00487bb0   ammo.obj
 0002:00001bb8       ??_7TDisplay@@6B@          00487bb8   display.obj
 0002:00001c10       ??_7TMoney@@6B@            00487c10   money.obj
 0002:00001cc0       ??_7TMoneyBuilder@@6B@     00487cc0   money.obj
 0002:00001cc8       ??_7TMultiImageryBuilder@@6B@ 00487cc8   multiimage.obj
 0002:00001cd0       ??_7TMultiImagery@@6B@     00487cd0   multiimage.obj
 0002:00001d98       ??_7TScreen@@6B@           00487d98   screen.obj
 0002:00001df0       ??_7TFoodBuilder@@6B@      00487df0   food.obj
 0002:00001df8       ??_7TFood@@6B@             00487df8   food.obj
 0002:00001ea8       ??_7THoleAnimator@@6B@     00487ea8   holeanim.obj
 0002:00001ef8       ??_7THoleInst@@6B@         00487ef8   holeinst.obj
 0002:00001fa8       ??_7THoleInstBuilder@@6B@  00487fa8   holeinst.obj
 0002:00001fd0       ??_7TScrollEditorPane@@6B@ 00487fd0   editor.obj
 0002:00002030       ??_7TTextPane@@6B@         00488030   editor.obj
 0002:00002090       ??_7TScriptPane@@6B@       00488090   editor.obj
 0002:000020f0       ??_7TConsolePane@@6B@      004880f0   editor.obj
 0002:00002150       ??_7TEditStatusPane@@6B@   00488150   editor.obj
 0002:000021a8       ??_7TEditToolsPane@@6B@    004881a8   editor.obj
 0002:00002200       ??_7TEditClassPane@@6B@    00488200   editor.obj
 0002:00002258       ??_7TObjectAnimator@@6B@   00488258   imagery.obj
 0002:00002264       ??_7TImageryBuilder@@6B@   00488264   imagery.obj
 0002:00002268       ??_7TObjectImagery@@6B@    00488268   imagery.obj
 0002:00002330       ??_7TObjectBuilder@@6B@    00488330   object.obj
 0002:00002338       ??_7TObjectClass@@6B@      00488338   object.obj
 0002:00002348       ??_7TTalismanBuilder@@6B@  00488348   talisman.obj
 0002:00002350       ??_7TTalisman@@6B@         00488350   talisman.obj
 0002:000023fc       ??_C@_08PHBD@fclose?4c?$AA@ 004883fc   libcmtd:fclose.obj
 0002:00002408       ??_C@_0P@FHEA@stream?5?$CB?$DN?5NULL?$AA@ 00488408   libcmtd:fclose.obj
 0002:00002418       ??_C@_0M@KJPK@str?5?$CB?$DN?5NULL?$AA@ 00488418   libcmtd:fclose.obj
 0002:00002424       ??_C@_0BC@IPFL@?$CKmode?5?$CB?$DN?5_T?$CI?8?20?8?$CJ?$AA@ 00488424   libcmtd:fopen.obj
 0002:00002438       ??_C@_0N@BKPP@mode?5?$CB?$DN?5NULL?$AA@ 00488438   libcmtd:fopen.obj
 0002:00002448       ??_C@_0BC@GOED@?$CKfile?5?$CB?$DN?5_T?$CI?8?20?8?$CJ?$AA@ 00488448   libcmtd:fopen.obj
 0002:0000245c       ??_C@_07OMGG@fopen?4c?$AA@ 0048845c   libcmtd:fopen.obj
 0002:00002464       ??_C@_0N@MCKG@file?5?$CB?$DN?5NULL?$AA@ 00488464   libcmtd:fopen.obj
 0002:00002474       ??_C@_0P@LNLA@format?5?$CB?$DN?5NULL?$AA@ 00488474   libcmtd:fprintf.obj
 0002:00002484       ??_C@_09DLOM@fprintf?4c?$AA@ 00488484   libcmtd:fprintf.obj
 0002:00002490       ??_C@_07JJAI@fgetc?4c?$AA@ 00488490   libcmtd:fgetc.obj
 0002:00002498       ??_C@_07HFEM@fseek?4c?$AA@ 00488498   libcmtd:fseek.obj
 0002:000024a0       ??_C@_07CMIP@ftell?4c?$AA@ 004884a0   libcmtd:ftell.obj
 0002:000024a8       ??_C@_06DPMO@Client?$AA@   004884a8   libcmtd:dbgheap.obj
 0002:000024b0       ??_C@_06BAFM@Ignore?$AA@   004884b0   libcmtd:dbgheap.obj
 0002:000024b8       ??_C@_03DICE@CRT?$AA@      004884b8   libcmtd:dbgheap.obj
 0002:000024bc       ??_C@_06BILL@Normal?$AA@   004884bc   libcmtd:dbgheap.obj
 0002:000024c4       ??_C@_04NEN@Free?$AA@      004884c4   libcmtd:dbgheap.obj
 0002:000024cc       ??_C@_0DC@CGID@Error?3?5memory?5allocation?3?5bad?5me@ 004884cc   libcmtd:dbgheap.obj
 0002:00002500       ??_C@_0CE@FMIA@Invalid?5allocation?5size?3?5?$CFu?5byte@ 00488500   libcmtd:dbgheap.obj
 0002:00002524       ??_C@_02DILL@?$CFs?$AA@    00488524   libcmtd:dbgheap.obj
 0002:00002528       ??_C@_0CB@CPBI@Client?5hook?5allocation?5failure?4?6@ 00488528   libcmtd:dbgheap.obj
 0002:0000254c       ??_C@_0DF@DKHF@Client?5hook?5allocation?5failure?5a@ 0048854c   libcmtd:dbgheap.obj
 0002:00002584       ??_C@_09IMJC@dbgheap?4c?$AA@ 00488584   libcmtd:dbgheap.obj
 0002:00002590       ??_C@_0BC@EPKL@_CrtCheckMemory?$CI?$CJ?$AA@ 00488590   libcmtd:dbgheap.obj
 0002:000025a4       ??_C@_0BK@JDHA@_pFirstBlock?5?$DN?$DN?5pOldBlock?$AA@ 004885a4   libcmtd:dbgheap.obj
 0002:000025c0       ??_C@_0BJ@NMEF@_pLastBlock?5?$DN?$DN?5pOldBlock?$AA@ 004885c0   libcmtd:dbgheap.obj
 0002:000025dc       ??_C@_0DC@BOCN@fRealloc?5?$HM?$HM?5?$CI?$CBfRealloc?5?$CG?$CG?5pNewBl@ 004885dc   libcmtd:dbgheap.obj
 0002:00002610       ??_C@_0DK@DKOM@_BLOCK_TYPE?$CIpOldBlock?9?$DOnBlockUse@ 00488610   libcmtd:dbgheap.obj
 0002:0000264c       ??_C@_0EF@EDKM@pOldBlock?9?$DOnLine?5?$DN?$DN?5IGNORE_LINE?5@ 0048864c   libcmtd:dbgheap.obj
 0002:00002694       ??_C@_0CC@GPMO@_CrtIsValidHeapPointer?$CIpUserData@ 00488694   libcmtd:dbgheap.obj
 0002:000026b8       ??_C@_0CN@FHGE@Allocation?5too?5large?5or?5negative@ 004886b8   libcmtd:dbgheap.obj
 0002:000026e8       ??_C@_0CE@EAMN@Client?5hook?5re?9allocation?5failur@ 004886e8   libcmtd:dbgheap.obj
 0002:0000270c       ??_C@_0DI@KKMM@Client?5hook?5re?9allocation?5failur@ 0048870c   libcmtd:dbgheap.obj
 0002:00002744       ??_C@_0BG@JCEC@_pFirstBlock?5?$DN?$DN?5pHead?$AA@ 00488744   libcmtd:dbgheap.obj
 0002:0000275c       ??_C@_0BF@NLNN@_pLastBlock?5?$DN?$DN?5pHead?$AA@ 0048875c   libcmtd:dbgheap.obj
 0002:00002774       ??_C@_0BO@PLHH@pHead?9?$DOnBlockUse?5?$DN?$DN?5nBlockUse?$AA@ 00488774   libcmtd:dbgheap.obj
 0002:00002794       ??_C@_0DN@KKIO@pHead?9?$DOnLine?5?$DN?$DN?5IGNORE_LINE?5?$CG?$CG?5p@ 00488794   libcmtd:dbgheap.obj
 0002:000027d4       ??_C@_0CK@OJNB@DAMAGE?3?5after?5?$CFhs?5block?5?$CI?$CD?$CFd?$CJ?5at@ 004887d4   libcmtd:dbgheap.obj
 0002:00002800       ??_C@_0CL@IJIL@DAMAGE?3?5before?5?$CFhs?5block?5?$CI?$CD?$CFd?$CJ?5a@ 00488800   libcmtd:dbgheap.obj
 0002:0000282c       ??_C@_0CH@PHOC@_BLOCK_TYPE_IS_VALID?$CIpHead?9?$DOnBlo@ 0048882c   libcmtd:dbgheap.obj
 0002:00002854       ??_C@_0BL@MBNA@Client?5hook?5free?5failure?4?6?$AA@ 00488854   libcmtd:dbgheap.obj
 0002:00002870       ??_C@_0DK@EKKL@memory?5check?5error?5at?50x?$CF08X?5?$DN?50@ 00488870   libcmtd:dbgheap.obj
 0002:000028ac       ??_C@_0CJ@GCII@?$CFhs?5located?5at?50x?$CF08X?5is?5?$CFu?5byte@ 004888ac   libcmtd:dbgheap.obj
 0002:000028d8       ??_C@_0CA@EJPI@?$CFhs?5allocated?5at?5file?5?$CFhs?$CI?$CFd?$CJ?4?6?$AA@ 004888d8   libcmtd:dbgheap.obj
 0002:000028f8       ??_C@_0CJ@LHHG@DAMAGE?3?5on?5top?5of?5Free?5block?5at?5@ 004888f8   libcmtd:dbgheap.obj
 0002:00002924       ??_C@_07GJHM@DAMAGED?$AA@  00488924   libcmtd:dbgheap.obj
 0002:0000292c       ??_C@_0CL@ODIE@_heapchk?5fails?5with?5unknown?5retu@ 0048892c   libcmtd:dbgheap.obj
 0002:00002958       ??_C@_0CC@EHNC@_heapchk?5fails?5with?5_HEAPBADPTR?4@ 00488958   libcmtd:dbgheap.obj
 0002:0000297c       ??_C@_0CC@JNDP@_heapchk?5fails?5with?5_HEAPBADEND?4@ 0048897c   libcmtd:dbgheap.obj
 0002:000029a0       ??_C@_0CD@DNMG@_heapchk?5fails?5with?5_HEAPBADNODE@ 004889a0   libcmtd:dbgheap.obj
 0002:000029c4       ??_C@_0CE@JMCB@_heapchk?5fails?5with?5_HEAPBADBEGI@ 004889c4   libcmtd:dbgheap.obj
 0002:000029e8       ??_C@_0CD@MEMI@Bad?5memory?5block?5found?5at?50x?$CF08X@ 004889e8   libcmtd:dbgheap.obj
 0002:00002a0c       ??_C@_0CI@GMAO@_CrtMemCheckPoint?3?5NULL?5state?5po@ 00488a0c   libcmtd:dbgheap.obj
 0002:00002a34       ??_C@_0CI@MNAE@_CrtMemDifference?3?5NULL?5state?5po@ 00488a34   libcmtd:dbgheap.obj
 0002:00002a5c       ??_C@_0BH@PKIJ@Object?5dump?5complete?4?6?$AA@ 00488a5c   libcmtd:dbgheap.obj
 0002:00002a74       ??_C@_0DB@DBPF@crt?5block?5at?50x?$CF08X?0?5subtype?5?$CFx?0@ 00488a74   libcmtd:dbgheap.obj
 0002:00002aa8       ??_C@_0CI@JLM@normal?5block?5at?50x?$CF08X?0?5?$CFu?5bytes@ 00488aa8   libcmtd:dbgheap.obj
 0002:00002ad0       ??_C@_0DE@PFEA@client?5block?5at?50x?$CF08X?0?5subtype?5@ 00488ad0   libcmtd:dbgheap.obj
 0002:00002b04       ??_C@_06MBCE@?$HL?$CFld?$HN?5?$AA@ 00488b04   libcmtd:dbgheap.obj
 0002:00002b0c       ??_C@_0L@BLDJ@?$CFhs?$CI?$CFd?$CJ?5?3?5?$AA@ 00488b0c   libcmtd:dbgheap.obj
 0002:00002b18       ??_C@_0BE@FEMA@?$CDFile?5Error?$CD?$CI?$CFd?$CJ?5?3?5?$AA@ 00488b18   libcmtd:dbgheap.obj
 0002:00002b2c       ??_C@_0BE@FPPM@Dumping?5objects?5?9?$DO?6?$AA@ 00488b2c   libcmtd:dbgheap.obj
 0002:00002b40       ??_C@_0BA@POLM@?5Data?3?5?$DM?$CFs?$DO?5?$CFs?6?$AA@ 00488b40   libcmtd:dbgheap.obj
 0002:00002b50       ??_C@_05JLAO@?$CF?42X?5?$AA@ 00488b50   libcmtd:dbgheap.obj
 0002:00002b58       ??_C@_0BI@KONA@Detected?5memory?5leaks?$CB?6?$AA@ 00488b58   libcmtd:dbgheap.obj
 0002:00002b70       ??_C@_0BP@LCCN@Total?5allocations?3?5?$CFld?5bytes?4?6?$AA@ 00488b70   libcmtd:dbgheap.obj
 0002:00002b90       ??_C@_0CB@COID@Largest?5number?5used?3?5?$CFld?5bytes?4?6@ 00488b90   libcmtd:dbgheap.obj
 0002:00002bb4       ??_C@_0BO@MEJD@?$CFld?5bytes?5in?5?$CFld?5?$CFhs?5Blocks?4?6?$AA@ 00488bb4   libcmtd:dbgheap.obj
 0002:00002bd4       ??_C@_07CJDP@fputc?4c?$AA@ 00488bd4   libcmtd:fputc.obj
 0002:00002bdc       ??_C@_09NEAG@sprintf?4c?$AA@ 00488bdc   libcmtd:sprintf.obj
 0002:00002be8       ??_C@_0P@OOIN@string?5?$CB?$DN?5NULL?$AA@ 00488be8   libcmtd:sprintf.obj
 0002:00002bf8       ??_C@_08CEA@onexit?4c?$AA@ 00488bf8   libcmtd:onexit.obj
 0002:00002c04       ??_C@_07IFF@fputs?4c?$AA@  00488c04   libcmtd:fputs.obj
 0002:00002c0c       ??_C@_08KGLM@rewind?4c?$AA@ 00488c0c   libcmtd:rewind.obj
 0002:00002c18       ??_C@_08FNDD@strlwr?4c?$AA@ 00488c18   libcmtd:strlwr.obj
 0002:00002c24       ??_C@_07LIGC@fgets?4c?$AA@ 00488c24   libcmtd:fgets.obj
 0002:00002c2c       ??_C@_08GEIE@thread?4c?$AA@ 00488c2c   libcmtd:thread.obj
 0002:00002c54       ??_C@_07PDLA@mlock?4c?$AA@ 00488c54   libcmtd:mlock.obj
 0002:00002c5c       ??_C@_0BB@BLL@Assertion?5Failed?$AA@ 00488c5c   libcmtd:dbgrpt.obj
 0002:00002c70       ??_C@_05CKBG@Error?$AA@    00488c70   libcmtd:dbgrpt.obj
 0002:00002c78       ??_C@_07JCGI@Warning?$AA@  00488c78   libcmtd:dbgrpt.obj
 0002:00002c80       ??_C@_0M@ODEP@?$CFs?$CI?$CFd?$CJ?5?3?5?$CFs?$AA@ 00488c80   libcmtd:dbgrpt.obj
 0002:00002c8c       ??_C@_01BJG@?6?$AA@        00488c8c   libcmtd:dbgrpt.obj
 0002:00002c90       ??_C@_01FEHD@?$AN?$AA@     00488c90   libcmtd:dbgrpt.obj
 0002:00002c94       ??_C@_0BC@OIMC@Assertion?5failed?$CB?$AA@ 00488c94   libcmtd:dbgrpt.obj
 0002:00002ca8       ??_C@_0BD@BEAK@Assertion?5failed?3?5?$AA@ 00488ca8   libcmtd:dbgrpt.obj
 0002:00002cbc       ??_C@_0CL@LCCP@_CrtDbgReport?3?5String?5too?5long?5o@ 00488cbc   libcmtd:dbgrpt.obj
 0002:00002ce8       ??_C@_0DC@EMDK@Second?5Chance?5Assertion?5Failed?3?5@ 00488ce8   libcmtd:dbgrpt.obj
 0002:00002d1c       ??_C@_09NJAK@wsprintfA?$AA@ 00488d1c   libcmtd:dbgrpt.obj
 0002:00002d28       ??_C@_0L@HKL@user32?4dll?$AA@ 00488d28   libcmtd:dbgrpt.obj
 0002:00002d34       ??_C@_0CD@GCMD@Microsoft?5Visual?5C?$CL?$CL?5Debug?5Libra@ 00488d34   libcmtd:dbgrpt.obj
 0002:00002d58       ??_C@_0FD@EBDD@Debug?5?$CFs?$CB?6?6Program?3?5?$CFs?$CFs?$CFs?$CFs?$CFs?$CFs@ 00488d58   libcmtd:dbgrpt.obj
 0002:00002dac       ??_C@_09DCKN@?6Module?3?5?$AA@ 00488dac   libcmtd:dbgrpt.obj
 0002:00002db8       ??_C@_07HJII@?6File?3?5?$AA@ 00488db8   libcmtd:dbgrpt.obj
 0002:00002dc0       ??_C@_07LFGN@?6Line?3?5?$AA@ 00488dc0   libcmtd:dbgrpt.obj
 0002:00002dc8       ??_C@_02JJJH@?6?6?$AA@     00488dc8   libcmtd:dbgrpt.obj
 0002:00002dcc       ??_C@_0N@NOAB@Expression?3?5?$AA@ 00488dcc   libcmtd:dbgrpt.obj
 0002:00002ddc       ??_C@_00A@?$AA@            00488ddc   libcmtd:dbgrpt.obj
 0002:00002de0       ??_C@_0HD@BHFH@?6?6For?5information?5on?5how?5your?5pr@ 00488de0   libcmtd:dbgrpt.obj
 0002:00002e54       ??_C@_03NAME@?4?4?4?$AA@   00488e54   libcmtd:dbgrpt.obj
 0002:00002e58       ??_C@_0BH@NNCD@?$DMprogram?5name?5unknown?$DO?$AA@ 00488e58   libcmtd:dbgrpt.obj
 0002:00002e70       ??_C@_08GFHP@dbgrpt?4c?$AA@ 00488e70   libcmtd:dbgrpt.obj
 0002:00002e7c       ??_C@_0BG@FBEA@szUserMessage?5?$CB?$DN?5NULL?$AA@ 00488e7c   libcmtd:dbgrpt.obj
 0002:00002e94       ??_C@_0L@JIE@_freebuf?4c?$AA@ 00488e94   libcmtd:_freebuf.obj
 0002:00002ea0       ??_C@_07INLA@_open?4c?$AA@ 00488ea0   libcmtd:_open.obj
 0002:00002ea8       ??_C@_0BB@COCE@filename?5?$CB?$DN?5NULL?$AA@ 00488ea8   libcmtd:_open.obj
 0002:00002ebc       ??_C@_08HJEP@stream?4c?$AA@ 00488ebc   libcmtd:stream.obj
 0002:00002ec8       ??_C@_09JNND@_sftbuf?4c?$AA@ 00488ec8   libcmtd:_sftbuf.obj
 0002:00002ed4       ??_C@_0BH@EOPG@flag?5?$DN?$DN?50?5?$HM?$HM?5flag?5?$DN?$DN?51?$AA@ 00488ed4   libcmtd:_sftbuf.obj
 0002:00002eec       ??_C@_1O@POHA@?$AA?$CI?$AAn?$AAu?$AAl?$AAl?$AA?$CJ?$AA?$AA?$AA?$AA?$AA?$AH?$AA?$AA?$AA?$AA?$AA?$AA?$AA?$9A?$AE?$;I@ 00488eec   libcmtd:output.obj
 0002:00002efc       ??_C@_06ONKE@?$CInull?$CJ?$AA@ 00488efc   libcmtd:output.obj
 0002:00002f08       ___lookuptable             00488f08   libcmtd:output.obj
 0002:00002f64       ??_C@_08MIHI@output?4c?$AA@ 00488f64   libcmtd:output.obj
 0002:00002f70       ??_C@_0P@PIHB@ch?5?$CB?$DN?5_T?$CI?8?20?8?$CJ?$AA@ 00488f70   libcmtd:output.obj
 0002:00002f80       ??_C@_09DNOI@_filbuf?4c?$AA@ 00488f80   libcmtd:_filbuf.obj
 0002:00002f8c       ??_C@_08KFDJ@ioinit?4c?$AA@ 00488f8c   libcmtd:ioinit.obj
 0002:00002fb0       ??_C@_0BK@JEGK@IsProcessorFeaturePresent?$AA@ 00488fb0   libcmtd:testfdiv.obj
 0002:00002fcc       ??_C@_08OBID@KERNEL32?$AA@ 00488fcc   libcmtd:testfdiv.obj
 0002:00002fe0       ??_C@_05OFLO@e?$CL000?$AA@ 00488fe0   libcmtd:cvt.obj
 0002:0000302c       ??_C@_0L@ENLJ@tidtable?4c?$AA@ 0048902c   libcmtd:tidtable.obj
 0002:00003070       ??_C@_0DP@IHIN@?$CI?$CCinconsistent?5IOB?5fields?$CC?0?5stre@ 00489070   libcmtd:_flsbuf.obj
 0002:000030b0       ??_C@_09LGEI@_flsbuf?4c?$AA@ 004890b0   libcmtd:_flsbuf.obj
 0002:000030bc       ??_C@_09LNLM@osfinfo?4c?$AA@ 004890bc   libcmtd:osfinfo.obj
 0002:000030c8       ??_C@_07PCLE@LC_TIME?$AA@  004890c8   libcmtd:setlocal.obj
 0002:000030d0       ??_C@_0L@NKG@LC_NUMERIC?$AA@ 004890d0   libcmtd:setlocal.obj
 0002:000030dc       ??_C@_0M@CBIH@LC_MONETARY?$AA@ 004890dc   libcmtd:setlocal.obj
 0002:000030e8       ??_C@_08LFGE@LC_CTYPE?$AA@ 004890e8   libcmtd:setlocal.obj
 0002:000030f4       ??_C@_0L@CFLC@LC_COLLATE?$AA@ 004890f4   libcmtd:setlocal.obj
 0002:00003100       ??_C@_06GCPK@LC_ALL?$AA@   00489100   libcmtd:setlocal.obj
 0002:00003108       ??_C@_01FAJB@?$DL?$AA@     00489108   libcmtd:setlocal.obj
 0002:0000310c       ??_C@_02BGDO@?$DN?$DL?$AA@ 0048910c   libcmtd:setlocal.obj
 0002:00003110       ??_C@_0L@MOEE@setlocal?4c?$AA@ 00489110   libcmtd:setlocal.obj
 0002:0000311c       ??_C@_01KPOD@?$DN?$AA@     0048911c   libcmtd:setlocal.obj
 0002:00003120       ??_C@_03DBOJ@_?4?0?$AA@    00489120   libcmtd:setlocal.obj
 0002:00003124       ??_C@_01PJCK@?4?$AA@       00489124   libcmtd:setlocal.obj
 0002:00003128       ??_C@_01NON@_?$AA@         00489128   libcmtd:setlocal.obj
 0002:0000312c       ??_C@_08GINJ@aw_map?4c?$AA@ 0048912c   libcmtd:aw_map.obj
 0002:00003138       ??_C@_01A@?$AA?$AA@        00489138   libcmtd:aw_map.obj
 0002:0000313c       ??_C@_13A@?$AA?$AA?$AA?$AA?$AA?$AH?$AA?$AA@ 0048913c   libcmtd:aw_map.obj
 0002:00003140       ??_C@_09IGKD@stdenvp?4c?$AA@ 00489140   libcmtd:stdenvp.obj
 0002:0000314c       ??_C@_09MPMN@stdargv?4c?$AA@ 0048914c   libcmtd:stdargv.obj
 0002:00003158       ??_C@_08FFKK@aw_env?4c?$AA@ 00489158   libcmtd:aw_env.obj
 0002:00003164       ??_C@_0P@GGKG@runtime?5error?5?$AA@ 00489164   libcmtd:crt0msg.obj
 0002:00003174       ??_C@_02PIMC@?$AN?6?$AA@   00489174   libcmtd:crt0msg.obj
 0002:00003178       ??_C@_0O@DELO@TLOSS?5error?$AN?6?$AA@ 00489178   libcmtd:crt0msg.obj
 0002:00003188       ??_C@_0N@OMLL@SING?5error?$AN?6?$AA@ 00489188   libcmtd:crt0msg.obj
 0002:00003198       ??_C@_0P@OJAK@DOMAIN?5error?$AN?6?$AA@ 00489198   libcmtd:crt0msg.obj
 0002:000031a8       ??_C@_0CF@EANP@R6028?$AN?6?9?5unable?5to?5initialize?5he@ 004891a8   libcmtd:crt0msg.obj
 0002:000031d0       ??_C@_0DF@ECGN@R6027?$AN?6?9?5not?5enough?5space?5for?5lo@ 004891d0   libcmtd:crt0msg.obj
 0002:00003208       ??_C@_0DF@FKAC@R6026?$AN?6?9?5not?5enough?5space?5for?5st@ 00489208   libcmtd:crt0msg.obj
 0002:00003240       ??_C@_0CG@DPMN@R6025?$AN?6?9?5pure?5virtual?5function?5c@ 00489240   libcmtd:crt0msg.obj
 0002:00003268       ??_C@_0DF@CKIP@R6024?$AN?6?9?5not?5enough?5space?5for?5_o@ 00489268   libcmtd:crt0msg.obj
 0002:000032a0       ??_C@_0CJ@GGOE@R6019?$AN?6?9?5unable?5to?5open?5console?5@ 004892a0   libcmtd:crt0msg.obj
 0002:000032cc       ??_C@_0CB@LBOB@R6018?$AN?6?9?5unexpected?5heap?5error?$AN?6@ 004892cc   libcmtd:crt0msg.obj
 0002:000032f0       ??_C@_0CN@FPEG@R6017?$AN?6?9?5unexpected?5multithread?5@ 004892f0   libcmtd:crt0msg.obj
 0002:00003320       ??_C@_0CM@OBIC@R6016?$AN?6?9?5not?5enough?5space?5for?5th@ 00489320   libcmtd:crt0msg.obj
 0002:0000334c       ??_C@_0CB@HPAL@?$AN?6abnormal?5program?5termination?$AN?6@ 0048934c   libcmtd:crt0msg.obj
 0002:00003370       ??_C@_0CM@JOOB@R6009?$AN?6?9?5not?5enough?5space?5for?5en@ 00489370   libcmtd:crt0msg.obj
 0002:0000339c       ??_C@_0CK@OIBL@R6008?$AN?6?9?5not?5enough?5space?5for?5ar@ 0048939c   libcmtd:crt0msg.obj
 0002:000033c8       ??_C@_0CF@LKPB@R6002?$AN?6?9?5floating?5point?5not?5load@ 004893c8   libcmtd:crt0msg.obj
 0002:000033f0       ??_C@_0CF@JPDF@Microsoft?5Visual?5C?$CL?$CL?5Runtime?5Lib@ 004893f0   libcmtd:crt0msg.obj
 0002:00003418       ??_C@_0BK@DEOK@Runtime?5Error?$CB?6?6Program?3?5?$AA@ 00489418   libcmtd:crt0msg.obj
 0002:00003434       ??_C@_07HPAH@_file?4c?$AA@ 00489434   libcmtd:_file.obj
 0002:0000343c       ??_C@_0L@HE@vsprintf?4c?$AA@ 0048943c   libcmtd:vsnprint.obj
 0002:00003448       ??_C@_08CNMA@winsig?4c?$AA@ 00489448   libcmtd:winsig.obj
 0002:00003454       ??_C@_0BD@NJFP@GetLastActivePopup?$AA@ 00489454   libcmtd:crtmbox.obj
 0002:00003468       ??_C@_0BA@GILI@GetActiveWindow?$AA@ 00489468   libcmtd:crtmbox.obj
 0002:00003478       ??_C@_0M@PKCK@MessageBoxA?$AA@ 00489478   libcmtd:crtmbox.obj
 0002:00003484       ??_C@_09EMDO@_getbuf?4c?$AA@ 00489484   libcmtd:_getbuf.obj
 0002:000034c0       ??_C@_08OKGP@aw_str?4c?$AA@ 004894c0   libcmtd:aw_str.obj
 0002:000034d0       ___dnames                  004894d0   libcmtd:timeset.obj
 0002:000034e8       ___mnames                  004894e8   libcmtd:timeset.obj
 0002:00003510       ??_C@_07DEKI@tzset?4c?$AA@ 00489510   libcmtd:tzset.obj
 0002:00003518       ??_C@_02JHIA@TZ?$AA@       00489518   libcmtd:tzset.obj
 0002:0000351c       ??_C@_0L@EEGJ@inittime?4c?$AA@ 0048951c   libcmtd:inittime.obj
 0002:00003528       ??_C@_09IMJJ@initnum?4c?$AA@ 00489528   libcmtd:initnum.obj
 0002:00003534       ??_C@_09KPNI@initmon?4c?$AA@ 00489534   libcmtd:initmon.obj
 0002:00003540       ??_C@_0L@COIL@initctyp?4c?$AA@ 00489540   libcmtd:initctyp.obj
 0002:0000354c       ??_C@_0O@GLHB@united?9states?$AA@ 0048954c   libcmtd:getqloc.obj
 0002:0000355c       ??_C@_0P@IIKK@united?9kingdom?$AA@ 0048955c   libcmtd:getqloc.obj
 0002:0000356c       ??_C@_0O@ILBP@united?5states?$AA@ 0048956c   libcmtd:getqloc.obj
 0002:0000357c       ??_C@_0P@KBEK@united?5kingdom?$AA@ 0048957c   libcmtd:getqloc.obj
 0002:0000358c       ??_C@_03IGKO@twn?$AA@      0048958c   libcmtd:getqloc.obj
 0002:00003590       ??_C@_06CMKP@turkey?$AA@   00489590   libcmtd:getqloc.obj
 0002:00003598       ??_C@_03PMGP@tur?$AA@      00489598   libcmtd:getqloc.obj
 0002:0000359c       ??_C@_06OBJC@taiwan?$AA@   0048959c   libcmtd:getqloc.obj
 0002:000035a4       ??_C@_0M@EKGN@switzerland?$AA@ 004895a4   libcmtd:getqloc.obj
 0002:000035b0       ??_C@_06PJFL@sweden?$AA@   004895b0   libcmtd:getqloc.obj
 0002:000035b8       ??_C@_03JDMO@swe?$AA@      004895b8   libcmtd:getqloc.obj
 0002:000035bc       ??_C@_03COKO@svk?$AA@      004895bc   libcmtd:getqloc.obj
 0002:000035c0       ??_C@_05FBKI@spain?$AA@    004895c0   libcmtd:getqloc.obj
 0002:000035c8       ??_C@_0M@BDFM@south?9korea?$AA@ 004895c8   libcmtd:getqloc.obj
 0002:000035d4       ??_C@_0M@HNHN@south?5korea?$AA@ 004895d4   libcmtd:getqloc.obj
 0002:000035e0       ??_C@_03FANM@sgp?$AA@      004895e0   libcmtd:getqloc.obj
 0002:000035e4       ??_C@_09EOGO@singapore?$AA@ 004895e4   libcmtd:getqloc.obj
 0002:000035f0       ??_C@_06NHNE@russia?$AA@   004895f0   libcmtd:getqloc.obj
 0002:000035f8       ??_C@_03CKBC@prt?$AA@      004895f8   libcmtd:getqloc.obj
 0002:000035fc       ??_C@_08EJOH@pr?9china?$AA@ 004895fc   libcmtd:getqloc.obj
 0002:00003608       ??_C@_08CHMG@pr?5china?$AA@ 00489608   libcmtd:getqloc.obj
 0002:00003614       ??_C@_08GGAN@portugal?$AA@ 00489614   libcmtd:getqloc.obj
 0002:00003620       ??_C@_06NOHH@poland?$AA@   00489620   libcmtd:getqloc.obj
 0002:00003628       ??_C@_03EECH@pol?$AA@      00489628   libcmtd:getqloc.obj
 0002:0000362c       ??_C@_03DPCG@nzl?$AA@      0048962c   libcmtd:getqloc.obj
 0002:00003630       ??_C@_02OCJK@nz?$AA@       00489630   libcmtd:getqloc.obj
 0002:00003634       ??_C@_06BAPG@norway?$AA@   00489634   libcmtd:getqloc.obj
 0002:0000363c       ??_C@_0M@MMKA@new?9zealand?$AA@ 0048963c   libcmtd:getqloc.obj
 0002:00003648       ??_C@_0M@OFEA@new?5zealand?$AA@ 00489648   libcmtd:getqloc.obj
 0002:00003654       ??_C@_0M@POGE@netherlands?$AA@ 00489654   libcmtd:getqloc.obj
 0002:00003660       ??_C@_06KJLN@mexico?$AA@   00489660   libcmtd:getqloc.obj
 0002:00003668       ??_C@_03HEJJ@mex?$AA@      00489668   libcmtd:getqloc.obj
 0002:0000366c       ??_C@_05OOCK@korea?$AA@    0048966c   libcmtd:getqloc.obj
 0002:00003674       ??_C@_05EEKJ@japan?$AA@    00489674   libcmtd:getqloc.obj
 0002:0000367c       ??_C@_05DHEA@italy?$AA@    0048967c   libcmtd:getqloc.obj
 0002:00003684       ??_C@_03DEBD@irl?$AA@      00489684   libcmtd:getqloc.obj
 0002:00003688       ??_C@_07JJLD@ireland?$AA@  00489688   libcmtd:getqloc.obj
 0002:00003690       ??_C@_07FGBB@iceland?$AA@  00489690   libcmtd:getqloc.obj
 0002:00003698       ??_C@_07IDDB@hungary?$AA@  00489698   libcmtd:getqloc.obj
 0002:000036a0       ??_C@_09MGEH@hong?9kong?$AA@ 004896a0   libcmtd:getqloc.obj
 0002:000036ac       ??_C@_09OHNN@hong?5kong?$AA@ 004896ac   libcmtd:getqloc.obj
 0002:000036b8       ??_C@_07CCAK@holland?$AA@  004896b8   libcmtd:getqloc.obj
 0002:000036c0       ??_C@_03EFD@hkg?$AA@       004896c0   libcmtd:getqloc.obj
 0002:000036c4       ??_C@_06FLIB@greece?$AA@   004896c4   libcmtd:getqloc.obj
 0002:000036cc       ??_C@_0O@MEPL@great?5britain?$AA@ 004896cc   libcmtd:getqloc.obj
 0002:000036dc       ??_C@_03EJIM@grc?$AA@      004896dc   libcmtd:getqloc.obj
 0002:000036e0       ??_C@_07CPP@germany?$AA@   004896e0   libcmtd:getqloc.obj
 0002:000036e8       ??_C@_03CAMC@gbr?$AA@      004896e8   libcmtd:getqloc.obj
 0002:000036ec       ??_C@_06DNOH@france?$AA@   004896ec   libcmtd:getqloc.obj
 0002:000036f4       ??_C@_07IMFA@finland?$AA@  004896f4   libcmtd:getqloc.obj
 0002:000036fc       ??_C@_07LGIB@england?$AA@  004896fc   libcmtd:getqloc.obj
 0002:00003704       ??_C@_03GOFI@dnk?$AA@      00489704   libcmtd:getqloc.obj
 0002:00003708       ??_C@_07ILKC@denmark?$AA@  00489708   libcmtd:getqloc.obj
 0002:00003710       ??_C@_03ELPA@cze?$AA@      00489710   libcmtd:getqloc.obj
 0002:00003714       ??_C@_03KHAN@chn?$AA@      00489714   libcmtd:getqloc.obj
 0002:00003718       ??_C@_05NMPB@china?$AA@    00489718   libcmtd:getqloc.obj
 0002:00003720       ??_C@_03MAM@che?$AA@       00489720   libcmtd:getqloc.obj
 0002:00003724       ??_C@_06CJAO@canada?$AA@   00489724   libcmtd:getqloc.obj
 0002:0000372c       ??_C@_03EPD@can?$AA@       0048972c   libcmtd:getqloc.obj
 0002:00003730       ??_C@_07GN@britain?$AA@    00489730   libcmtd:getqloc.obj
 0002:00003738       ??_C@_06GEHJ@brazil?$AA@   00489738   libcmtd:getqloc.obj
 0002:00003740       ??_C@_03GOO@bra?$AA@       00489740   libcmtd:getqloc.obj
 0002:00003744       ??_C@_07ECDD@belgium?$AA@  00489744   libcmtd:getqloc.obj
 0002:0000374c       ??_C@_03FJGB@bel?$AA@      0048974c   libcmtd:getqloc.obj
 0002:00003750       ??_C@_03DIDL@aut?$AA@      00489750   libcmtd:getqloc.obj
 0002:00003754       ??_C@_07OIK@austria?$AA@   00489754   libcmtd:getqloc.obj
 0002:0000375c       ??_C@_09MKKB@australia?$AA@ 0048975c   libcmtd:getqloc.obj
 0002:00003768       ??_C@_03GNNO@aus?$AA@      00489768   libcmtd:getqloc.obj
 0002:0000376c       ??_C@_07DLAK@america?$AA@  0048976c   libcmtd:getqloc.obj
 0002:00003774       ??_C@_03IPEP@usa?$AA@      00489774   libcmtd:getqloc.obj
 0002:00003778       ??_C@_02PILH@us?$AA@       00489778   libcmtd:getqloc.obj
 0002:0000377c       ??_C@_02FHP@uk?$AA@        0048977c   libcmtd:getqloc.obj
 0002:00003780       ??_C@_07BNFK@turkish?$AA@  00489780   libcmtd:getqloc.obj
 0002:00003788       ??_C@_03MKGF@trk?$AA@      00489788   libcmtd:getqloc.obj
 0002:0000378c       ??_C@_05DEAI@swiss?$AA@    0048978c   libcmtd:getqloc.obj
 0002:00003794       ??_C@_07ENHD@swedish?$AA@  00489794   libcmtd:getqloc.obj
 0002:0000379c       ??_C@_03IFGE@sve?$AA@      0048979c   libcmtd:getqloc.obj
 0002:000037a0       ??_C@_0P@NJBN@spanish?9modern?$AA@ 004897a0   libcmtd:getqloc.obj
 0002:000037b0       ??_C@_0BA@NHDN@spanish?9mexican?$AA@ 004897b0   libcmtd:getqloc.obj
 0002:000037c0       ??_C@_07EFLC@spanish?$AA@  004897c0   libcmtd:getqloc.obj
 0002:000037c8       ??_C@_06KFFJ@slovak?$AA@   004897c8   libcmtd:getqloc.obj
 0002:000037d0       ??_C@_03EBAN@sky?$AA@      004897d0   libcmtd:getqloc.obj
 0002:000037d4       ??_C@_07JNDN@russian?$AA@  004897d4   libcmtd:getqloc.obj
 0002:000037dc       ??_C@_03LKIP@rus?$AA@      004897dc   libcmtd:getqloc.obj
 0002:000037e0       ??_C@_03LCE@ptg?$AA@       004897e0   libcmtd:getqloc.obj
 0002:000037e4       ??_C@_03LOP@ptb?$AA@       004897e4   libcmtd:getqloc.obj
 0002:000037e8       ??_C@_0BF@KMMM@portuguese?9brazilian?$AA@ 004897e8   libcmtd:getqloc.obj
 0002:00003800       ??_C@_0L@HNPF@portuguese?$AA@ 00489800   libcmtd:getqloc.obj
 0002:0000380c       ??_C@_06CDNL@polish?$AA@   0048980c   libcmtd:getqloc.obj
 0002:00003814       ??_C@_03CKDN@plk?$AA@      00489814   libcmtd:getqloc.obj
 0002:00003818       ??_C@_0BC@BAAE@norwegian?9nynorsk?$AA@ 00489818   libcmtd:getqloc.obj
 0002:0000382c       ??_C@_0BB@PBHK@norwegian?9bokmal?$AA@ 0048982c   libcmtd:getqloc.obj
 0002:00003840       ??_C@_09EHKL@norwegian?$AA@ 00489840   libcmtd:getqloc.obj
 0002:0000384c       ??_C@_03BLDF@nor?$AA@      0048984c   libcmtd:getqloc.obj
 0002:00003850       ??_C@_03EMKB@non?$AA@      00489850   libcmtd:getqloc.obj
 0002:00003854       ??_C@_03HGMI@nld?$AA@      00489854   libcmtd:getqloc.obj
 0002:00003858       ??_C@_03IJLK@nlb?$AA@      00489858   libcmtd:getqloc.obj
 0002:0000385c       ??_C@_06KKAE@korean?$AA@   0048985c   libcmtd:getqloc.obj
 0002:00003864       ??_C@_03BHJ@kor?$AA@       00489864   libcmtd:getqloc.obj
 0002:00003868       ??_C@_03LKFD@jpn?$AA@      00489868   libcmtd:getqloc.obj
 0002:0000386c       ??_C@_08KCAB@japanese?$AA@ 0048986c   libcmtd:getqloc.obj
 0002:00003878       ??_C@_03OLMB@its?$AA@      00489878   libcmtd:getqloc.obj
 0002:0000387c       ??_C@_0O@BEAN@italian?9swiss?$AA@ 0048987c   libcmtd:getqloc.obj
 0002:0000388c       ??_C@_07CBME@italian?$AA@  0048988c   libcmtd:getqloc.obj
 0002:00003894       ??_C@_03BHJP@ita?$AA@      00489894   libcmtd:getqloc.obj
 0002:00003898       ??_C@_03CCLJ@isl?$AA@      00489898   libcmtd:getqloc.obj
 0002:0000389c       ??_C@_0O@OIFK@irish?9english?$AA@ 0048989c   libcmtd:getqloc.obj
 0002:000038ac       ??_C@_09OEEF@icelandic?$AA@ 004898ac   libcmtd:getqloc.obj
 0002:000038b8       ??_C@_09IBNG@hungarian?$AA@ 004898b8   libcmtd:getqloc.obj
 0002:000038c4       ??_C@_03FCHO@hun?$AA@      004898c4   libcmtd:getqloc.obj
 0002:000038c8       ??_C@_05DOKD@greek?$AA@    004898c8   libcmtd:getqloc.obj
 0002:000038d0       ??_C@_0N@NBPL@german?9swiss?$AA@ 004898d0   libcmtd:getqloc.obj
 0002:000038e0       ??_C@_0BA@MKDC@german?9austrian?$AA@ 004898e0   libcmtd:getqloc.obj
 0002:000038f0       ??_C@_06IAFA@german?$AA@   004898f0   libcmtd:getqloc.obj
 0002:000038f8       ??_C@_03LCOK@frs?$AA@      004898f8   libcmtd:getqloc.obj
 0002:000038fc       ??_C@_0N@ODNB@french?9swiss?$AA@ 004898fc   libcmtd:getqloc.obj
 0002:0000390c       ??_C@_0BA@NABK@french?9canadian?$AA@ 0048990c   libcmtd:getqloc.obj
 0002:0000391c       ??_C@_0P@CJNO@french?9belgian?$AA@ 0048991c   libcmtd:getqloc.obj
 0002:0000392c       ??_C@_06PMNM@french?$AA@   0048992c   libcmtd:getqloc.obj
 0002:00003934       ??_C@_03BLJK@frc?$AA@      00489934   libcmtd:getqloc.obj
 0002:00003938       ??_C@_03LBAN@frb?$AA@      00489938   libcmtd:getqloc.obj
 0002:0000393c       ??_C@_03EOLE@fra?$AA@      0048993c   libcmtd:getqloc.obj
 0002:00003940       ??_C@_07DLFI@finnish?$AA@  00489940   libcmtd:getqloc.obj
 0002:00003948       ??_C@_03KLOL@fin?$AA@      00489948   libcmtd:getqloc.obj
 0002:0000394c       ??_C@_03KNMC@esp?$AA@      0048994c   libcmtd:getqloc.obj
 0002:00003950       ??_C@_03KPHI@esn?$AA@      00489950   libcmtd:getqloc.obj
 0002:00003954       ??_C@_03FAMB@esm?$AA@      00489954   libcmtd:getqloc.obj
 0002:00003958       ??_C@_03DPKJ@enz?$AA@      00489958   libcmtd:getqloc.obj
 0002:0000395c       ??_C@_03DOPE@enu?$AA@      0048995c   libcmtd:getqloc.obj
 0002:00003960       ??_C@_03GJGA@eni?$AA@      00489960   libcmtd:getqloc.obj
 0002:00003964       ??_C@_0M@LJOL@english?9usa?$AA@ 00489964   libcmtd:getqloc.obj
 0002:00003970       ??_C@_0L@FMNC@english?9us?$AA@ 00489970   libcmtd:getqloc.obj
 0002:0000397c       ??_C@_0L@KBBK@english?9uk?$AA@ 0048997c   libcmtd:getqloc.obj
 0002:00003988       ??_C@_0L@EGPP@english?9nz?$AA@ 00489988   libcmtd:getqloc.obj
 0002:00003994       ??_C@_0M@PMJI@english?9ire?$AA@ 00489994   libcmtd:getqloc.obj
 0002:000039a0       ??_C@_0M@DCFH@english?9can?$AA@ 004899a0   libcmtd:getqloc.obj
 0002:000039ac       ??_C@_0M@FLHK@english?9aus?$AA@ 004899ac   libcmtd:getqloc.obj
 0002:000039b8       ??_C@_0BB@HNCK@english?9american?$AA@ 004899b8   libcmtd:getqloc.obj
 0002:000039cc       ??_C@_07ELCN@english?$AA@  004899cc   libcmtd:getqloc.obj
 0002:000039d4       ??_C@_03MCKK@eng?$AA@      004899d4   libcmtd:getqloc.obj
 0002:000039d8       ??_C@_03GIPG@enc?$AA@      004899d8   libcmtd:getqloc.obj
 0002:000039dc       ??_C@_03DNNI@ena?$AA@      004899dc   libcmtd:getqloc.obj
 0002:000039e0       ??_C@_03EEPO@ell?$AA@      004899e0   libcmtd:getqloc.obj
 0002:000039e4       ??_C@_0O@PAMI@dutch?9belgian?$AA@ 004899e4   libcmtd:getqloc.obj
 0002:000039f4       ??_C@_05NPEI@dutch?$AA@    004899f4   libcmtd:getqloc.obj
 0002:000039fc       ??_C@_03OCEJ@deu?$AA@      004899fc   libcmtd:getqloc.obj
 0002:00003a00       ??_C@_03BNDL@des?$AA@      00489a00   libcmtd:getqloc.obj
 0002:00003a04       ??_C@_03OBGF@dea?$AA@      00489a04   libcmtd:getqloc.obj
 0002:00003a08       ??_C@_06KEAI@danish?$AA@   00489a08   libcmtd:getqloc.obj
 0002:00003a10       ??_C@_03LKJC@dan?$AA@      00489a10   libcmtd:getqloc.obj
 0002:00003a14       ??_C@_05BMOA@czech?$AA@    00489a14   libcmtd:getqloc.obj
 0002:00003a1c       ??_C@_03LPJK@csy?$AA@      00489a1c   libcmtd:getqloc.obj
 0002:00003a20       ??_C@_03POL@cht?$AA@       00489a20   libcmtd:getqloc.obj
 0002:00003a24       ??_C@_03FKAO@chs?$AA@      00489a24   libcmtd:getqloc.obj
 0002:00003a28       ??_C@_0BE@FPEJ@chinese?9traditional?$AA@ 00489a28   libcmtd:getqloc.obj
 0002:00003a3c       ??_C@_0BC@CHFL@chinese?9singapore?$AA@ 00489a3c   libcmtd:getqloc.obj
 0002:00003a50       ??_C@_0BD@DCMH@chinese?9simplified?$AA@ 00489a50   libcmtd:getqloc.obj
 0002:00003a64       ??_C@_0BB@JMOE@chinese?9hongkong?$AA@ 00489a64   libcmtd:getqloc.obj
 0002:00003a78       ??_C@_07NGFN@chinese?$AA@  00489a78   libcmtd:getqloc.obj
 0002:00003a80       ??_C@_03PCOI@chi?$AA@      00489a80   libcmtd:getqloc.obj
 0002:00003a84       ??_C@_03FIHP@chh?$AA@      00489a84   libcmtd:getqloc.obj
 0002:00003a88       ??_C@_08HFLO@canadian?$AA@ 00489a88   libcmtd:getqloc.obj
 0002:00003a94       ??_C@_07INIJ@belgian?$AA@  00489a94   libcmtd:getqloc.obj
 0002:00003a9c       ??_C@_0L@LCCA@australian?$AA@ 00489a9c   libcmtd:getqloc.obj
 0002:00003aa8       ??_C@_0BB@BJIO@american?9english?$AA@ 00489aa8   libcmtd:getqloc.obj
 0002:00003abc       ??_C@_0BB@DAGO@american?5english?$AA@ 00489abc   libcmtd:getqloc.obj
 0002:00003ad0       ??_C@_08HENB@american?$AA@ 00489ad0   libcmtd:getqloc.obj
 0002:00003adc       ??_C@_03DGJE@OCP?$AA@      00489adc   libcmtd:getqloc.obj
 0002:00003ae0       ??_C@_03EKFG@ACP?$AA@      00489ae0   libcmtd:getqloc.obj
 0002:00003ae4       ??_C@_08EIOK@chsize?4c?$AA@ 00489ae4   libcmtd:chsize.obj
 0002:00003af0       ??_C@_09NPGF@size?5?$DO?$DN?50?$AA@ 00489af0   libcmtd:chsize.obj
 0002:00003afc       ??_C@_06PAPI@1?$CDQNAN?$AA@ 00489afc   libcmtd:x10fout.obj
 0002:00003b04       ??_C@_05BGNL@1?$CDINF?$AA@ 00489b04   libcmtd:x10fout.obj
 0002:00003b0c       ??_C@_05EDPF@1?$CDIND?$AA@ 00489b0c   libcmtd:x10fout.obj
 0002:00003b14       ??_C@_06LKFM@1?$CDSNAN?$AA@ 00489b14   libcmtd:x10fout.obj
 0002:00003b1c       ??_C@_03GAFO@_yn?$AA@      00489b1c   libcmtd:fpexcept.obj
 0002:00003b20       ??_C@_03GNLD@_y1?$AA@      00489b20   libcmtd:fpexcept.obj
 0002:00003b24       ??_C@_03MHCE@_y0?$AA@      00489b24   libcmtd:fpexcept.obj
 0002:00003b28       ??_C@_05PAK@frexp?$AA@     00489b28   libcmtd:fpexcept.obj
 0002:00003b30       ??_C@_04JKCH@fmod?$AA@     00489b30   libcmtd:fpexcept.obj
 0002:00003b38       ??_C@_06GGHF@_hypot?$AA@   00489b38   libcmtd:fpexcept.obj
 0002:00003b40       ??_C@_05JNMC@_cabs?$AA@    00489b40   libcmtd:fpexcept.obj
 0002:00003b48       ??_C@_05MEKH@ldexp?$AA@    00489b48   libcmtd:fpexcept.obj
 0002:00003b50       ??_C@_04KAOJ@modf?$AA@     00489b50   libcmtd:fpexcept.obj
 0002:00003b58       ??_C@_04EHAJ@fabs?$AA@     00489b58   libcmtd:fpexcept.obj
 0002:00003b60       ??_C@_05MFBN@floor?$AA@    00489b60   libcmtd:fpexcept.obj
 0002:00003b68       ??_C@_04JJMP@ceil?$AA@     00489b68   libcmtd:fpexcept.obj
 0002:00003b70       ??_C@_03JLPI@tan?$AA@      00489b70   libcmtd:fpexcept.obj
 0002:00003b74       ??_C@_03DLFL@cos?$AA@      00489b74   libcmtd:fpexcept.obj
 0002:00003b78       ??_C@_03JAMN@sin?$AA@      00489b78   libcmtd:fpexcept.obj
 0002:00003b7c       ??_C@_04LMBE@sqrt?$AA@     00489b7c   libcmtd:fpexcept.obj
 0002:00003b84       ??_C@_05BFPO@atan2?$AA@    00489b84   libcmtd:fpexcept.obj
 0002:00003b8c       ??_C@_04EAGN@atan?$AA@     00489b8c   libcmtd:fpexcept.obj
 0002:00003b94       ??_C@_04OAMO@acos?$AA@     00489b94   libcmtd:fpexcept.obj
 0002:00003b9c       ??_C@_04ELFI@asin?$AA@     00489b9c   libcmtd:fpexcept.obj
 0002:00003ba4       ??_C@_04LFAD@tanh?$AA@     00489ba4   libcmtd:fpexcept.obj
 0002:00003bac       ??_C@_04PFKD@cosh?$AA@     00489bac   libcmtd:fpexcept.obj
 0002:00003bb4       ??_C@_04NPAI@sinh?$AA@     00489bb4   libcmtd:fpexcept.obj
 0002:00003bbc       ??_C@_05IJHH@log10?$AA@    00489bbc   libcmtd:fpexcept.obj
 0002:00003bc4       ??_C@_03BGKD@log?$AA@      00489bc4   libcmtd:fpexcept.obj
 0002:00003bc8       ??_C@_03EGFG@pow?$AA@      00489bc8   libcmtd:fpexcept.obj
 0002:00003bcc       ??_C@_03CDGJ@exp?$AA@      00489bcc   libcmtd:fpexcept.obj
 0002:00003bd8       ??_C@_0L@LIHO@wcstombs?4c?$AA@ 00489bd8   libcmtd:wcstombs.obj
 0002:00003be4       ??_C@_0N@ILLM@pwcs?5?$CB?$DN?5NULL?$AA@ 00489be4   libcmtd:wcstombs.obj
 0002:00003c10       ??_C@_07CJME@H?3mm?3ss?$AA@ 00489c10   libcmtd:strftime.obj
 0002:00003c18       ??_C@_0BE@MHI@dddd?0?5MMMM?5dd?0?5yyyy?$AA@ 00489c18   libcmtd:strftime.obj
 0002:00003c2c       ??_C@_06HCAD@M?1d?1yy?$AA@ 00489c2c   libcmtd:strftime.obj
 0002:00003c34       ??_C@_02DBLP@PM?$AA@       00489c34   libcmtd:strftime.obj
 0002:00003c38       ??_C@_02ENLM@AM?$AA@       00489c38   libcmtd:strftime.obj
 0002:00003c3c       ??_C@_08LIDF@December?$AA@ 00489c3c   libcmtd:strftime.obj
 0002:00003c48       ??_C@_08NJLI@November?$AA@ 00489c48   libcmtd:strftime.obj
 0002:00003c54       ??_C@_07IAMM@October?$AA@  00489c54   libcmtd:strftime.obj
 0002:00003c5c       ??_C@_09MKGD@September?$AA@ 00489c5c   libcmtd:strftime.obj
 0002:00003c68       ??_C@_06PADP@August?$AA@   00489c68   libcmtd:strftime.obj
 0002:00003c70       ??_C@_04PIJO@July?$AA@     00489c70   libcmtd:strftime.obj
 0002:00003c78       ??_C@_04ICFP@June?$AA@     00489c78   libcmtd:strftime.obj
 0002:00003c80       ??_C@_05JFGC@April?$AA@    00489c80   libcmtd:strftime.obj
 0002:00003c88       ??_C@_05FGPD@March?$AA@    00489c88   libcmtd:strftime.obj
 0002:00003c90       ??_C@_08PGBA@February?$AA@ 00489c90   libcmtd:strftime.obj
 0002:00003c9c       ??_C@_07BPKJ@January?$AA@  00489c9c   libcmtd:strftime.obj
 0002:00003ca4       ??_C@_03PGJO@Dec?$AA@      00489ca4   libcmtd:strftime.obj
 0002:00003ca8       ??_C@_03PDLM@Nov?$AA@      00489ca8   libcmtd:strftime.obj
 0002:00003cac       ??_C@_03BLHK@Oct?$AA@      00489cac   libcmtd:strftime.obj
 0002:00003cb0       ??_C@_03DPFM@Sep?$AA@      00489cb0   libcmtd:strftime.obj
 0002:00003cb4       ??_C@_03CMCH@Aug?$AA@      00489cb4   libcmtd:strftime.obj
 0002:00003cb8       ??_C@_03OBKI@Jul?$AA@      00489cb8   libcmtd:strftime.obj
 0002:00003cbc       ??_C@_03LEIG@Jun?$AA@      00489cbc   libcmtd:strftime.obj
 0002:00003cc0       ??_C@_03MGHB@May?$AA@      00489cc0   libcmtd:strftime.obj
 0002:00003cc4       ??_C@_03MJJM@Apr?$AA@      00489cc4   libcmtd:strftime.obj
 0002:00003cc8       ??_C@_03GNHA@Mar?$AA@      00489cc8   libcmtd:strftime.obj
 0002:00003ccc       ??_C@_03PICE@Feb?$AA@      00489ccc   libcmtd:strftime.obj
 0002:00003cd0       ??_C@_03IEIF@Jan?$AA@      00489cd0   libcmtd:strftime.obj
 0002:00003cd4       ??_C@_08FAKH@Saturday?$AA@ 00489cd4   libcmtd:strftime.obj
 0002:00003ce0       ??_C@_06ONCK@Friday?$AA@   00489ce0   libcmtd:strftime.obj
 0002:00003ce8       ??_C@_08CCFO@Thursday?$AA@ 00489ce8   libcmtd:strftime.obj
 0002:00003cf4       ??_C@_09PBIN@Wednesday?$AA@ 00489cf4   libcmtd:strftime.obj
 0002:00003d00       ??_C@_07BMBC@Tuesday?$AA@  00489d00   libcmtd:strftime.obj
 0002:00003d08       ??_C@_06CHLK@Monday?$AA@   00489d08   libcmtd:strftime.obj
 0002:00003d10       ??_C@_06OOEM@Sunday?$AA@   00489d10   libcmtd:strftime.obj
 0002:00003d18       ??_C@_03MPKK@Sat?$AA@      00489d18   libcmtd:strftime.obj
 0002:00003d1c       ??_C@_03FINJ@Fri?$AA@      00489d1c   libcmtd:strftime.obj
 0002:00003d20       ??_C@_03HIKC@Thu?$AA@      00489d20   libcmtd:strftime.obj
 0002:00003d24       ??_C@_03HECK@Wed?$AA@      00489d24   libcmtd:strftime.obj
 0002:00003d28       ??_C@_03ECCP@Tue?$AA@      00489d28   libcmtd:strftime.obj
 0002:00003d2c       ??_C@_03PIEP@Mon?$AA@      00489d2c   libcmtd:strftime.obj
 0002:00003d30       ??_C@_03FHEP@Sun?$AA@      00489d30   libcmtd:strftime.obj
 0002:00003d34       ??_C@_03MKGK@a?1p?$AA@     00489d34   libcmtd:strftime.obj
 0002:00003d38       ??_C@_05BDJK@am?1pm?$AA@   00489d38   libcmtd:strftime.obj
 0002:00003d40       ??_C@_0L@HKCB@inithelp?4c?$AA@ 00489d40   libcmtd:inithelp.obj
 0002:00003d4c       ??_C@_08OKNB@aw_loc?4c?$AA@ 00489d4c   libcmtd:aw_loc.obj
 0002:00003d60       ??_C@_0L@EJNO@wtombenv?4c?$AA@ 00489d60   libcmtd:wtombenv.obj
 0002:00003d80       ??_C@_08BGPE@aw_cmp?4c?$AA@ 00489d80   libcmtd:aw_cmp.obj
 0002:00003d8c       ??_C@_0DN@PPKB@cchCount1?$DN?$DN0?5?$CG?$CG?5cchCount2?$DN?$DN1?5?$HM?$HM?5@ 00489d8c   libcmtd:aw_cmp.obj
 0002:00003dcc       ??_C@_08FEIK@setenv?4c?$AA@ 00489dcc   libcmtd:setenv.obj
 0002:00003de8       ??_C@_08ENH@strupr?4c?$AA@ 00489de8   libcmtd:strupr.obj
 0003:00000000       ___xc_a                    0048c000   libcmtd:crt0init.obj
 0003:0000014c       ___xc_z                    0048c14c   libcmtd:crt0init.obj
 0003:00000150       ___xi_a                    0048c150   libcmtd:crt0init.obj
 0003:0000015c       ___xi_z                    0048c15c   libcmtd:crt0init.obj
 0003:00000160       ___xp_a                    0048c160   libcmtd:crt0init.obj
 0003:00000168       ___xp_z                    0048c168   libcmtd:crt0init.obj
 0003:0000016c       ___xt_a                    0048c16c   libcmtd:crt0init.obj
 0003:00000170       ___xt_z                    0048c170   libcmtd:crt0init.obj
 0003:00000300       ?FlatShade@@3HA            0048c300   3dscene.obj
 0003:00000304       ?SimpleLight@@3HA          0048c304   3dscene.obj
 0003:00000308       ?UseTextures@@3HA          0048c308   3dscene.obj
 0003:0000030c       ?DitherEnable@@3HA         0048c30c   3dscene.obj
 0003:00000310       ?BlendEnable@@3HA          0048c310   3dscene.obj
 0003:00000314       ?SpecularEnable@@3HA       0048c314   3dscene.obj
 0003:00000318       ?ZEnable@@3HA              0048c318   3dscene.obj
 0003:0000031c       ?BilinearFilter@@3HA       0048c31c   3dscene.obj
 0003:000003a0       ?identity@@3U_D3DMATRIX@@A 0048c3a0   3dscene.obj
 0003:0000056c       ??_C@_06FGDG@WEAPON?$AA@   0048c56c   weapon.obj
 0003:0000057c       ??_C@_04DDLF@TILE?$AA@     0048c57c   tile.obj
 0003:00000604       ??_C@_06JLNB@SCROLL?$AA@   0048c604   scroll.obj
 0003:00000610       ?DynamicIntensity@@3HA     0048c610   playscreen.obj
 0003:00000618       ?oh@@3PAU__unnamed@@A      0048c618   playscreen.obj
 0003:0000095c       ?dp@@3PAUSDrawParam@@A     0048c95c   logoscreen.obj
 0003:00000960       ?dp2@@3PAUSDrawParam@@A    0048c960   logoscreen.obj
 0003:00000964       ?dp3@@3PAUSDrawParam@@A    0048c964   logoscreen.obj
 0003:00000968       ?dp4@@3PAUSDrawParam@@A    0048c968   logoscreen.obj
 0003:00000970       ?SkillTree@@3PAUSSkill@@A  0048c970   player.obj
 0003:00000ba0       ??_C@_06HJOA@Player?$AA@   0048cba0   player.obj
 0003:00000bb0       ??_C@_04BKBC@TOOL?$AA@     0048cbb0   tool.obj
 0003:00000bb8       ?Display@@3PAVTDisplay@@A  0048cbb8   exlmain.obj
 0003:00000bbc       ?CheckColorMode@@3HA       0048cbbc   exlmain.obj
 0003:00000bc0       ?ClearBeforeDraw@@3HA      0048cbc0   exlmain.obj
 0003:00000bc4       ?NoFrameSkip@@3HA          0048cbc4   exlmain.obj
 0003:00000bc8       ?NoScrollZBuffer@@3HA      0048cbc8   exlmain.obj
 0003:00000bcc       ?WaitVertRetrace@@3HA      0048cbcc   exlmain.obj
 0003:00000bd0       ?ShowDrawing@@3HA          0048cbd0   exlmain.obj
 0003:00000bd4       ?NoNormals@@3HA            0048cbd4   exlmain.obj
 0003:00000bd8       ?SmoothScroll@@3HA         0048cbd8   exlmain.obj
 0003:00000bdc       ?Debug@@3HA                0048cbdc   exlmain.obj
 0003:00000be0       ?Editor@@3HA               0048cbe0   exlmain.obj
 0003:00000be4       ?Force15Bit@@3HA           0048cbe4   exlmain.obj
 0003:00000be8       ?Force16Bit@@3HA           0048cbe8   exlmain.obj
 0003:00000bec       ?ShowZBuffer@@3HA          0048cbec   exlmain.obj
 0003:00000bf0       ?ShowNormalBuffer@@3HA     0048cbf0   exlmain.obj
 0003:00000bf4       ?TickOccured@@3HA          0048cbf4   exlmain.obj
 0003:00000bf8       ?DisableTimer@@3HA         0048cbf8   exlmain.obj
 0003:00000bfc       ?ShowFramesPerSecond@@3HA  0048cbfc   exlmain.obj
 0003:00000c00       ?GridSnap@@3HA             0048cc00   exlmain.obj
 0003:00000c04       ?SoundSystemOn@@3HA        0048cc04   exlmain.obj
 0003:00000c08       ?Closing@@3HA              0048cc08   exlmain.obj
 0003:00000c0c       ?HasJoyStick@@3HA          0048cc0c   exlmain.obj
 0003:00000c10       ?ImageryMemUsage@@3KA      0048cc10   exlmain.obj
 0003:00000d54       ??_C@_04OOPF@FONT?$AA@     0048cd54   exlmain.obj
 0003:00000d64       ??_C@_06BMEK@HELPER?$AA@   0048cd64   helper.obj
 0003:00000d70       ?period@@3KA               0048cd70   timer.obj
 0003:00000d84       ??_C@_0N@GPGG@RANGEDWEAPON?$AA@ 0048cd84   rangedweapon.obj
 0003:00000d9c       ??_C@_05MKBI@ARMOR?$AA@    0048cd9c   armor.obj
 0003:00001058       ?MouseCursor@@3PAVTBitmap@@A 0048d058   cursor.obj
 0003:0000105c       ?MouseAnim@@3PAVTAnimation@@A 0048d05c   cursor.obj
 0003:00001060       ?DragBitmap@@3PAVTBitmap@@A 0048d060   cursor.obj
 0003:00001064       ?cleardragbitmap@@3HA      0048d064   cursor.obj
 0003:00001304       ??_C@_09NPLP@Lightning?$AA@ 0048d304   lightninginst.obj
 0003:0000131c       ??_C@_09IAJN@CONTAINER?$AA@ 0048d31c   container.obj
 0003:00001330       ??_C@_06BPED@SHADOW?$AA@   0048d330   shadow.obj
 0003:00001338       ?TimeSinceInput@@3HA       0048d338   Mappane.obj
 0003:00001340       ?ModeCursorName@@3PAPADA   0048d340   Mappane.obj
 0003:000015bc       ??_C@_09MFPK@Character?$AA@ 0048d5bc   character.obj
 0003:000015f4       ??_C@_0M@FMNI@LIGHTSOURCE?$AA@ 0048d5f4   lightsource.obj
 0003:00001600       ?UsingHardware@@3HA        0048d600   directdraw.obj
 0003:000025d0       ?maxintensity@@3HA         0048e5d0   colortable.obj
 0003:000025d8       ?attrange@@3NA             0048e5d8   colortable.obj
 0003:000025e0       ?falloff@@3NA              0048e5e0   colortable.obj
 0003:000025e8       ?MonoPercent@@3NA          0048e5e8   colortable.obj
 0003:000025f0       ?AmbientColor@@3USColor@@A 0048e5f0   colortable.obj
 0003:000025f8       ?AmbientMultiplier@@3NA    0048e5f8   colortable.obj
 0003:00002600       ?LightColors@@3PAUSColor@@A 0048e600   colortable.obj
 0003:00002610       ?LightMultipliers@@3PAHA   0048e610   colortable.obj
 0003:00002620       ?LightUseCount@@3PAHA      0048e620   colortable.obj
 0003:00002640       ?Commands@@3PAUSCommand@@A 0048e640   command.obj
 0003:00002cf0       ?Operators@@3PAPADA        0048ecf0   command.obj
 0003:00003ad8       ??_C@_04HPFN@EXIT?$AA@     0048fad8   exit.obj
 0003:00003c80       ?keywords@@3PAPADA         0048fc80   parse.obj
 0003:00003df8       ?AmmoPos@@3PAU__unnamed@@A 0048fdf8   ammo.obj
 0003:00003f80       ??_C@_04IJOI@AMMO?$AA@     0048ff80   ammo.obj
 0003:00003f88       ?ambient@@3HA              0048ff88   dls.obj
 0003:00003f90       ?EquipLoc@@3PAY08U__unnamed@@A 0048ff90   equip.obj
 0003:00004110       ?MoneyPos@@3PAU__unnamed@@A 00490110   money.obj
 0003:00004318       ??_C@_05EBDH@MONEY?$AA@    00490318   money.obj
 0003:000043f8       ?MultiPanes@@3PAPAVTPane@@A 004903f8   multictrl.obj
 0003:00004488       ??_C@_04FBCP@FOOD?$AA@     00490488   food.obj
 0003:00004490       ?spellvals@@3PAHA          00490490   spell.obj
 0003:000044a8       ?spellnames@@3PAPADA       004904a8   spell.obj
 0003:000044c0       ?names@@3PAPADA            004904c0   spell.obj
 0003:00004588       ??_C@_04PAFM@Hole?$AA@     00490588   holeinst.obj
 0003:000046c8       ?TerrainTemplates@@3PAVTTerrainTemplate@@A 004906c8   editor.obj
 0003:000046d0       ?objflags@@3PAPADA         004906d0   editor.obj
 0003:00004710       ?lightflags@@3PAPADA       00490710   editor.obj
 0003:00004720       ?zstart@@3PAHA             00490720   editor.obj
 0003:00004740       ?TerrainCodes@@3PAU__unnamed@@A 00490740   editor.obj
 0003:00004788       ?ToolList@@3PAU__unnamed@@A 00490788   editor.obj
 0003:000057d8       ?sectorfilename@@3PADA     004917d8   Sector.obj
 0003:00005898       ?LittleNumbers@@3PAVTFont@@A 00491898   inventory.obj
 0003:000058c8       ?numimagerytypes@TImageryBuilder@@0HA 004918c8   imagery.obj
 0003:000058d0       ?imagerypath@@3PADA        004918d0   imagery.obj
 0003:00005a14       ?mousedown@@3HA            00491a14   Mainwnd.obj
 0003:00005ab4       ?numclasses@TObjectClass@@0HA 00491ab4   object.obj
 0003:00005ab8       ?numobjtypes@TObjectBuilder@@0HA 00491ab8   object.obj
 0003:00005d0c       ?INPOS@@3JA                00491d0c   zcomp.obj
 0003:00005d10       ?OUTPOS@@3JA               00491d10   zcomp.obj
 0003:00005d20       ??_C@_08MKNM@TALISMAN?$AA@ 00491d20   talisman.obj
 0003:00005d30       __fltused                  00491d30   libcmtd:fpinit.obj
 0003:00005d34       __ldused                   00491d34   libcmtd:fpinit.obj
 0003:00005d38       ___fastflag                00491d38   libcmtd:fpinit.obj
 0003:00005d3c       __adjust_fdiv              00491d3c   libcmtd:fpinit.obj
 0003:00005d40       __FPinit                   00491d40   libcmtd:fpinit.obj
 0003:00005d44       __FPmtinit                 00491d44   libcmtd:fpinit.obj
 0003:00005d48       __FPmtterm                 00491d48   libcmtd:fpinit.obj
 0003:00005d50       __NLG_Destination          00491d50   libcmtd:exsup.obj
 0003:00005d60       __crtDbgFlag               00491d60   libcmtd:dbgheap.obj
 0003:00005d68       __crtBreakAlloc            00491d68   libcmtd:dbgheap.obj
 0003:00005d8c       __umaskval                 00491d8c   libcmtd:crt0dat.obj
 0003:00005d90       __osver                    00491d90   libcmtd:crt0dat.obj
 0003:00005d94       __winver                   00491d94   libcmtd:crt0dat.obj
 0003:00005d98       __winmajor                 00491d98   libcmtd:crt0dat.obj
 0003:00005d9c       __winminor                 00491d9c   libcmtd:crt0dat.obj
 0003:00005da0       ___argc                    00491da0   libcmtd:crt0dat.obj
 0003:00005da4       ___argv                    00491da4   libcmtd:crt0dat.obj
 0003:00005da8       ___wargv                   00491da8   libcmtd:crt0dat.obj
 0003:00005dac       __environ                  00491dac   libcmtd:crt0dat.obj
 0003:00005db0       ___initenv                 00491db0   libcmtd:crt0dat.obj
 0003:00005db4       __wenviron                 00491db4   libcmtd:crt0dat.obj
 0003:00005db8       ___winitenv                00491db8   libcmtd:crt0dat.obj
 0003:00005dbc       __pgmptr                   00491dbc   libcmtd:crt0dat.obj
 0003:00005dc0       __wpgmptr                  00491dc0   libcmtd:crt0dat.obj
 0003:00005dc4       __exitflag                 00491dc4   libcmtd:crt0dat.obj
 0003:00005dc8       __C_Termination_Done       00491dc8   libcmtd:crt0dat.obj
 0003:00005dcc       __C_Exit_Done              00491dcc   libcmtd:crt0dat.obj
 0003:00005de0       ___small_block_heap        00491de0   libcmtd:sbheap.obj
 0003:000065fc       ___sbh_threshold           004925fc   libcmtd:sbheap.obj
 0003:00006600       __aenvptr                  00492600   libcmtd:wincrt0.obj
 0003:00006604       __wenvptr                  00492604   libcmtd:wincrt0.obj
 0003:00006608       __aexit_rtn                00492608   libcmtd:wincrt0.obj
 0003:0000660c       ___error_mode              0049260c   libcmtd:wincrt0.obj
 0003:00006610       ___app_type                00492610   libcmtd:wincrt0.obj
 0003:00006618       __locktable                00492618   libcmtd:mlock.obj
 0003:000066d8       __crtAssertBusy            004926d8   libcmtd:dbgrpt.obj
 0003:000066e0       __CrtDbgMode               004926e0   libcmtd:dbgrpt.obj
 0003:000066f0       __CrtDbgFile               004926f0   libcmtd:dbgrpt.obj
 0003:00006710       __stdbuf                   00492710   libcmtd:_sftbuf.obj
 0003:00006718       ___nullstring              00492718   libcmtd:output.obj
 0003:0000671c       ___wnullstring             0049271c   libcmtd:output.obj
 0003:00006888       ___badioinfo               00492888   libcmtd:ioinit.obj
 0003:000068b0       __cfltcvt_tab              004928b0   libcmtd:cmiscdat.obj
 0003:000068d0       ___tlsindex                004928d0   libcmtd:tidtable.obj
 0003:000068e0       __OP_SQRTjmptab            004928e0   libcmtd:87sqrt.obj
 0003:00006900       __newmode                  00492900   libcmtd:_newmode.obj
 0003:00006904       __pfnAllocHook             00492904   libcmtd:dbghook.obj
 0003:00006908       __amblksiz                 00492908   libcmtd:heapinit.obj
 0003:00006910       __pctype                   00492910   libcmtd:ctype.obj
 0003:00006914       __pwctype                  00492914   libcmtd:ctype.obj
 0003:00006918       __ctype                    00492918   libcmtd:ctype.obj
 0003:00006b1c       ___mb_cur_max              00492b1c   libcmtd:nlsdata1.obj
 0003:00006b20       ___decimal_point           00492b20   libcmtd:nlsdata1.obj
 0003:00006b24       ___decimal_point_length    00492b24   libcmtd:nlsdata1.obj
 0003:00006b42       __OP_SINjmptab             00492b42   libcmtd:87trig.obj
 0003:00006b62       __OP_COSjmptab             00492b62   libcmtd:87trig.obj
 0003:00006b82       __OP_TANjmptab             00492b82   libcmtd:87trig.obj
 0003:00006bb0       __OP_ASINjmptab            00492bb0   libcmtd:87triga.obj
 0003:00006bd0       __OP_ACOSjmptab            00492bd0   libcmtd:87triga.obj
 0003:00006bf0       __OP_ATANjmptab            00492bf0   libcmtd:87triga.obj
 0003:00006c10       __OP_ATAN2jmptab           00492c10   libcmtd:87triga.obj
 0003:00006dd0       ___lc_handle               00492dd0   libcmtd:nlsdata2.obj
 0003:00006de8       ___lc_codepage             00492de8   libcmtd:nlsdata2.obj
 0003:00006df8       __XcptActTab               00492df8   libcmtd:winxfltr.obj
 0003:00006e70       __First_FPE_Indx           00492e70   libcmtd:winxfltr.obj
 0003:00006e74       __Num_FPE                  00492e74   libcmtd:winxfltr.obj
 0003:00006e78       __XcptActTabSize           00492e78   libcmtd:winxfltr.obj
 0003:00006e7c       __XcptActTabCount          00492e7c   libcmtd:winxfltr.obj
 0003:00006e88       __mbctype                  00492e88   libcmtd:mbctype.obj
 0003:00006f8c       ___mbcodepage              00492f8c   libcmtd:mbctype.obj
 0003:00006f90       ___mblcid                  00492f90   libcmtd:mbctype.obj
 0003:00006f98       ___mbulinfo                00492f98   libcmtd:mbctype.obj
 0003:00007130       __adbgmsg                  00493130   libcmtd:crt0msg.obj
 0003:00007138       __iob                      00493138   libcmtd:_file.obj
 0003:000073b8       __cflush                   004933b8   libcmtd:_file.obj
 0003:000073dc       __commode                  004933dc   libcmtd:ncommode.obj
 0003:00007410       ?__pInconsistency@@3P6AXXZA 00493410   libcmtd:hooks.obj
 0003:00007420       __indefinite               00493420   libcmtd:87disp.obj
 0003:0000742a       __piby2                    0049342a   libcmtd:87disp.obj
 0003:00007458       __timezone                 00493458   libcmtd:timeset.obj
 0003:0000745c       __daylight                 0049345c   libcmtd:timeset.obj
 0003:00007460       __dstbias                  00493460   libcmtd:timeset.obj
 0003:000074e8       __tzname                   004934e8   libcmtd:timeset.obj
 0003:00007518       __lpdays                   00493518   libcmtd:days.obj
 0003:00007550       __days                     00493550   libcmtd:days.obj
 0003:00007590       __infinity                 00493590   libcmtd:87tran.obj
 0003:0000759a       __minfinity                0049359a   libcmtd:87tran.obj
 0003:000075a4       __logemax                  004935a4   libcmtd:87tran.obj
 0003:000075ca       __OP_POWjmptab             004935ca   libcmtd:87tran.obj
 0003:0000761a       __OP_LOG10jmptab           0049361a   libcmtd:87tran.obj
 0003:0000763a       __OP_LOGjmptab             0049363a   libcmtd:87tran.obj
 0003:0000765a       __OP_EXPjmptab             0049365a   libcmtd:87tran.obj
 0003:0000767c       ___lc_time_intl            0049367c   libcmtd:inittime.obj
 0003:000076a0       ___lc_id                   004936a0   libcmtd:nlsdata3.obj
 0003:000076c8       ___rg_lang_rec             004936c8   libcmtd:getqloc.obj
 0003:000079e0       ___rg_ctry_rec             004939e0   libcmtd:getqloc.obj
 0003:00007c98       ___rgrgwlang               00493c98   libcmtd:getqloc.obj
 0003:00007ebc       __fmode                    00493ebc   libcmtd:txtmode.obj
 0003:00007f98       __matherr_flag             00493f98   libcmtd:matherr.obj
 0003:00008120       ___lc_time_c               00494120   libcmtd:strftime.obj
 0003:000081cc       ___lc_time_curr            004941cc   libcmtd:strftime.obj
 0003:000081d0       __alternate_form           004941d0   libcmtd:strftime.obj
 0003:000081d4       __no_lead_zeros            004941d4   libcmtd:strftime.obj
 0003:000081d8       ___lconv_static_decimal    004941d8   libcmtd:lconv.obj
 0003:000081dc       ___lconv_static_null       004941dc   libcmtd:lconv.obj
 0003:000081e0       ___lconv_c                 004941e0   libcmtd:lconv.obj
 0003:00008210       ___lconv                   00494210   libcmtd:lconv.obj
 0003:00008220       __d_inf                    00494220   libcmtd:util.obj
 0003:00008228       __d_ind                    00494228   libcmtd:util.obj
 0003:00008230       __d_max                    00494230   libcmtd:util.obj
 0003:00008238       __d_min                    00494238   libcmtd:util.obj
 0003:00008240       __d_mzero                  00494240   libcmtd:util.obj
 0003:00008248       __pow10pos                 00494248   libcmtd:constpow.obj
 0003:000083a8       __pow10neg                 004943a8   libcmtd:constpow.obj
 0003:00008ec8       ?hProj@@3KA                00494ec8   3dscene.obj
 0003:00009044       ?hView@@3KA                00495044   3dscene.obj
 0003:0000925c       ?hPos@@3KA                 0049525c   3dscene.obj
 0003:00009294       ?hWorld@@3KA               00495294   3dscene.obj
 0003:00009298       ?TWeaponBuilderInstance@@3VTWeaponBuilder@@A 00495298   weapon.obj
 0003:000092a0       ?WeaponClass@@3VTObjectClass@@A 004952a0   weapon.obj
 0003:004656c0       ?TileClass@@3VTObjectClass@@A 008f16c0   tile.obj
 0003:008c1ae0       ?TTileBuilderInstance@@3VTTileBuilder@@A 00d4dae0   tile.obj
 0003:008c1ae8       ?ScrollClass@@3VTObjectClass@@A 00d4dae8   scroll.obj
 0003:00d1df08       ?TScrollBuilderInstance@@3VTScrollBuilder@@A 011a9f08   scroll.obj
 0003:00d1df10       ?ScrollPane@@3VTScrollPane@@A 011a9f10   scroll.obj
 0003:00d1e068       ?overhang@@3PAPAVTBitmap@@A 011aa068   playscreen.obj
 0003:00d1e0ac       ?bitmap@@3PAVTBitmap@@A    011aa0ac   playscreen.obj
 0003:00d1e0b0       ?PointerCursor@@3PAVTBitmap@@A 011aa0b0   playscreen.obj
 0003:00d1e0c0       ?sdp@@3USDrawParam@@A      011aa0c0   logoscreen.obj
 0003:00d1e108       ?value2@@3KA               011aa108   logoscreen.obj
 0003:00d1e110       ?sdp2@@3USDrawParam@@A     011aa110   logoscreen.obj
 0003:00d1e158       ?sdp3@@3USDrawParam@@A     011aa158   logoscreen.obj
 0003:00d1e1a0       ?sdp4@@3USDrawParam@@A     011aa1a0   logoscreen.obj
 0003:00d1e1f0       ?PlayerClass@@3VTObjectClass@@A 011aa1f0   player.obj
 0003:0117a610       ?TPlayerBuilderInstance@@3VTPlayerBuilder@@A 01606610   player.obj
 0003:0117a618       ?TMultiAnimImageryBuilderInstance@@3VTMultiAnimImageryBuilder@@A 01606618   multianimimage.obj
 0003:0117a620       ?ToolClass@@3VTObjectClass@@A 01606620   tool.obj
 0003:015d6a40       ?TToolBuilderInstance@@3VTToolBuilder@@A 01a62a40   tool.obj
 0003:015d6a48       ?Scene3D@@3VT3DScene@@A    01a62a48   exlmain.obj
 0003:015d6a50       ?display@@3VTDisplay@@A    01a62a50   exlmain.obj
 0003:015d6aa8       ?SaveGame@@3VTSaveGame@@A  01a62aa8   exlmain.obj
 0003:015d6ab0       ?HealthBar@@3VTHealthBar@@A 01a62ab0   exlmain.obj
 0003:015d6af8       ?JoyInfo@@3Ujoyinfo_tag@@A 01a62af8   exlmain.obj
 0003:015d6b08       ?GameData@@3PAVTMulti@@A   01a62b08   exlmain.obj
 0003:015d6b10       ?StatPane@@3VTStatPane@@A  01a62b10   exlmain.obj
 0003:015d6b50       ?AutoMap@@3VTAutoMap@@A    01a62b50   exlmain.obj
 0003:015d6b98       ?CriticalSection@@3U_RTL_CRITICAL_SECTION@@A 01a62b98   exlmain.obj
 0003:015d6bb0       ?EquipPane@@3VTEquipPane@@A 01a62bb0   exlmain.obj
 0003:015d6d08       ?MainWindow@@3VTMainWindow@@A 01a62d08   exlmain.obj
 0003:015d6d20       ?LogoScreen@@3VTLogoScreen@@A 01a62d20   exlmain.obj
 0003:015d6ddc       ?ShiftDown@@3HA            01a62ddc   exlmain.obj
 0003:015d6de0       ?SystemFont@@3PAVTFont@@A  01a62de0   exlmain.obj
 0003:015d6de8       ?StaminaBar@@3VTStaminaBar@@A 01a62de8   exlmain.obj
 0003:015d6e2c       ?Timer@@3VTTimer@@A        01a62e2c   exlmain.obj
 0003:015d6e30       ?TextBar@@3VTTextBar@@A    01a62e30   exlmain.obj
 0003:015d6ec0       ?QuickSpells@@3VTQuickSpellPane@@A 01a62ec0   exlmain.obj
 0003:015d7004       ?GameFont@@3PAVTFont@@A    01a63004   exlmain.obj
 0003:015d7008       ?AltDown@@3HA              01a63008   exlmain.obj
 0003:015d700c       ?MemStart@@3KA             01a6300c   exlmain.obj
 0003:015d7010       ?Locke@@3PAVTPlayer@@A     01a63010   exlmain.obj
 0003:015d7014       ?CtrlDown@@3HA             01a63014   exlmain.obj
 0003:015d7018       ?PlayScreen@@3VTPlayScreen@@A 01a63018   exlmain.obj
 0003:015d73b0       ?SavePath@@3PADA           01a633b0   exlmain.obj
 0003:015d7418       ?MultiCtrl@@3VTMultiCtrlPane@@A 01a63418   exlmain.obj
 0003:015d7568       ?Inventory@@3VTInventory@@A 01a63568   exlmain.obj
 0003:015d75c0       ?ScriptManager@@3VTScriptManager@@A 01a635c0   exlmain.obj
 0003:015df5c8       ?SpellPane@@3VTSpellPane@@A 01a6b5c8   exlmain.obj
 0003:015df670       ?SmallGameFont@@3PAVTFont@@A 01a6b670   exlmain.obj
 0003:015df674       ?NextScreen@@3PAVTScreen@@A 01a6b674   exlmain.obj
 0003:015df678       ?RunPath@@3PADA            01a6b678   exlmain.obj
 0003:015df6e0       ?MapPane@@3VTMapPane@@A    01a6b6e0   exlmain.obj
 0003:015dffd8       ?StartMemory@@3U_MEMORYSTATUS@@A 01a6bfd8   exlmain.obj
 0003:015dfff8       ?ChunkCache@@3VTChunkCache@@A 01a6bff8   exlmain.obj
 0003:015e3008       ?SoundPlayer@@3VTSoundPlayer@@A 01a6f008   exlmain.obj
 0003:015e3014       ?MemUsed@@3KA              01a6f014   exlmain.obj
 0003:015e3018       ?hInstance@@3PAXA          01a6f018   exlmain.obj
 0003:015e301c       ?LastFrameTicks@@3HA       01a6f01c   exlmain.obj
 0003:015e3020       ?CurrentScreen@@3PAVTScreen@@A 01a6f020   exlmain.obj
 0003:015e3028       ?THelperBuilderInstance@@3VTHelperBuilder@@A 01a6f028   helper.obj
 0003:015e3030       ?HelperClass@@3VTObjectClass@@A 01a6f030   helper.obj
 0003:01a3f450       ?clockticks@TTimer@@0KA    01ecb450   timer.obj
 0003:01a3f458       ?TRangedWeaponBuilderInstance@@3VTRangedWeaponBuilder@@A 01ecb458   rangedweapon.obj
 0003:01a3f460       ?RangedWeaponClass@@3VTObjectClass@@A 01ecb460   rangedweapon.obj
 0003:01e9b880       ?TArmorBuilderInstance@@3VTArmorBuilder@@A 02327880   armor.obj
 0003:01e9b888       ?ArmorClass@@3VTObjectClass@@A 02327888   armor.obj
 0003:022f7ca8       ?frame@@3HA                02783ca8   cursor.obj
 0003:022f7cac       ?grabx@@3HA                02783cac   cursor.obj
 0003:022f7cb0       ?graby@@3HA                02783cb0   cursor.obj
 0003:022f7cb8       ?T3DImageryBuilderInstance@@3VT3DImageryBuilder@@A 02783cb8   3dimage.obj
 0003:022f7cc0       ?T3DHelperImageryBuilderInstance@@3VT3DHelperImageryBuilder@@A 02783cc0   3dimage.obj
 0003:022f7cc8       ?TLightningInstBuilderInstance@@3VTLightningInstBuilder@@A 02783cc8   lightninginst.obj
 0003:022f7cd0       ?LightningClass@@3VTObjectClass@@A 02783cd0   lightninginst.obj
 0003:027540f0       ?ContainerClass@@3VTObjectClass@@A 02be00f0   container.obj
 0003:02bb0510       ?TContainerBuilderInstance@@3VTContainerBuilder@@A 0303c510   container.obj
 0003:02bb0518       ?TShadowBuilderInstance@@3VTShadowBuilder@@A 0303c518   shadow.obj
 0003:02bb0520       ?ShadowClass@@3VTObjectClass@@A 0303c520   shadow.obj
 0003:0300c940       ?TAnimImageryBuilderInstance@@3VTAnimImageryBuilder@@A 03498940   animimage.obj
 0003:0300c958       ?TCharacterBuilderInstance@@3VTCharacterBuilder@@A 03498958   character.obj
 0003:0300c968       ?CharacterClass@@3VTObjectClass@@A 03498968   character.obj
 0003:03468d88       ?TLightSourceBuilderInstance@@3VTLightSourceBuilder@@A 038f4d88   lightsource.obj
 0003:03468d90       ?LightSourceClass@@3VTObjectClass@@A 038f4d90   lightsource.obj
 0003:038c51b0       ?Hardware3D@@3HA           03d511b0   directdraw.obj
 0003:038c51b4       ?Direct3D@@3PAUIDirect3D@@A 03d511b4   directdraw.obj
 0003:038c51b8       ?Device@@3PAUIDirect3DDevice@@A 03d511b8   directdraw.obj
 0003:038c51bc       ?GDIMem@@3KA               03d511bc   directdraw.obj
 0003:038c51c0       ?ZBufferBitDepth@@3KA      03d511c0   directdraw.obj
 0003:038c51c8       ?DriverCaps@@3U_DDCAPS@@A  03d511c8   directdraw.obj
 0003:038c5304       ?BlitHardware@@3HA         03d51304   directdraw.obj
 0003:038c5308       ?HELcaps@@3U_DDCAPS@@A     03d51308   directdraw.obj
 0003:038c5444       ?DirectDraw@@3PAUIDirectDraw@@A 03d51444   directdraw.obj
 0003:038c5448       ?DeviceGuid@@3PAU_GUID@@A  03d51448   directdraw.obj
 0003:038c5450       ?DeviceInfo@@3U_D3DDeviceInfo@@A 03d51450   directdraw.obj
 0003:038c55b4       ?Viewport@@3PAUIDirect3DViewport@@A 03d515b4   directdraw.obj
 0003:038c55b8       ?LightTableRed@@3PAEA      03d515b8   colortable.obj
 0003:038d55b8       ?DistTable@@3PAY0BAA@EA    03d615b8   colortable.obj
 0003:038e55b8       ?IntCos@@3PAEA             03d715b8   colortable.obj
 0003:038f55b8       ?LightDropOffTable@@3PAEA  03d815b8   colortable.obj
 0003:038fd5b8       ?ColorTable16@@3PAEA       03d895b8   colortable.obj
 0003:038ff5b8       ?BrightnessTable@@3PAEA    03d8b5b8   colortable.obj
 0003:039015b8       ?IntensityTableUpper@@3PAEA 03d8d5b8   colortable.obj
 0003:039016b8       ?Conv16to32Upper@@3PAKA    03d8d6b8   colortable.obj
 0003:039018b8       ?ColorTable@@3PAEA         03d8d8b8   colortable.obj
 0003:039038b8       ?DistX@@3PAFA              03d8f8b8   colortable.obj
 0003:03903ab8       ?DistY@@3PAFA              03d8fab8   colortable.obj
 0003:03903cb8       ?attmin@@3NA               03d8fcb8   colortable.obj
 0003:03903cc0       ?ColorTableUpperLo@@3PAEA  03d8fcc0   colortable.obj
 0003:03905cc0       ?ColorTableUpperHi@@3PAEA  03d91cc0   colortable.obj
 0003:03907cc0       ?IntensityTableLower@@3PAEA 03d93cc0   colortable.obj
 0003:03907dc0       ?SinSin@@3PAEA             03d93dc0   colortable.obj
 0003:0390bdc0       ?Conv16to32Lower@@3PAKA    03d97dc0   colortable.obj
 0003:0390c1c0       ?LightTableGreen@@3PAGA    03d981c0   colortable.obj
 0003:0392c1c0       ?AngleTable@@3PAY0BAA@EA   03db81c0   colortable.obj
 0003:0393c1c0       ?ColorTableLower@@3PAEA    03dc81c0   colortable.obj
 0003:0393e1c0       ?CosCos@@3PAEA             03dca1c0   colortable.obj
 0003:039421c0       ?LightTableBlue@@3PAEA     03dce1c0   colortable.obj
 0003:039521c0       ?ExitClass@@3VTObjectClass@@A 03dde1c0   exit.obj
 0003:03dae5e0       ?TExitBuilderInstance@@3VTExitBuilder@@A 0423a5e0   exit.obj
 0003:03dae7f8       ?idents@@3VTIdent@@A       0423a7f8   parse.obj
 0003:03dae800       ?ammogrounditem@@3PAY0CA@PAVTBitmap@@A 0423a800   ammo.obj
 0003:03daea00       ?TAmmoBuilderInstance@@3VTAmmoBuilder@@A 0423aa00   ammo.obj
 0003:03daea08       ?AmmoClass@@3VTObjectClass@@A 0423aa08   ammo.obj
 0003:0420ae28       ?ammogroundusecount@@3PAY0CA@HA 04696e28   ammo.obj
 0003:0420b028       ?ammoinvitem@@3PAY0CA@PAVTBitmap@@A 04697028   ammo.obj
 0003:0420b228       ?ammoinvusecount@@3PAY0CA@HA 04697228   ammo.obj
 0003:0420b428       ?NormalBuffer@@3AAVTBitmap@@A 04697428   dls.obj
 0003:0420b42c       ?ZBuffer@@3AAVTBitmap@@A   0469742c   dls.obj
 0003:0420b430       ?dirintensity@@3HA         04697430   dls.obj
 0003:0420b434       ?UnlitBuffer@@3AAVTBitmap@@A 04697434   dls.obj
 0003:0420b438       ?dirnormal@@3HA            04697438   dls.obj
 0003:043eb518       ?RestoreBufs@@3PAURestoreBuf@@A 04877518   display.obj
 0003:043eb7e8       ?back@@3PAUIDirectDrawSurface@@A 048777e8   display.obj
 0003:043eb7ec       ?zbuffer@@3PAUIDirectDrawSurface@@A 048777ec   display.obj
 0003:043eb7f0       ?front@@3PAUIDirectDrawSurface@@A 048777f0   display.obj
 0003:043eb7f8       ?groundusecount@@3PAY0EA@HA 048777f8   money.obj
 0003:043eb8f8       ?invusecount@@3PAY0EA@HA   048778f8   money.obj
 0003:043eb9f8       ?TMoneyBuilderInstance@@3VTMoneyBuilder@@A 048779f8   money.obj
 0003:043eba00       ?invitem@@3PAY0EA@PAVTBitmap@@A 04877a00   money.obj
 0003:043ebb00       ?MoneyClass@@3VTObjectClass@@A 04877b00   money.obj
 0003:04847f20       ?grounditem@@3PAY0EA@PAVTBitmap@@A 04cd3f20   money.obj
 0003:04848020       ?TMultiImageryBuilderInstance@@3VTMultiImageryBuilder@@A 04cd4020   multiimage.obj
 0003:0484802c       ?cursory@@3HA              04cd402c   screen.obj
 0003:04848030       ?cursorx@@3HA              04cd4030   screen.obj
 0003:04848038       ?FoodClass@@3VTObjectClass@@A 04cd4038   food.obj
 0003:04ca4458       ?TFoodBuilderInstance@@3VTFoodBuilder@@A 05130458   food.obj
 0003:04ca4460       ?usage@@3PAHA              05130460   spell.obj
 0003:04ca4480       ?THoleInstBuilderInstance@@3VTHoleInstBuilder@@A 05130480   holeinst.obj
 0003:04ca4488       ?HoleClass@@3VTObjectClass@@A 05130488   holeinst.obj
 0003:05100908       ?buf@@3PADA                0558c908   editor.obj
 0003:05100d08       ?ToolBar@@3VTEditToolsPane@@A 0558cd08   editor.obj
 0003:05100e4c       ?EditorData@@3PAVTMulti@@A 0558ce4c   editor.obj
 0003:05100e50       ?Console@@3VTConsolePane@@A 0558ce50   editor.obj
 0003:05100eec       ?startx@@3HA               0558ceec   editor.obj
 0003:05100ef0       ?starty@@3HA               0558cef0   editor.obj
 0003:05100ef8       ?ScriptEditor@@3VTScriptPane@@A 0558cef8   editor.obj
 0003:05100f70       ?ScrollEditor@@3VTScrollEditorPane@@A 0558cf70   editor.obj
 0003:05100fe8       ?startpos@@3US3DPoint@@A   0558cfe8   editor.obj
 0003:05100ff8       ?StatusBar@@3VTEditStatusPane@@A 0558cff8   editor.obj
 0003:05102150       ?ClassPane@@3VTEditClassPane@@A 0558e150   editor.obj
 0003:051142c0       ?builders@TImageryBuilder@@0PAPAV1@A 055a02c0   imagery.obj
 0003:05114320       ?UsedImagery@@3PAEA        055a0320   object.obj
 0003:05114708       ?ImageryName@@3PAPADA      055a0708   object.obj
 0003:051156a8       ?builders@TObjectBuilder@@0PAPAV1@A 055a16a8   object.obj
 0003:05115aa8       ?classes@TObjectClass@@0PAPAV1@A 055a1aa8   object.obj
 0003:05115ba8       ?OUTFILE@@3PAU_iobuf@@A    055a1ba8   zcomp.obj
 0003:05115bac       ?gDsize@@3IA               055a1bac   zcomp.obj
 0003:05115bb0       ?compSize@@3JA             055a1bb0   zcomp.obj
 0003:05115bb4       ?WorkBuf@@3PADA            055a1bb4   zcomp.obj
 0003:05115bb8       ?cmpError@@3HA             055a1bb8   zcomp.obj
 0003:05115bbc       ?gType@@3IA                055a1bbc   zcomp.obj
 0003:05115bc0       ?INFILE@@3PAU_iobuf@@A     055a1bc0   zcomp.obj
 0003:05115bc4       ?OUTBUF@@3PADA             055a1bc4   zcomp.obj
 0003:05115bc8       ?INBUF@@3PADA              055a1bc8   zcomp.obj
 0003:05115bd0       ?TTalismanBuilderInstance@@3VTTalismanBuilder@@A 055a1bd0   talisman.obj
 0003:05115bd8       ?TalismanClass@@3VTObjectClass@@A 055a1bd8   talisman.obj
 0003:05572088       ?_pnhHeap@@3P6AHI@ZA       059fe088   libcmtd:handler.obj
 0003:05572258       ___piob                    059fe258   <common>
 0003:05572260       __bufin                    059fe260   <common>
 0003:05573260       __nstream                  059ff260   <common>
 0003:05573264       ___setlc_active            059ff264   <common>
 0003:05573268       ___unguarded_readlc_active 059ff268   <common>
 0003:0557326c       __crtheap                  059ff26c   <common>
 0003:05573270       ___pioinfo                 059ff270   <common>
 0003:05573370       __nhandle                  059ff370   <common>
 0003:05573374       __pfnReportHook            059ff374   <common>
 0003:05573378       __acmdln                   059ff378   <common>
 0003:0557337c       ___onexitend               059ff37c   <common>
 0003:05573380       ___onexitbegin             059ff380   <common>
 0003:05573384       __pfnDumpClient            059ff384   <common>
 0004:00000000       __IMPORT_DESCRIPTOR_WINMM  05a00000   winmm:WINMM.dll
 0004:00000014       __IMPORT_DESCRIPTOR_DDRAW  05a00014   ddraw:DDRAW.dll
 0004:00000028       __IMPORT_DESCRIPTOR_KERNEL32 05a00028   kernel32:KERNEL32.dll
 0004:0000003c       __IMPORT_DESCRIPTOR_USER32 05a0003c   user32:USER32.dll
 0004:00000050       __IMPORT_DESCRIPTOR_DSOUND 05a00050   dsound:DSOUND.dll
 0004:00000064       __NULL_IMPORT_DESCRIPTOR   05a00064   winmm:WINMM.dll
 0004:00000284       __imp__DirectDrawEnumerateA@8 05a00284   ddraw:DDRAW.dll
 0004:00000288       __imp__DirectDrawCreate@12 05a00288   ddraw:DDRAW.dll
 0004:0000028c       \177DDRAW_NULL_THUNK_DATA  05a0028c   ddraw:DDRAW.dll
 0004:00000290       __imp__DirectSoundCreate@12 05a00290   dsound:DSOUND.dll
 0004:00000294       \177DSOUND_NULL_THUNK_DATA 05a00294   dsound:DSOUND.dll
 0004:00000298       __imp__GetCurrentThreadId@0 05a00298   kernel32:KERNEL32.dll
 0004:0000029c       __imp__SetLastError@4      05a0029c   kernel32:KERNEL32.dll
 0004:000002a0       __imp__TlsGetValue@4       05a002a0   kernel32:KERNEL32.dll
 0004:000002a4       __imp__TlsFree@4           05a002a4   kernel32:KERNEL32.dll
 0004:000002a8       __imp__DebugBreak@0        05a002a8   kernel32:KERNEL32.dll
 0004:000002ac       __imp__SetEnvironmentVariableA@8 05a002ac   kernel32:KERNEL32.dll
 0004:000002b0       __imp__CompareStringW@24   05a002b0   kernel32:KERNEL32.dll
 0004:000002b4       __imp__CompareStringA@24   05a002b4   kernel32:KERNEL32.dll
 0004:000002b8       __imp__InitializeCriticalSection@4 05a002b8   kernel32:KERNEL32.dll
 0004:000002bc       __imp__GetModuleFileNameA@12 05a002bc   kernel32:KERNEL32.dll
 0004:000002c0       __imp__GetVersion@0        05a002c0   kernel32:KERNEL32.dll
 0004:000002c4       __imp__SetErrorMode@4      05a002c4   kernel32:KERNEL32.dll
 0004:000002c8       __imp__GlobalMemoryStatus@4 05a002c8   kernel32:KERNEL32.dll
 0004:000002cc       __imp__GlobalSize@4        05a002cc   kernel32:KERNEL32.dll
 0004:000002d0       __imp__GlobalHandle@4      05a002d0   kernel32:KERNEL32.dll
 0004:000002d4       __imp__GetTickCount@0      05a002d4   kernel32:KERNEL32.dll
 0004:000002d8       __imp__LeaveCriticalSection@4 05a002d8   kernel32:KERNEL32.dll
 0004:000002dc       __imp__EnterCriticalSection@4 05a002dc   kernel32:KERNEL32.dll
 0004:000002e0       __imp__CreateEventA@16     05a002e0   kernel32:KERNEL32.dll
 0004:000002e4       __imp__PulseEvent@4        05a002e4   kernel32:KERNEL32.dll
 0004:000002e8       __imp__CloseHandle@4       05a002e8   kernel32:KERNEL32.dll
 0004:000002ec       __imp__WaitForSingleObject@8 05a002ec   kernel32:KERNEL32.dll
 0004:000002f0       __imp__SetThreadPriority@8 05a002f0   kernel32:KERNEL32.dll
 0004:000002f4       __imp__GetCurrentThread@0  05a002f4   kernel32:KERNEL32.dll
 0004:000002f8       __imp__RtlUnwind@16        05a002f8   kernel32:KERNEL32.dll
 0004:000002fc       __imp__IsBadWritePtr@8     05a002fc   kernel32:KERNEL32.dll
 0004:00000300       __imp__IsBadReadPtr@8      05a00300   kernel32:KERNEL32.dll
 0004:00000304       __imp__HeapValidate@12     05a00304   kernel32:KERNEL32.dll
 0004:00000308       __imp__ExitProcess@4       05a00308   kernel32:KERNEL32.dll
 0004:0000030c       __imp__TerminateProcess@8  05a0030c   kernel32:KERNEL32.dll
 0004:00000310       __imp__GetCurrentProcess@0 05a00310   kernel32:KERNEL32.dll
 0004:00000314       __imp__GetTimeZoneInformation@4 05a00314   kernel32:KERNEL32.dll
 0004:00000318       __imp__GetSystemTime@4     05a00318   kernel32:KERNEL32.dll
 0004:0000031c       __imp__GetLocalTime@4      05a0031c   kernel32:KERNEL32.dll
 0004:00000320       __imp__HeapFree@12         05a00320   kernel32:KERNEL32.dll
 0004:00000324       __imp__VirtualFree@12      05a00324   kernel32:KERNEL32.dll
 0004:00000328       __imp__VirtualAlloc@16     05a00328   kernel32:KERNEL32.dll
 0004:0000032c       __imp__HeapAlloc@12        05a0032c   kernel32:KERNEL32.dll
 0004:00000330       __imp__GetLastError@0      05a00330   kernel32:KERNEL32.dll
 0004:00000334       __imp__ResumeThread@4      05a00334   kernel32:KERNEL32.dll
 0004:00000338       __imp__CreateThread@24     05a00338   kernel32:KERNEL32.dll
 0004:0000033c       __imp__TlsSetValue@8       05a0033c   kernel32:KERNEL32.dll
 0004:00000340       __imp__ExitThread@4        05a00340   kernel32:KERNEL32.dll
 0004:00000344       __imp__GetModuleHandleA@4  05a00344   kernel32:KERNEL32.dll
 0004:00000348       __imp__GetStartupInfoA@4   05a00348   kernel32:KERNEL32.dll
 0004:0000034c       __imp__GetCommandLineA@0   05a0034c   kernel32:KERNEL32.dll
 0004:00000350       __imp__DeleteCriticalSection@4 05a00350   kernel32:KERNEL32.dll
 0004:00000354       __imp__FatalAppExitA@8     05a00354   kernel32:KERNEL32.dll
 0004:00000358       __imp__RaiseException@16   05a00358   kernel32:KERNEL32.dll
 0004:0000035c       __imp__GetStdHandle@4      05a0035c   kernel32:KERNEL32.dll
 0004:00000360       __imp__InterlockedDecrement@4 05a00360   kernel32:KERNEL32.dll
 0004:00000364       __imp__OutputDebugStringA@4 05a00364   kernel32:KERNEL32.dll
 0004:00000368       __imp__WriteFile@20        05a00368   kernel32:KERNEL32.dll
 0004:0000036c       __imp__GetProcAddress@8    05a0036c   kernel32:KERNEL32.dll
 0004:00000370       __imp__LoadLibraryA@4      05a00370   kernel32:KERNEL32.dll
 0004:00000374       __imp__InterlockedIncrement@4 05a00374   kernel32:KERNEL32.dll
 0004:00000378       __imp__SetFilePointer@16   05a00378   kernel32:KERNEL32.dll
 0004:0000037c       __imp__SetHandleCount@4    05a0037c   kernel32:KERNEL32.dll
 0004:00000380       __imp__GetFileType@4       05a00380   kernel32:KERNEL32.dll
 0004:00000384       __imp__GetLocaleInfoW@16   05a00384   kernel32:KERNEL32.dll
 0004:00000388       __imp__TlsAlloc@0          05a00388   kernel32:KERNEL32.dll
 0004:0000038c       __imp__GetLocaleInfoA@16   05a0038c   kernel32:KERNEL32.dll
 0004:00000390       __imp__DeleteFileA@4       05a00390   kernel32:KERNEL32.dll
 0004:00000394       __imp__CreateDirectoryA@8  05a00394   kernel32:KERNEL32.dll
 0004:00000398       __imp__HeapReAlloc@16      05a00398   kernel32:KERNEL32.dll
 0004:0000039c       __imp__HeapDestroy@4       05a0039c   kernel32:KERNEL32.dll
 0004:000003a0       __imp__HeapCreate@12       05a003a0   kernel32:KERNEL32.dll
 0004:000003a4       __imp__ReadFile@20         05a003a4   kernel32:KERNEL32.dll
 0004:000003a8       __imp__SetStdHandle@8      05a003a8   kernel32:KERNEL32.dll
 0004:000003ac       __imp__Sleep@4             05a003ac   kernel32:KERNEL32.dll
 0004:000003b0       __imp__MultiByteToWideChar@24 05a003b0   kernel32:KERNEL32.dll
 0004:000003b4       __imp__LCMapStringA@24     05a003b4   kernel32:KERNEL32.dll
 0004:000003b8       __imp__WideCharToMultiByte@32 05a003b8   kernel32:KERNEL32.dll
 0004:000003bc       __imp__LCMapStringW@24     05a003bc   kernel32:KERNEL32.dll
 0004:000003c0       __imp__UnhandledExceptionFilter@4 05a003c0   kernel32:KERNEL32.dll
 0004:000003c4       __imp__FreeEnvironmentStringsA@4 05a003c4   kernel32:KERNEL32.dll
 0004:000003c8       __imp__GetEnvironmentStrings@0 05a003c8   kernel32:KERNEL32.dll
 0004:000003cc       __imp__FreeEnvironmentStringsW@4 05a003cc   kernel32:KERNEL32.dll
 0004:000003d0       __imp__GetEnvironmentStringsW@0 05a003d0   kernel32:KERNEL32.dll
 0004:000003d4       __imp__GetCPInfo@8         05a003d4   kernel32:KERNEL32.dll
 0004:000003d8       __imp__GetACP@0            05a003d8   kernel32:KERNEL32.dll
 0004:000003dc       __imp__GetOEMCP@0          05a003dc   kernel32:KERNEL32.dll
 0004:000003e0       __imp__SetConsoleCtrlHandler@8 05a003e0   kernel32:KERNEL32.dll
 0004:000003e4       __imp__FlushFileBuffers@4  05a003e4   kernel32:KERNEL32.dll
 0004:000003e8       __imp__CreateFileA@28      05a003e8   kernel32:KERNEL32.dll
 0004:000003ec       __imp__SetUnhandledExceptionFilter@4 05a003ec   kernel32:KERNEL32.dll
 0004:000003f0       __imp__IsBadCodePtr@4      05a003f0   kernel32:KERNEL32.dll
 0004:000003f4       __imp__GetStringTypeA@20   05a003f4   kernel32:KERNEL32.dll
 0004:000003f8       __imp__GetStringTypeW@16   05a003f8   kernel32:KERNEL32.dll
 0004:000003fc       __imp__IsValidLocale@8     05a003fc   kernel32:KERNEL32.dll
 0004:00000400       __imp__IsValidCodePage@4   05a00400   kernel32:KERNEL32.dll
 0004:00000404       __imp__GetUserDefaultLCID@0 05a00404   kernel32:KERNEL32.dll
 0004:00000408       __imp__SetEndOfFile@4      05a00408   kernel32:KERNEL32.dll
 0004:0000040c       \177KERNEL32_NULL_THUNK_DATA 05a0040c   kernel32:KERNEL32.dll
 0004:00000410       __imp__wsprintfA           05a00410   user32:USER32.dll
 0004:00000414       __imp__PostQuitMessage@4   05a00414   user32:USER32.dll
 0004:00000418       __imp__DefWindowProcA@16   05a00418   user32:USER32.dll
 0004:0000041c       __imp__LoadIconA@8         05a0041c   user32:USER32.dll
 0004:00000420       __imp__LoadCursorA@8       05a00420   user32:USER32.dll
 0004:00000424       __imp__RegisterClassA@4    05a00424   user32:USER32.dll
 0004:00000428       __imp__SetCursorPos@8      05a00428   user32:USER32.dll
 0004:0000042c       __imp__DispatchMessageA@4  05a0042c   user32:USER32.dll
 0004:00000430       __imp__TranslateMessage@4  05a00430   user32:USER32.dll
 0004:00000434       __imp__PeekMessageA@20     05a00434   user32:USER32.dll
 0004:00000438       __imp__MessageBoxA@16      05a00438   user32:USER32.dll
 0004:0000043c       __imp__ShowWindow@8        05a0043c   user32:USER32.dll
 0004:00000440       __imp__CreateWindowExA@48  05a00440   user32:USER32.dll
 0004:00000444       __imp__GetSystemMetrics@4  05a00444   user32:USER32.dll
 0004:00000448       __imp__ValidateRect@8      05a00448   user32:USER32.dll
 0004:0000044c       __imp__ShowCursor@4        05a0044c   user32:USER32.dll
 0004:00000450       __imp__SetFocus@4          05a00450   user32:USER32.dll
 0004:00000454       __imp__UpdateWindow@4      05a00454   user32:USER32.dll
 0004:00000458       __imp__GetClientRect@8     05a00458   user32:USER32.dll
 0004:0000045c       __imp__ClientToScreen@8    05a0045c   user32:USER32.dll
 0004:00000460       \177USER32_NULL_THUNK_DATA 05a00460   user32:USER32.dll
 0004:00000464       __imp__timeGetDevCaps@8    05a00464   winmm:WINMM.dll
 0004:00000468       __imp__timeBeginPeriod@4   05a00468   winmm:WINMM.dll
 0004:0000046c       __imp__timeSetEvent@20     05a0046c   winmm:WINMM.dll
 0004:00000470       __imp__joyGetNumDevs@0     05a00470   winmm:WINMM.dll
 0004:00000474       __imp__auxGetNumDevs@0     05a00474   winmm:WINMM.dll
 0004:00000478       __imp__mciSendStringA@16   05a00478   winmm:WINMM.dll
 0004:0000047c       __imp__timeEndPeriod@4     05a0047c   winmm:WINMM.dll
 0004:00000480       __imp__timeKillEvent@4     05a00480   winmm:WINMM.dll
 0004:00000484       __imp__auxGetDevCapsA@12   05a00484   winmm:WINMM.dll
 0004:00000488       __imp__auxSetVolume@8      05a00488   winmm:WINMM.dll
 0004:0000048c       \177WINMM_NULL_THUNK_DATA  05a0048c   winmm:WINMM.dll

 entry point at        0001:0006b9f0

 Static symbols

 0001:00064b90       _$E9                       00465b90 f talisman.obj
 0001:00064ba5       _$E8                       00465ba5 f talisman.obj
 0001:00064bbf       _$E12                      00465bbf f talisman.obj
 0001:00064bd4       _$E11                      00465bd4 f talisman.obj
 0001:00060967       ?MainWndProc@@YGJPAXIIJ@Z  00461967 f Mainwnd.obj
 0001:0005ee90       _$E9                       0045fe90 f imagery.obj
 0001:0005eea5       _$E8                       0045fea5 f imagery.obj
 0001:00051380       _$E11                      00452380 f editor.obj
 0001:0005139a       _$E8                       0045239a f editor.obj
 0001:000513b4       _$E10                      004523b4 f editor.obj
 0001:000513d1       _$E9                       004523d1 f editor.obj
 0001:000513eb       _$E16                      004523eb f editor.obj
 0001:00051405       _$E13                      00452405 f editor.obj
 0001:0005141f       _$E15                      0045241f f editor.obj
 0001:0005143c       _$E14                      0045243c f editor.obj
 0001:00051456       _$E21                      00452456 f editor.obj
 0001:00051470       _$E18                      00452470 f editor.obj
 0001:0005148a       _$E20                      0045248a f editor.obj
 0001:000514a7       _$E19                      004524a7 f editor.obj
 0001:000514c1       _$E24                      004524c1 f editor.obj
 0001:000514d6       _$E23                      004524d6 f editor.obj
 0001:000514f0       _$E27                      004524f0 f editor.obj
 0001:00051505       _$E26                      00452505 f editor.obj
 0001:0005151f       _$E30                      0045251f f editor.obj
 0001:00051534       _$E29                      00452534 f editor.obj
 0001:000593a6       _$E33                      0045a3a6 f editor.obj
 0001:000593bb       _$E32                      0045a3bb f editor.obj
 0001:0004ef40       _$E9                       0044ff40 f holeinst.obj
 0001:0004ef55       _$E8                       0044ff55 f holeinst.obj
 0001:0004ef6f       _$E12                      0044ff6f f holeinst.obj
 0001:0004ef84       _$E11                      0044ff84 f holeinst.obj
 0001:0003f0a0       _$E9                       004400a0 f food.obj
 0001:0003f0b5       _$E8                       004400b5 f food.obj
 0001:0003f0cf       _$E12                      004400cf f food.obj
 0001:0003f0e4       _$E11                      004400e4 f food.obj
 0001:0003cbc0       _$E9                       0043dbc0 f multiimage.obj
 0001:0003cbd5       _$E8                       0043dbd5 f multiimage.obj
 0001:0003b370       _$E9                       0043c370 f money.obj
 0001:0003b385       _$E8                       0043c385 f money.obj
 0001:0003b39f       _$E12                      0043c39f f money.obj
 0001:0003b3b4       _$E11                      0043c3b4 f money.obj
 0001:0002f460       _$E2                       00430460 f dls.obj
 0001:0002f475       _$E1                       00430475 f dls.obj
 0001:0002f48f       _$E5                       0043048f f dls.obj
 0001:0002f4a4       _$E4                       004304a4 f dls.obj
 0001:0002f4be       _$E8                       004304be f dls.obj
 0001:0002f4d3       _$E7                       004304d3 f dls.obj
 0001:0002e3e0       _$E9                       0042f3e0 f ammo.obj
 0001:0002e3f5       _$E8                       0042f3f5 f ammo.obj
 0001:0002e40f       _$E12                      0042f40f f ammo.obj
 0001:0002e424       _$E11                      0042f424 f ammo.obj
 0001:0002c6a0       _$E2                       0042d6a0 f parse.obj
 0001:0002c6b5       _$E1                       0042d6b5 f parse.obj
 0001:0002aa30       _$E9                       0042ba30 f exit.obj
 0001:0002aa45       _$E8                       0042ba45 f exit.obj
 0001:0002aa5f       _$E12                      0042ba5f f exit.obj
 0001:0002aa74       _$E11                      0042ba74 f exit.obj
 0001:00026710       _$E2                       00427710 f colortable.obj
 0001:00026725       _$E1                       00427725 f colortable.obj
 0001:00022c70       _$E9                       00423c70 f lightsource.obj
 0001:00022c85       _$E8                       00423c85 f lightsource.obj
 0001:00022c9f       _$E12                      00423c9f f lightsource.obj
 0001:00022cb4       _$E11                      00423cb4 f lightsource.obj
 0001:0001fb40       _$E9                       00420b40 f character.obj
 0001:0001fb55       _$E8                       00420b55 f character.obj
 0001:0001fb6f       _$E12                      00420b6f f character.obj
 0001:0001fb84       _$E11                      00420b84 f character.obj
 0001:000157f0       _$E9                       004167f0 f animimage.obj
 0001:00015805       _$E8                       00416805 f animimage.obj
 0001:00015470       _$E9                       00416470 f shadow.obj
 0001:00015485       _$E8                       00416485 f shadow.obj
 0001:0001549f       _$E12                      0041649f f shadow.obj
 0001:000154b4       _$E11                      004164b4 f shadow.obj
 0001:00014ff0       _$E9                       00415ff0 f container.obj
 0001:00015005       _$E8                       00416005 f container.obj
 0001:0001501f       _$E12                      0041601f f container.obj
 0001:00015034       _$E11                      00416034 f container.obj
 0001:00013d80       _$E9                       00414d80 f lightninginst.obj
 0001:00013d95       _$E8                       00414d95 f lightninginst.obj
 0001:00013daf       _$E12                      00414daf f lightninginst.obj
 0001:00013dc4       _$E11                      00414dc4 f lightninginst.obj
 0001:0000fb60       _$E9                       00410b60 f 3dimage.obj
 0001:0000fb75       _$E8                       00410b75 f 3dimage.obj
 0001:000123f0       _$E12                      004133f0 f 3dimage.obj
 0001:00012405       _$E11                      00413405 f 3dimage.obj
 0001:0000c6d0       _$E9                       0040d6d0 f armor.obj
 0001:0000c6e5       _$E8                       0040d6e5 f armor.obj
 0001:0000c6ff       _$E12                      0040d6ff f armor.obj
 0001:0000c714       _$E11                      0040d714 f armor.obj
 0001:0000c350       _$E9                       0040d350 f rangedweapon.obj
 0001:0000c365       _$E8                       0040d365 f rangedweapon.obj
 0001:0000c37f       _$E12                      0040d37f f rangedweapon.obj
 0001:0000c394       _$E11                      0040d394 f rangedweapon.obj
 0001:0000bb80       _$E9                       0040cb80 f helper.obj
 0001:0000bb95       _$E8                       0040cb95 f helper.obj
 0001:0000bbaf       _$E12                      0040cbaf f helper.obj
 0001:0000bbc4       _$E11                      0040cbc4 f helper.obj
 0001:0000a4d0       _$E12                      0040b4d0 f exlmain.obj
 0001:0000a4ea       _$E9                       0040b4ea f exlmain.obj
 0001:0000a504       _$E11                      0040b504 f exlmain.obj
 0001:0000a521       _$E10                      0040b521 f exlmain.obj
 0001:0000a53b       _$E17                      0040b53b f exlmain.obj
 0001:0000a555       _$E14                      0040b555 f exlmain.obj
 0001:0000a56f       _$E16                      0040b56f f exlmain.obj
 0001:0000a58c       _$E15                      0040b58c f exlmain.obj
 0001:0000a5a6       _$E22                      0040b5a6 f exlmain.obj
 0001:0000a5c0       _$E19                      0040b5c0 f exlmain.obj
 0001:0000a5da       _$E21                      0040b5da f exlmain.obj
 0001:0000a5f7       _$E20                      0040b5f7 f exlmain.obj
 0001:0000a611       _$E27                      0040b611 f exlmain.obj
 0001:0000a62b       _$E24                      0040b62b f exlmain.obj
 0001:0000a645       _$E26                      0040b645 f exlmain.obj
 0001:0000a662       _$E25                      0040b662 f exlmain.obj
 0001:0000a67c       _$E32                      0040b67c f exlmain.obj
 0001:0000a696       _$E29                      0040b696 f exlmain.obj
 0001:0000a6b0       _$E31                      0040b6b0 f exlmain.obj
 0001:0000a6cd       _$E30                      0040b6cd f exlmain.obj
 0001:0000a6e7       _$E37                      0040b6e7 f exlmain.obj
 0001:0000a701       _$E34                      0040b701 f exlmain.obj
 0001:0000a71b       _$E36                      0040b71b f exlmain.obj
 0001:0000a738       _$E35                      0040b738 f exlmain.obj
 0001:0000a752       _$E40                      0040b752 f exlmain.obj
 0001:0000a767       _$E39                      0040b767 f exlmain.obj
 0001:0000a781       _$E43                      0040b781 f exlmain.obj
 0001:0000a796       _$E42                      0040b796 f exlmain.obj
 0001:0000a7b0       _$E46                      0040b7b0 f exlmain.obj
 0001:0000a7c5       _$E45                      0040b7c5 f exlmain.obj
 0001:0000a7df       _$E51                      0040b7df f exlmain.obj
 0001:0000a7f9       _$E48                      0040b7f9 f exlmain.obj
 0001:0000a813       _$E50                      0040b813 f exlmain.obj
 0001:0000a830       _$E49                      0040b830 f exlmain.obj
 0001:0000a84a       _$E54                      0040b84a f exlmain.obj
 0001:0000a85f       _$E53                      0040b85f f exlmain.obj
 0001:0000a879       _$E59                      0040b879 f exlmain.obj
 0001:0000a893       _$E56                      0040b893 f exlmain.obj
 0001:0000a8ad       _$E58                      0040b8ad f exlmain.obj
 0001:0000a8ca       _$E57                      0040b8ca f exlmain.obj
 0001:0000a8e4       _$E64                      0040b8e4 f exlmain.obj
 0001:0000a8fe       _$E61                      0040b8fe f exlmain.obj
 0001:0000a918       _$E63                      0040b918 f exlmain.obj
 0001:0000a935       _$E62                      0040b935 f exlmain.obj
 0001:0000a94f       _$E69                      0040b94f f exlmain.obj
 0001:0000a969       _$E66                      0040b969 f exlmain.obj
 0001:0000a983       _$E68                      0040b983 f exlmain.obj
 0001:0000a9a0       _$E67                      0040b9a0 f exlmain.obj
 0001:0000a9ba       _$E74                      0040b9ba f exlmain.obj
 0001:0000a9d4       _$E71                      0040b9d4 f exlmain.obj
 0001:0000a9ee       _$E73                      0040b9ee f exlmain.obj
 0001:0000aa0b       _$E72                      0040ba0b f exlmain.obj
 0001:0000aa25       _$E79                      0040ba25 f exlmain.obj
 0001:0000aa3f       _$E76                      0040ba3f f exlmain.obj
 0001:0000aa59       _$E78                      0040ba59 f exlmain.obj
 0001:0000aa76       _$E77                      0040ba76 f exlmain.obj
 0001:0000aa90       _$E84                      0040ba90 f exlmain.obj
 0001:0000aaaa       _$E81                      0040baaa f exlmain.obj
 0001:0000aac4       _$E83                      0040bac4 f exlmain.obj
 0001:0000aae1       _$E82                      0040bae1 f exlmain.obj
 0001:0000aafb       _$E87                      0040bafb f exlmain.obj
 0001:0000ab10       _$E86                      0040bb10 f exlmain.obj
 0001:0000ab2a       _$E92                      0040bb2a f exlmain.obj
 0001:0000ab44       _$E89                      0040bb44 f exlmain.obj
 0001:0000ab5e       _$E91                      0040bb5e f exlmain.obj
 0001:0000ab7b       _$E90                      0040bb7b f exlmain.obj
 0001:0000ab95       _$E97                      0040bb95 f exlmain.obj
 0001:0000abaf       _$E94                      0040bbaf f exlmain.obj
 0001:0000abc9       _$E96                      0040bbc9 f exlmain.obj
 0001:0000abe6       _$E95                      0040bbe6 f exlmain.obj
 0001:0000ac00       _$E102                     0040bc00 f exlmain.obj
 0001:0000ac1a       _$E99                      0040bc1a f exlmain.obj
 0001:0000ac34       _$E101                     0040bc34 f exlmain.obj
 0001:0000ac51       _$E100                     0040bc51 f exlmain.obj
 0001:0000a150       _$E9                       0040b150 f tool.obj
 0001:0000a165       _$E8                       0040b165 f tool.obj
 0001:0000a17f       _$E12                      0040b17f f tool.obj
 0001:0000a194       _$E11                      0040b194 f tool.obj
 0001:00009250       _$E9                       0040a250 f multianimimage.obj
 0001:00009265       _$E8                       0040a265 f multianimimage.obj
 0001:00008aa0       _$E9                       00409aa0 f player.obj
 0001:00008ab5       _$E8                       00409ab5 f player.obj
 0001:00008acf       _$E12                      00409acf f player.obj
 0001:00008ae4       _$E11                      00409ae4 f player.obj
 0001:00005ef0       _$E9                       00406ef0 f scroll.obj
 0001:00005f05       _$E8                       00406f05 f scroll.obj
 0001:00005f1f       _$E12                      00406f1f f scroll.obj
 0001:00005f34       _$E11                      00406f34 f scroll.obj
 0001:00005f57       _$E15                      00406f57 f scroll.obj
 0001:00005f6c       _$E14                      00406f6c f scroll.obj
 0001:00004c10       _$E9                       00405c10 f tile.obj
 0001:00004c25       _$E8                       00405c25 f tile.obj
 0001:00004c3f       _$E12                      00405c3f f tile.obj
 0001:00004c54       _$E11                      00405c54 f tile.obj
 0001:00004300       _$E9                       00405300 f weapon.obj
 0001:00004315       _$E8                       00405315 f weapon.obj
 0001:0000432f       _$E12                      0040532f f weapon.obj
 0001:00004344       _$E11                      00405344 f weapon.obj
 0001:00002450       _$E9                       00403450 f 3dscene.obj
 0001:00002465       _$E8                       00403465 f 3dscene.obj
 0001:0000247f       _$E12                      0040347f f 3dscene.obj
 0001:00002494       _$E11                      00403494 f 3dscene.obj
 0001:000024ae       _$E15                      004034ae f 3dscene.obj
 0001:000024c3       _$E14                      004034c3 f 3dscene.obj
 0001:00083120       _findenv                   00484120 f libcmtd:setenv.obj
 0001:000831c0       _copy_environ              004841c0 f libcmtd:setenv.obj
 0001:00082870       _wcsncnt                   00483870 f libcmtd:aw_cmp.obj
 0001:00082d40       _strncnt                   00483d40 f libcmtd:aw_cmp.obj
 0001:000810e0       _wcstoxl                   004820e0 f libcmtd:wcstol.obj
 0001:0007fdb0       __expandtime               00480db0 f libcmtd:strftime.obj
 0001:000803e0       __store_str                004813e0 f libcmtd:strftime.obj
 0001:00080430       __store_num                00481430 f libcmtd:strftime.obj
 0001:000804e0       __store_number             004814e0 f libcmtd:strftime.obj
 0001:00080580       __store_winword            00481580 f libcmtd:strftime.obj
 0001:0007df00       _wcsncnt                   0047ef00 f libcmtd:wcstombs.obj
 0001:0007d8f0       __get_fname                0047e8f0 f libcmtd:fpexcept.obj
 0001:0007bba0       _trans_lang_lang           0047cba0 f libcmtd:getqloc.obj
 0001:0007bc40       _trans_ctry_ctry           0047cc40 f libcmtd:getqloc.obj
 0001:0007bce0       _trans_ctry_lang           0047cce0 f libcmtd:getqloc.obj
 0001:0007bd70       _testSpecialCtry           0047cd70 f libcmtd:getqloc.obj
 0001:0007bdc0       _match_ctry_lang           0047cdc0 f libcmtd:getqloc.obj
 0001:0007afe0       __get_lc_lconv             0047bfe0 f libcmtd:initmon.obj
 0001:0007b1c0       _fix_grouping              0047c1c0 f libcmtd:initmon.obj
 0001:0007b250       __free_lc_lconv            0047c250 f libcmtd:initmon.obj
 0001:0007ae10       _fix_grouping              0047be10 f libcmtd:initnum.obj
 0001:0007a1f0       __get_lc_time              0047b1f0 f libcmtd:inittime.obj
 0001:0007a6a0       __free_lc_time             0047b6a0 f libcmtd:inittime.obj
 0001:0007a9c0       _storeTimeFmt              0047b9c0 f libcmtd:inittime.obj
 0001:00078910       __tzset_lk                 00479910 f libcmtd:tzset.obj
 0001:00078ce0       __isindst_lk               00479ce0 f libcmtd:tzset.obj
 0001:00079050       _cvtdate                   0047a050 f libcmtd:tzset.obj
 0001:00077dc0       _$E2                       00478dc0 f libcmtd:unhandld.obj
 0001:00077de0       _$E1                       00478de0 f libcmtd:unhandld.obj
 0001:00076d60       __abstract_cw              00477d60 f libcmtd:ieee87.obj
 0001:00076eb0       __hw_cw                    00477eb0 f libcmtd:ieee87.obj
 0001:00077080       __abstract_sw              00478080 f libcmtd:ieee87.obj
 0001:00075c40       _ctrlevent_capture@4       00476c40 f libcmtd:winsig.obj
 0001:00075f80       _siglookup                 00476f80 f libcmtd:winsig.obj
 0001:00075510       _xtoa                      00476510 f libcmtd:xtoa.obj
 0001:000756d0       _x64toa@20                 004766d0 f libcmtd:xtoa.obj
 0001:00074e30       _getSystemCP               00475e30 f libcmtd:mbctype.obj
 0001:00074ec0       _CPtoLCID                  00475ec0 f libcmtd:mbctype.obj
 0001:00074f60       _setSBCS                   00475f60 f libcmtd:mbctype.obj
 0001:000741d0       _parse_cmdline             004751d0 f libcmtd:stdargv.obj
 0001:00073f50       _x_ismbbtype               00474f50 f libcmtd:ismbbyte.obj
 0001:00073c40       _xcptlookup                00474c40 f libcmtd:winxfltr.obj
 0001:00073630       _wcsncnt                   00474630 f libcmtd:aw_map.obj
 0001:000739c0       _strncnt                   004749c0 f libcmtd:aw_map.obj
 0001:00072bf0       __setlocale_set_cat        00473bf0 f libcmtd:setlocal.obj
 0001:00072da0       __setlocale_get_all        00473da0 f libcmtd:setlocal.obj
 0001:0006f690       ?FindHandler@@YAXPAUEHExceptionRecord@@PAUEHRegistrationNode@@PAU_CONTEXT@@PAXPBU_s_FuncInfo@@EH1@Z 00470690 f libcmtd:frame.obj
 0001:0006f940       ?FindHandlerForForeignException@@YAXPAUEHExceptionRecord@@PAUEHRegistrationNode@@PAU_CONTEXT@@PAXPBU_s_FuncInfo@@HH1@Z 00470940 f libcmtd:frame.obj
 0001:0006fa70       ?GetRangeOfTrysToCheck@@YAPBU_s_TryBlockMapEntry@@PBU_s_FuncInfo@@HHPAI1@Z 00470a70 f libcmtd:frame.obj
 0001:0006fb60       ?TypeMatch@@YAHPBU_s_HandlerType@@PBU_s_CatchableType@@PBU_s_ThrowInfo@@@Z 00470b60 f libcmtd:frame.obj
 0001:0006fd40       ?FrameUnwindFilter@@YAHPAU_EXCEPTION_POINTERS@@@Z 00470d40 f libcmtd:frame.obj
 0001:0006fd90       ?CatchIt@@YAXPAUEHExceptionRecord@@PAUEHRegistrationNode@@PAU_CONTEXT@@PAXPBU_s_FuncInfo@@PBU_s_HandlerType@@PBU_s_CatchableType@@PBU_s_TryBlockMapEntry@@H1@Z 00470d90 f libcmtd:frame.obj
 0001:0006fe70       ?CallCatchBlock@@YAPAXPAUEHExceptionRecord@@PAUEHRegistrationNode@@PAU_CONTEXT@@PBU_s_FuncInfo@@PAXHK@Z 00470e70 f libcmtd:frame.obj
 0001:00070000       ?ExFilterRethrow@@YAHPAU_EXCEPTION_POINTERS@@@Z 00471000 f libcmtd:frame.obj
 0001:00070070       ?BuildCatchObject@@YAXPAUEHExceptionRecord@@PAUEHRegistrationNode@@PBU_s_HandlerType@@PBU_s_CatchableType@@@Z 00471070 f libcmtd:frame.obj
 0001:00070350       ?DestructExceptionObject@@YAXPAUEHExceptionRecord@@E@Z 00471350 f libcmtd:frame.obj
 0001:000703f0       ?AdjustPointer@@YAPAXPAXABUPMD@@@Z 004713f0 f libcmtd:frame.obj
 0001:0006f060       __cftoe2                   00470060 f libcmtd:cvt.obj
 0001:0006f260       __cftof2                   00470260 f libcmtd:cvt.obj
 0001:0006f530       __shift                    00470530 f libcmtd:cvt.obj
 0001:0006e260       _write_char                0046f260 f libcmtd:output.obj
 0001:0006e2e0       _write_multi_char          0046f2e0 f libcmtd:output.obj
 0001:0006e330       _write_string              0046f330 f libcmtd:output.obj
 0001:0006e390       _get_int_arg               0046f390 f libcmtd:output.obj
 0001:0006e3b0       _get_int64_arg             0046f3b0 f libcmtd:output.obj
 0001:0006e3e0       _get_short_arg             0046f3e0 f libcmtd:output.obj
 0001:0006cc20       _flsall                    0046dc20 f libcmtd:fflush.obj
 0001:0006c540       _CrtMessageWindow          0046d540 f libcmtd:dbgrpt.obj
 0001:0006b870       __threadstart@4            0046c870 f libcmtd:thread.obj
 0001:0006abd0       _$$$00001                  0046bbd0 f libcmtd:strchr.obj
 0001:00068b80       _doexit                    00469b80 f libcmtd:crt0dat.obj
 0001:00068cd0       __initterm                 00469cd0 f libcmtd:crt0dat.obj
 0001:00066660       _realloc_help              00467660 f libcmtd:dbgheap.obj
 0001:000673d0       _CheckBytes                004683d0 f libcmtd:dbgheap.obj
 0001:000680a0       __printMemBlockData        004690a0 f libcmtd:dbgheap.obj
 0001:00065e90       ?CatchGuardHandler@@YA?AW4_EXCEPTION_DISPOSITION@@PAUEHExceptionRecord@@PAUCatchGuardRN@@PAX2@Z 00466e90 f libcmtd:trnsctrl.obj
 0001:00065fb0       ?TranslatorGuardHandler@@YA?AW4_EXCEPTION_DISPOSITION@@PAUEHExceptionRecord@@PAUTranslatorGuardRN@@PAX2@Z 00466fb0 f libcmtd:trnsctrl.obj
 0001:00065c00       __unwind_handler           00466c00 f libcmtd:exsup.obj
 0001:00065300       _$$$00001                  00466300 f libcmtd:chkstk.obj
 0001:00084200       _WriteCmpData              00485200 f implode:implode.obj
 0001:00084580       _FindRep                   00485580 f implode:implode.obj
 0001:000848c0       _OutputBits                004858c0 f implode:implode.obj
 0001:00084950       _lmemcpy                   00485950 f implode:implode.obj
 0001:00084990       _lmemset                   00485990 f implode:implode.obj
 0001:00084a00       _FlushBuf                  00485a00 f implode:implode.obj
 0001:00084a80       _SortBuffer                00485a80 f implode:implode.obj
 0001:00083b20       _Expand                    00484b20 f implode:explode.obj
 0001:00083c20       _DecodeLit                 00484c20 f implode:explode.obj
 0001:00083dd0       _DecodeDist                00484dd0 f implode:explode.obj
 0001:00083e50       _WasteBits                 00484e50 f implode:explode.obj
 0001:00083ee0       _GenDecodeTabs             00484ee0 f implode:explode.obj
 0001:00083f20       _GenAscTabs                00484f20 f implode:explode.obj
 0001:00084020       _lmemcpy                   00485020 f implode:explode.obj

FIXUPS: 854d7 13 21 15 21 39f 5f 114 fffff009 9 16 17 16 1c 10 17 9 4a
FIXUPS: 84b70 61 64 33 30 38 27 39 2a 28 30 40 26 20 fffe15ac fffffe00
FIXUPS: 66214 2c 30 12 29 f 27 fffffcba 32 c f 49 23 f f 32 1f12e 13 9
FIXUPS: 85246 93 12 24 18 55 44 2b 36 27 6e fffe1526 a fffffcde 16 c f
FIXUPS: 66734 40 c8 97 70 fffffbc1 16 14 f 4a 43 30 16 61 fffffdd3 16 39
FIXUPS: 664a2 29 ffffff3e ffffff51 2c 1c c 17 13 2aea 32 26 50 3f 35 16
FIXUPS: 6903f 16 f 1a 7d 61 2a 28 45 14 89 2b 26 ffffdd45 a fffffd38 60
FIXUPS: 66dfe 6b 54 9b 97 13 fffffbf2 fffffde3 1af4 29 29 29 29 46 a7 2f
FIXUPS: 686bb 2f 3a 24 4f 31 20 66 53 95 26 92 19 5d 72 14 6c 19 d6 2f
FIXUPS: 68cc1 112 1a b1 ffffeeea 23 70 2e 3e 29 3e 4f 28 c 4d 70 5e 32
FIXUPS: 680ca 2d 26 2a 20 14 c 23 70 5f 1d 56 c 6e 1d af 58 8 fffff1b5
FIXUPS: 6768b 29 1c 20 74 29 34 57 16 23 69 77 27 2c ad 19 5f 71 5e 8d
FIXUPS: 67c2c 1e d 26 20 1c 10 a 24 20 56 1698 bc 74 6b fffffd84 1c 47
FIXUPS: 69396 29 ffffdd18 36 28 27 18 d 28 38 3d 20 72 29 68 61 1f 122
FIXUPS: 67501 1b 39 3f 61 27 1e 2513 20 1d 86 12 17 1a f 37 20 fffffca1
FIXUPS: 69967 30 12 15 45 28 3d 1c fffffe0c 2c 46 36 fffffcc6 18 f bc 54
FIXUPS: 69789 75 fffffbe0 18 22ab 19 13 c fffffaa4 4d 50 50 53 4d 50 53
FIXUPS: 6b3fd 50 4d a6 80 ffffebaf 282 15b bc e7 17c 13e fffff5b1 fffffe95
FIXUPS: 69d1a 20 fffffd9a 12 29 20 2551 fffffdd1 42 11 fffffe20 25 c 70
FIXUPS: 6bd71 fffffbf0 88 82 36 8f 46 fffffd80 18 a 18 ffffff06 18 ffffff03
FIXUPS: 6b762 1f 10 29 21 c fffffe5d 2c 16 f 1117 8b 16 67 32 23 15 4f
FIXUPS: 6c981 26 fffffc69 2c 2d 42 66 fffffd51 3a 7f 27 35 1d 14 19 fffffb75
FIXUPS: 6c15b 17 85 99 fffffc96 25 17 85 d63 6f 17 a 3b a 77 42 5e 42 fffffaf3
FIXUPS: 6ca7a 8 f f 5 10 26 8 5 5 47 b4 c 26 15 35 9 fffffd5c 8 c fffffdb1
FIXUPS: 6d950 30 16 fffff7c3 125 30 1c 34 16 2f 14 32 1c 1b 8a 67 37 61
FIXUPS: 6d56e 11 2d 15 15 19 25 18 1f 19c 1c 19 1d a 910 5f 2f 31 b8 fffffaf0
FIXUPS: 6dde6 2c 2be fffff9b6 11 c f 29 2e 98 68 31 60 35 46 29 f fffffcb4
FIXUPS: 6da36 fffffe7b 11 1f c f 34 c daf 6e 15d 17 28 34 37 a5 f7 14b
FIXUPS: 6ecfb 31 21 2e 1e 134 25 1be 1e 30 71 39 25 26 b6 60 5c ffffef9f
FIXUPS: 6e323 94 aa 33 2047 23 1d 2a 15 fffff833 ffffff44 fffffbfa 17 dd
FIXUPS: 6fc8e fffffb0c 3c 35 30 16 26 20 fffffd9a 11 1f 14 f 2a 15 5f fffffd02
FIXUPS: 6f499 2d fffff0d6 32 22 2c62 13 16 17 2c 14 18 14 a 1f 82 25 ffffe9e3
FIXUPS: 6fddb 1c1 23 43 2f 1a 58 5c 103 29 16 aa 2f 5e 12 3c 33 57 4f 877
FIXUPS: 70d5f 55 1a 12 17 35 1d 60 b b 11 33 1b 25 31 11 47 a 120 16 28
FIXUPS: 71146 1f 16 22 2e 12 20 16 25 d 4a2 1e 1e e fffffd2e 1e fffff10e
FIXUPS: 705c2 a9 56 3e 14 b 11 15 43 45 ac 3a 34 3a d 1d 2b 29 ae 65 8b
FIXUPS: 70bb6 d7 37 15 fb6 14 3d 18 12 fffffde7 5e 37 50 f d fffffe3a 1a
FIXUPS: 71a89 2c 11 fffffd06 3d 5e 133 38 fffffdd5 fffffcf3 31 38 34 95
FIXUPS: 715fd 24 6c 1e 1e c90 14 59 52 5d 2b fffffd6b fffffee4 ffffff24
FIXUPS: 7201b 16 2f 11 36 fffffee4 14 21 a f fffffd7f 1b 4e 14 37 22 3b
FIXUPS: 71e7d 57 14 a f 44 1485 78 3d 12 11 23 37 4d 2a fffff930 4b fffffba3
FIXUPS: 72aa2 1f 14 f 7a 1bf 17 1f 5a 17 fffff75d 11 1f 14 f 158 11 39
FIXUPS: 72a0e fffff856 1db1 1d 1d 11 7a 3b 49 27 58 3d 41 64 29 2e fffff41f
FIXUPS: 7376c ffffff1c 1f 7 10 ffffff59 fffff91c 7e 2a 8b 7d 14 f7 11 121
FIXUPS: 73331 88 60d 39 34 21 57 2c 4d 1b 36 10 21 19 14 47 2a a 4d 1b
FIXUPS: 73cf7 48 37 59 4d 1d 25 3d b6 19 1b 2a 30 1f eb1 20 20 30 fffffde4
FIXUPS: 74d10 11 2f 25 fffffcc5 13 fffff971 ab 88 78 7a e 16 e 119 a6 de
FIXUPS: 74972 e 16 e ffffee66 4b 81 58 4a 1e 2479 1fa fffff674 32 95 26
FIXUPS: 757df 1d 10 15c 52 99 32 fffff6d6 1b 17 22 fffffe4e 25 22 2d 28
FIXUPS: 750b4 12 19 fffffcb0 20 20 23 30 30 30 1885 16 ac fffffba8 38 1c
FIXUPS: 76487 14 fffffbb8 20 83 87 5b 15 19 19 14 13 14 1a 19 fffff82f
FIXUPS: 75ac8 1b 19 7 121 4c 118 53 1c 7 d2e 30 2a 2d 1d 4c 30 4f 24 19
FIXUPS: 76d68 13 8b 1e 25 a b7 ed 20 fffff8e3 2c 45 36 fffffe6f 2c 45 36
FIXUPS: 764d9 1b 11d 34 70 d15 d1 11 13f 12 11 4f c 3a c 45 5d 15 15 c
FIXUPS: 777ac 25 15 c 1a 19 c 6d fffff8b3 1f 34 40 15 1c fffff7f8 4e 15
FIXUPS: 7868c 2d 1a 40 a1 30 79 91 10 30 10 30 10 fffff78b fffffb29 31
FIXUPS: 77c92 22 30 26 c fffffe6e 2c fffffd79 29 17 62 77 fffff820 c8 11
FIXUPS: 773b9 1fe2 8e 13 2c 1b fffffa7b 16 3a 29 f 8 8c fffffdad 25 5d
FIXUPS: 78e70 fffffc12 1c 29 ffffff94 fffff7bc 40 98 18 295 20 1c 13 2c
FIXUPS: 78655 10 13 12ed c6 19 4c 12 15 18 a 1c 17 a 14 2e 64 53 6e 2f
FIXUPS: 79cb8 d c6 52 64 52 28 23 fffff6c4 68 b5 e e 130 67 2179 17 17
FIXUPS: 7ba40 fa ffffecad 191 130 20b 94 1ad 82 13a 13 fffff1dd 12 1d 5
FIXUPS: 7a329 3c 7 2f b2 15 fffff444 15 d 21 8 7 2b 2b 1e2b 11 11 11 11
FIXUPS: 7b7ce 11 11 11 11 11 11 11 11 11 11 11 11 11 11 11 14 14 14 14
FIXUPS: 7b931 14 14 14 14 14 14 fffffaca 1a 1a 1a 1a 1a 1a 1a 1a 1a 1c
FIXUPS: 7b595 1c 1c 1c 1c 1c 1c 1c 1c 13 37 11 11 11 11 11 10 11 11 11
FIXUPS: 7b768 606 43 fffff366 23 14 e 20 10 2c 10 72 1a 1a 1a 1a 1a 17
FIXUPS: 7b2ed 1a 1a 1a 1a 1a 1a 1a 1a 1a 1a 1a 1a 1a 1a c57 1a 1a 1a 1a
FIXUPS: 7c132 1a 1a 1a 1a e5 11 11 11 11 11 11 fffff8a1 18 18 11 1a 10
FIXUPS: 7bc01 4b 13 13 5d 10 10 34 35 fa7 fffff645 23 19 19 19 12b 67 bd
FIXUPS: 7c626 16 e 15 e e e 39 10 fffff7f2 23 14 e 48 10 52 10 5c 1a 1a
FIXUPS: 7c06d 1a 12 1078 1a 23 4f 11 73 1b e 4d 24 c 3d 17 26 fffffc12
FIXUPS: 7cfae 43 1f fffff7f9 48 55 23 28 8a 92 67 1f 95 31 2e 4f a0 1c1f
FIXUPS: 7e8ab fffff33e a a fffffbe0 4b 3e 27 b9 25 9d 3a 49 c 10 c fffff917
FIXUPS: 7d3ef 30 30 16d c 10 c 27 6d fffff9f8 1f 10 f 2b b6c 12 1a 61 12
FIXUPS: 7dcfe 38 2c c 42 16 11 2f 49 c 46 16 11 1a3 21a 1d4 27 27 1bb 104
FIXUPS: 7e788 46 48 c 14 1e c 2a50 1e 18c 3af 27 18e ffffea1a 5e 3e 1f3
FIXUPS: 7f274 de 1f 28 fffffbe3 c d 44 34 1d 34 fffffabb 2d 17 70 49 7f
FIXUPS: 7ecfc 7e 62 a6 4a 1cc4 9 26 9 41 53 7d 8f 73 23 23 23 3e 45 27
FIXUPS: 80f33 28 28 47 29 29 28 2c 1f 27 40 8e 3e 27 31 36 53 fffff4bf
FIXUPS: 8076b 62 15 1a 4c 9 23 9 70 14 39 15 1f 14 1a 16 16 15 35 3b 9
FIXUPS: 80a7e 9 46 9 28 9 2b 9 26 9 194f 24 a 22 fffffbbc 46 164 2c 14
FIXUPS: 8239f 96 fffff9d4 a8 16 107 b6 16 fffff9e5 37 30 36 27 35 18 1f
FIXUPS: 81bf9 70 ffffea54 14 1a 4b 9 24b4 31 29 19 1e 2c 67 19 20 34 cb
FIXUPS: 82e9e 27 15b 1c 2b 47 1c 2b 16 ed fffff8d4 55 ffffff18 fffffd60
FIXUPS: 829a7 1a fffffba0 1f 10 f f9 19f7 c 1d 4d 50 c8 1d 2c a 25 fffff379
FIXUPS: 8362b fc 8d 71 e 16 e 117 1d 127 174 81 6a e fffff800 50 fffffe01
FIXUPS: 83395 18 a9 32 26f7 2c ffffea24 f 52 2e 33 fffffc43 29 19 2d 3b
FIXUPS: 843d0 1c 57 29 2b 32 3d 2b 32 19 14 fffff83a 64 31 4d 4a 42 37
FIXUPS: 83fbe 6a fff7db6a 18 f 48 1c 10 48 d9 1b 36 54 8d 94 54 2c 36 116
FIXUPS: 2125 20 65 a9 b b 83a39 3a 7f 27 35 1d 14 19 fffffe00 fff7b7e5
FIXUPS: 144c b 14 14 b 15 e 66 b 14 14 b 15 e 8d 1c 11 2d 46 4e 2f 16 f2
FIXUPS: 183c 11 62 be 48 4f 7b c7 fffff523 17 18 2c f b b 14 1b 14 2e b
FIXUPS: 117a 95 33 e b 14 14 b 14 b b 14 14 47 15 e 60 e b 15 38fd 52 7
FIXUPS: 4d55 3a 2e 17 1d 27 56 1c2 b0 40 13 1b7 ffffcfef 16 143 259 76
FIXUPS: 2717 143 2a3 71 10 312 66 53 40a ffffdccd 10 18 32f9 3a 1f 187
FIXUPS: 4677 17 16 7 2e 17 16 bd 7 cc 7 92 f9 23 2a 14 e 3d 1e 3d 17 4f
FIXUPS: 4b9c 3d 17 77 7 50 ffffebb0 49 1a 91 1a 9d 4a 50 4a 168 69 4a 2a
FIXUPS: 3e74 a0 5e 2c 39 10 22 e 40 a a 5d 7e 9 3a 11 11 2c 119 1179 2c
FIXUPS: 54a0 365 8d 60 ce 13 5f b 3a 27 2d e 44 2c b ffffd903 1a 15 1a
FIXUPS: 34b5 1a 28 b 23 4c 41 40 5b 15c 76 23f8 1a 15 23 2c 42 23 2d e
FIXUPS: 5d79 33 b 29 13 5f b 3a 27 2d e 44 33 b fffff38c 1a 15 23 2c 42
FIXUPS: 53ea 2d e 2828 33 13 5f b 3a 27 2d e 44 39 b 3d 252 b 145 8 ffffe75d
FIXUPS: 6991 b 72 21 b 2d 459 13 fffff10d 26 313 66 6b 443 d9a 7 15 26
FIXUPS: 7628 f 12 12 7c 1b 14 7 e2 1c 29 30 120 9 2b 9 33 9 2d 50 2d 7e
FIXUPS: 7b67 23 2d e 44 39 fffff62f 46 14 2b 19 14 2b 19 14 2b 11 11 2a
FIXUPS: 741d 11 e a 1e 1b 4b 1e 31 1f c 1a 7 f 7 25 7 f 7 1d50 33 20 13
FIXUPS: 93d2 b 1cc ffffd94e 1a 15 23 15 1a 41 c a 2f 27 c 2a 4d 39 1f 1e
FIXUPS: 715e 31 e 20 1c 1a 1e 31 1c2f 23 1e 16 16 41 a 35 a 17 8 a 1c b7
FIXUPS: 9088 20 2c 9 24 11 c 60 19 9 39 18 3c 1c 1e 4e 1c 20 fffff546 8
FIXUPS: 8874 f 1d 17 30 21 1c 17 18 60 49 12 75 28 9b 65 65 3a 4b 30 32
FIXUPS: 8d0b 14 14 14 21 11 22 a2 1e fffff70d 14 12 a 14 12 10 24 d 7 82
FIXUPS: 86fe 17 13 6 21 17 8 13 25 a a a a a a a a a a a 12 fffffb3f 13
FIXUPS: 838f 12 a d 14 12 a 14 12 a 14 12 a 14 12 a 14 12 a 14 12 a 14
FIXUPS: 84fe a 14 12 a 14 12 1bf9 27 2d e 44 2c b fffff3b1 39 b 23 10f
FIXUPS: 976a 67 49 2e 4e 2e ec 13 5f b ffffe848 39 b 25 17 10 18 12 18
FIXUPS: 8354 1888 13 f 11 23 92 11 2b 11 46 6b 11 9 4a f 11 21 f 3f 42
FIXUPS: 9f1a 2d e 44 2c b 70 13 5f b 55 b d78 2f 8 28 8 28 8 28 2c 13 31
FIXUPS: afcf 21 34 c 24 8 28 2c 13 68 b ffffe971 1a 15 23 1e 12 15 15 36
FIXUPS: 9bbb 1735 30 13 5f b 3a 27 2d e 44 2c b ffffeda3 1a 21 42 23 2d
FIXUPS: a332 47 2c b 54 12d 808 2c b 6b b 2e 7 25 1710 41 5d 62 60 13 5f
FIXUPS: c761 40 60 5d 63 97 3d 30 b 6e 3d 45 3e 72 ffffe5e7 1a 15 23 2c
FIXUPS: b217 23 2d e 44 2c eb5 11 5d a 9 c 16 32 20 8 22 14 1a 14 d 14
FIXUPS: c34b 5 1c 10 5 61 b 31 17 17 e 17 e 54 4d 8 fffff876 4f 27 7 20
FIXUPS: be5a 1c 17 1f 1c 1c 4d 44 42 17 10 11 19 c 16 25 1d 11 10 11 19
FIXUPS: c0c3 20 24 23 23 23 fffff912 15 5 1a 1a 1d 15 1a 15 5 1a 1a 1d
FIXUPS: bb9c 5 1a 1a 1d 15 5 1a 1a 1d 17 f f 3d 1a 1a d 4d 2a fffffa4a
FIXUPS: b7e6 5 1a 1a 1d 15 1a 15 5 1a 1a 1d 15 5 1a 1a 1d 15 5 1a 1a 1d
FIXUPS: b9c1 5 1a 1a 1d 15 5 1a 1a fffffaab 1d 15 5 1a 1a 1d 15 5 1a 1a
FIXUPS: b603 15 5 1a 1a 1d 15 5 1a 1a 1d 15 5 1a 1a 1d 15 1a 15 1a 15 17e5
FIXUPS: cfc2 59 29 49 13 fffffae7 1a 15 23 2c 42 23 2d e 44 33 b 29 13
FIXUPS: cdc2 b 3a 27 2d e 44 33 b ffffe5ec 5 1a 2461 27 2d e 44 2c b fffff923
FIXUPS: d371 15 23 2c 42 23 2d e 44 2c b 30 13 5f b 3a 27 2d e 44 2c b
FIXUPS: cf18 76 ef4 23 43 b3 b 2a 13 59 30 32 40 fffff983 22 32 21 2d fffffbd4
FIXUPS: d6f1 15 23 2c 42 23 2d e 44 2c b 30 13 5f b 13e9 50 115 94 7f 1d
FIXUPS: efa6 b 20 af 13 ffffeb36 1b 11 33 49 b 28 4a f 30 6e c c 19 c c
FIXUPS: de39 c c 19 c 2512 16 e 61 f 23 39 e 2a 13 2d 22d 28 ffffd9e0 36
FIXUPS: e166 e1 17 117 34 19 91 1e b 70 32 3d7 10 180 cb d2 84 12d2 6 a
FIXUPS: ffab 1c e b 17 e 25 13 e 15 4a 15 44 d 4a 2e 27 9 10 19 2e 15 c
FIXUPS: 1025c 4e 1d 3c 20 1f fffff924 b 12 b 8 18 1e 19 14 1d 8 19 1d d
FIXUPS: fd6f b 11 24 29 1e 3c 38 20 1c 1a 31 17 2c f b b b fffff999 e 14
FIXUPS: f933 43 b e3 d 47 d 38 30 19 8 11 b b 6 11 14 19 8 11 b b 6 11
FIXUPS: fc0c 1e 12 10 f fffff841 b 1d 2f 18 f 12 b b 2e 29 c 35 e 17 2f
FIXUPS: f658 1b 1c b b 14 1b 9d b 2e 1c 78 b 39 52 1e f9c ffffe83d c 25
FIXUPS: f104 1b b 15 11 18 14 125 6a 8 11 b 12 23 10 8 11 b 11 b b 15 8
FIXUPS: f3e8 c 6c 23 8 4d87 45 23 2d e 4d 45 23 2d e ffffc55d 21 1f 10
FIXUPS: 10969 10 17 13 2b a 40 53 17 8 1e a 40 3a 17 8 fffffcfa 31 29e6
FIXUPS: 133f7 1a 37 39 b 4a 1e b 32 9 1c 40 61a 20 19 21 21 45 13 8d 13
FIXUPS: 13d50 b 67 3e 17 99 13 155 52 30 ffffec2a 2f 16 c 13 1a c 13 1a
FIXUPS: 12d87 13 1a 20 2f 49 1bb 15 2e b f a 55 34 24 24 4c 16 1f 15 21
FIXUPS: 13214 38 fffff21b 5f 53 60 6f 60 b7 198 23 2d e 3e 15 61 2d 22
FIXUPS: 12a03 53 1e b 3c 8 f a0 4c 51 e 29 18 12 10 23 ffffeebc 96 54 5a
FIXUPS: 11cf2 2e c 8 8 c c 11 c d 23 23 27 af 2e 7a 113 20 10 49 197 64
FIXUPS: 1230f 4a 21 43 1d 60 ffffea88 2e 4b 17 8f 13 2e 57 4b 142 60 4f
FIXUPS: 112da a 36e 7e 22 11d 2d 4a 18 c 11 13 3c 7c 1b c 6a 97 8b 13 4349
FIXUPS: 15ed7 23 2d e 42 27 2d e ffffe4b7 25 2f6 66 6a 40a ffffbee2 1a
FIXUPS: 10bb8 3c 18 2c b 4a 1e b 4f 8e 1f 3e 3e 3f 3e 4842 11 20 f 1f 9
FIXUPS: 1576a 8 a7 19 14 11 c7 e 39 e 3b e 3c e 3a 13 92 61 8d b e 11 23
FIXUPS: 15c33 15f 60 fffff23d 21 1c b 60 b a3 21 61 11 2e 10 13 13 28 45
FIXUPS: 15389 d4 f 27 55 45 c 10 25 f 8 d c7 30 12 3b c1c b 3a 27 2d e
FIXUPS: 163dd 2c b ffffe973 1a 15 23 53 15 11 1c b 38 15 11 18 1c b 3e
FIXUPS: 14f69 11 28 b 3e 15 11 15c8 2c b 30 13 5f b 3a 27 2d e 44 2c b
FIXUPS: 15ff7 1a 15 23 28 3a 2d b 52 42 23 2d e 44 2c b 30 13 e1e 2d e
FIXUPS: 1712a 2c b 29 8f 3b 28 8 f d 71 5b b 29 13 4f 42 23 2d e ffffefd5
FIXUPS: 16491 15 23 2c 42 23 2d e 36a 30 5a 1c 1c 20 4f 19 38 c 69 18 83
FIXUPS: 16bb1 3d c 6c 5f 20 99 c f 6b 79 14 14 55 54 20 5e 20 a2 920b b
FIXUPS: 205a0 13 37 94 28 50 6f 1c 1c b 3d 20 26 b 2c 7 49 7 39 7 39 7
FIXUPS: 20972 7 e4 ffff5d9a 1a 1e 68 4f 8d04 21 3d 21 b 72 8 3e 1d 2e 69
FIXUPS: 1f7fd 2e 5c 1b 20 1e 40 76 5c 12 8c 9 15 50 6 6e 47e 1d0 13 82
FIXUPS: 2027d ffffeee0 8 13 c 2f 17 c 68 9 f 8 10 1a 13 9 10 13 9 184 c
FIXUPS: 1f48d 13 9 16 13 9 35 11 35 e d 43 fffff87f 52 13 9 10 13 9 15
FIXUPS: 1ef3d 13 9 10 13 9 15 a 4b 10 1d 9 1a 5a 13 9 10 19 9 15 1b 9 d
FIXUPS: 1f136 fffff9be 16 11 17 1c 11 14 37 f a 12 1c e 1f e 1f e 14 1d
FIXUPS: 1ecc9 c 1f 8 47 30 c 17 34 1b 27 8 13 fffff51b a2 47 1c cb 108
FIXUPS: 1e722 3d 4c 1f 70 17 e e fa 1d 14 c c 1b 11 1a 29 11 f 8 1a 11
FIXUPS: 1ea81 28 1e 1e fffff3c1 20 55 12 19 28 20 13 20 9 39 30 8 4f 4a
FIXUPS: 1e0e4 12 99 18 19 14 a 12 19 28 1c 8 10 9 28 1c 10 fffff64a c 10
FIXUPS: 1d93b 30 1d 23 56 76 c ce 8 2b 3e a1 1b 19 17 87 c 28 9 f 8 10
FIXUPS: 1ddb3 13 36 1b 1a 1d 2c fffff659 11 9 65 20 17 17 9 71 1f c 28
FIXUPS: 1d676 f 8 10 1a 1b 74 6a b 73 c 28 9 f 8 10 1a 13 28 19 fffff7a0
FIXUPS: 1d0bd 8 2f 12 8 8 2c 16 16 19 32 c a6 5c 1f c 28 9 f 8 10 1a 13
FIXUPS: 1d3ad 1b 3a 87 9 f 8 10 fffff2cf 2d 8 a 11 d 17 23 11 e e a 29
FIXUPS: 1c890 8 d 10 1cc 9 9c 54 44 9 b3 9 e4 9 1d9 9 9e 4d 49 ffffebe7
FIXUPS: 1bda5 152 149 1d0 fc 5f 20 93 4a 53 77 2b 8 12 34 2c 13 3e 4f 23
FIXUPS: 1c6ba 8 8 11 1b 14 10 17 f 2e 13 ffffee52 7d 9 f 8 10 39 1a 36
FIXUPS: 1b724 1e 1e c 10a a1 47 87 9 f 8 10 1e 3c 9 f 8 10 1e 9 2a 75 90
FIXUPS: 1ad09 3a c b4 86 1f c 28 9 f 8 10 2d 1b 4a d 2e 116 35 1a 36 1b
FIXUPS: 1b1ad 25 15 26 94 120 c 171 23 48 ffffee9e b 1b 8 12 34 a7 15 1f
FIXUPS: 1a5af 11d 16 16 14 c 2b c 37 152 181 9 f 8 10 1f 1a f5 b d eb b
FIXUPS: 1acd2 ffffef91 15 10 9 51 13 12 d b 12 1c 10 f 15 9b 34e 9 f 8
FIXUPS: 1a19a 1a b 55 c db 15 12 12 e 8 79 3f fffff389 15 c c 40 d 24 18
FIXUPS: 19870 29 1d 12 24 26 23 f 19 4e c bd 28 1f d 25 c 8 16 9 c f2 c
FIXUPS: 19c33 fffff7d6 1d f 9 15 10 6b 8 c 24 b 8 c a 37 2c c a 12 19 26
FIXUPS: 19605 c 48 8 f 40 f 43 8 36 b fffff7b0 1e 15 e b 12 b b 12 4c 32
FIXUPS: 1900b 25 24 13 12 14 2f 17 47 2c b 12 4c 1c 17 6e 44 2a 46 40 a3
FIXUPS: 1881e a4 2a 67 1c 3b 4d 12 36 b b3 1a e 4d 97 7f 22 34 b 12 4c
FIXUPS: 18d5c 5b 8 57 b 4a 28 12 b b 2a fffff2e7 1f 1f 22 22 1d 10a 13
FIXUPS: 1838f 13 7 b 5c 13 7 13 7 b 2a 25 f d8 8 8 62 14 d4 32 b9 12 15
FIXUPS: 187fd fffff519 a 5 a 3e 3f 31 31 31 a3 f 9 15 c 34 13 1c 13 3a
FIXUPS: 17fea 43 66 23 21 21 a 17 12 1f 22 1f 22 b191 2d e ffff4385 25
FIXUPS: 1774c 29 29 25 29 25 29 3f 29 3f 45 2b 24 36 a 4d 7a 1a 21 11 13
FIXUPS: 17ae8 d d d d e abc9 a5 d 1a 13 b 11 22 c9 e9 148 71 65 19 c3 d
FIXUPS: 22cd9 127 d4 73 70 3c 1a 1b3 13 30 32 42 23 2d e 42 ffffe4eb 1bd
FIXUPS: 219fb 25d 97 5d 3a 45 4d 5b c f 1c 10 b2 c f f5 75 39 28 5c 6f
FIXUPS: 222fa d2 1c9 e2 d 1a 13 f 11 ffffe8f1 4c 12 1b 12 10 13 13 11 4a
FIXUPS: 21123 5b 1d 16 24 30 15 15 15 15 15 20c 9a 2c 12 86 19 19 ca d
FIXUPS: 217b2 32 230b f 1f 13 9 4e f e 9 ffffcf9a 1a 15 23 79 1e 11 1c
FIXUPS: 20c68 42 1e 11 1c b 3c 64 46 4a 38 8 94 18 65 2817 a b 9 7 2d 1d
FIXUPS: 23830 f 2d f 21 2b 11 9 6 1c 2c c 8 d 1d 18 1b 1b 54 16 29 46 20
FIXUPS: 23abd 19 475 e 44 2c b fffff3dc 31 12 1f b 9 52 b 49 89 36 10 33
FIXUPS: 235e8 59 20 f e 25 b 10 21 b 1a 13 15 15 180e 5b 1f 56 55 194 7f
FIXUPS: 252b8 10 1a4 24 13 ffffeba4 5b fffffbd5 1a 15 23 2c 42 23 2d e
FIXUPS: 23dd9 2c b 30 13 5f b 3a 27 36e0 19 19 19 19 85 11 ffffcb78 11e
FIXUPS: 243aa 1c 1f e 2ee 78 15 4b 1b 2a 1d6 16 20 4f 20 4f 34 4f 2e 3e
FIXUPS: 24bd1 44 220 2386 19 19 19 19 19 19 19 19 19 19 19 19 19 19 19
FIXUPS: 2734b 19 19 19 19 125 11 38 19 19 19 19 19 19 19 19 fffff274 19
FIXUPS: 2688b 19 19 19 19 19 19 19 19 19 19 19 19 19 644 11 38 19 19 19
FIXUPS: 270c1 19 19 19 19 19 19 19 19 19 fffff383 19 19 19 19 19 19 19
FIXUPS: 265ed 19 19 19 19 19 19 19 19 19 19 19 19 19 19 19 19 2d 19 19
FIXUPS: 267f5 19 19 19 fffff9c5 19 19 19 19 19 19 19 19 19 19 19 19 19
FIXUPS: 26363 19 19 19 19 19 19 19 19 19 19 19 19 19 19 19 19 19 fffff578
FIXUPS: 25acb 47 1e 47 a0 29 1d 20 56 2ab 48 4b 19 19 19 19 19 19 19 19
FIXUPS: 260f2 19 19 19 19 19 19 19 19 19 19 2cf9 16 17 15 16 17 17d 7c
FIXUPS: 2918d a 30 ffffc330 1d 25 1d 17 3b 2e 1e 44 64 f 14 4b 33 7c 89
FIXUPS: 25873 e8 aa 29 38 1f7b 94 f6 94 94 f5 94 94 f6 94 94 4c 186 291
FIXUPS: 28585 55 56 5f 54 5a 54 128 265 27 55 e 4c 1a c4 14 36 14 b32 9b
FIXUPS: 299cb 11 11 11 e e e b1 8a b b 41 22 aa 80 59 15 8f 15 19 19 7f
FIXUPS: 29ef6 c 3c c ffffd7cd 3d a4 155 373a 4d b 10 49 43 1a 18 70 63
FIXUPS: 2b2d4 22 28 26 30 9 8f 4c 30 9 ffffdea1 b5 29 2c 2f 32 37 f4 6a
FIXUPS: 2971c 20 14 12fd 10 2e 25 2a 44 21 b b 1f 31 17 b b c 20 41 1a
FIXUPS: 2ac80 2a 21 1d 278 4d 11 11 27 6 46 11 18 16 fffff56c 3c 21 11
FIXUPS: 2a67c 12 11 20 11 20 42 11 13 b 14 17 24 1a 2f 16 1e 58 22 32 b
FIXUPS: 2a8f5 87 27 f 37 f 31 b4f 48 1e b 46 e 1f 32 2d 40 40 39 a2 ae
FIXUPS: 2a444 8 18 b b 11 8 1c b 1b 8 11 b 12 1c d 57 28 16d8 e d 6 13
FIXUPS: 2bcc6 28 12 13 11 11 30 42 23 2d e 44 2c b 30 13 5f b 3a 27 2d
FIXUPS: 2bfc9 44 2c b fffff4d1 58 14eb 21 1e 22 18 1e 16 1a c 1a 1b 16
FIXUPS: 2cb91 28 23 16 1b 16 16 c ffffedf2 1a 15 23 9a 79 1a 8 1f 6 67
FIXUPS: 2bc59 a77 1f 59 1b 16 1b c 16 14 1b c 89 12 17 11 f 1a d 12 1f
FIXUPS: 2c92f 1a 1f 20 20 c 1e 16 1a 20 14 c fffff8a8 1c 15 21 73 1f 14
FIXUPS: 2c451 12 17 11 f 1a d 12 1f 14 1b 1f 20 20 1d 1e 16 f 1c 5f 12
FIXUPS: 2c684 11 f 1a ba2 2e 27 14 16 2e 27 14 16 2e 17f 25 ffffeb7a 13
FIXUPS: 2c0d6 13 11 1c f 14 27 1a 1d 24 25 25 28 f 2d 2a 28 11 2ece 1a
FIXUPS: 2f1c1 11 27 d4 27 14 f 22 3d ffffe1ff 2c b 5e b 5b 13 fffff661
FIXUPS: 2cda1 e6 1b9 60 14 79 2e 29 34 29 2e 27 14 1a6c 11 18 5 b 1f4 11
FIXUPS: 2ef05 4d 10 a 10 a b 6 21 10 4d 10 a 10 a b 6 21 11 74 2c 20 22
FIXUPS: 2f17f 11 fffff5d9 11 12 1b 29 20 22 11 11 a 8d 1e 58 4b 11 26 10
FIXUPS: 2e9f9 10 184 1c 1e 4a 11 11 18 b 17 b 11 14 8 fffff325 16f 98 100
FIXUPS: 2e2fb 7e 67 26 15 1e 22 3d d 38 55 11 8e 2d 37 11 14 b 8 15 b 1e
FIXUPS: 2e6bc 15 b 8 15 b 1af3 23 2d e 44 2c b 47 27 2d e 44 2c b 51 ffffd262
FIXUPS: 2d6c1 20 22 5b 8d 6b 1e 3f5 a4 ea 16 58 16 63 8e 39 17e9 1f 49
FIXUPS: 2f800 1f 37 b 1f 37 33 11 24 12 5c 33 78 cb 74 33 37 19 6 7e cb
FIXUPS: 2fe04 bf 13 17 e9 19a 13 32 90e1 e 1c 30 50 2c3 9b e b b b b 38
FIXUPS: 39760 ffff5c87 1a 15 23 139 3b ac a 19 2f 21 b 26 a a 42 27 a 23ce
FIXUPS: 31ba6 71 a9 10f4 6a 10e 50 49 fa0 10e 50 49 f48 6a 10e 50 49 f80
FIXUPS: 362f3 50 49 f28 6a 10e 50 49 e20 10e 50 49 dda d2c 7 8 a 8d 18
FIXUPS: 3a080 1f 22 143 51 29 a 3c 19 ffff618a 2f 2f 86 16 d1 e 1c 3b 54
FIXUPS: 3075c a9 1201 16 d1 e 1c 8193 1b 10 10 7 11 d b b f 17 7 11 a 10
FIXUPS: 39d7f 10 b 11 16 13 2b 10 49 47 37 84 7 a 7 f 7 22e5 17 41 24 26
FIXUPS: 3c31a ffffd5e4 1c 1e 16 11 1d 16 11 1d 10 19 98 2c 1c 17 4c 57
FIXUPS: 39bc8 23 12 b b 1a 1c 1f 2b 1f44 21 21 26 21 26 21 21 26 21 26
FIXUPS: 3bd56 26 26 21 21 26 21 26 21 26 26 21 26 26 192 b 9f b 2e 13 4d
FIXUPS: 3afa0 27 38 25 d d d e 128 1a 135 68 18 c 6d 14 37 f6 14 4f 14
FIXUPS: 3b739 6f 8e e 2a2 21 21 21 26 21 21 ffffe984 32 36 5c e8 8a 89
FIXUPS: 3a868 11 36 38 8 16 10 10 e 6a 5 5e 1e b 81 293 d4 22 1b 49 27
FIXUPS: 3aef2 27 34 2b 1e5a 13 17 b6 25 a9 13 32 42 23 2d e 44 39 b 4a
FIXUPS: 3d15e 2d e 44 2c b ffffd171 56 b 3b 5 11 10 57 50 11 21b1 25 27
FIXUPS: 3c706 a 1f 49 a 1f 29 25 b 1f 29 25 33 11 24 12 5c 33 55 cb 74
FIXUPS: 3cb37 15 19 6 5b cb 88 25 11f6 e 47 2c b 1f0 13 68 b fffff0a9 16
FIXUPS: 3d41f 145 149 47f 49 2e ffffe7d4 1a 15 23 139 3b 85 c 19 2f 21
FIXUPS: 3c642 26 a a 2d17 93 2db 29 8a 8b 26 17e 3c 21 13 ffffe174 1a 3b
FIXUPS: 3dc5c 55 2a b 19 23 3d 23 3e d e 25 c 11 d 78 42 23 e53 7 14 8c
FIXUPS: 3ee53 18 17 30 23 88 52 18 17 30 23 88 56 18 17 30 23 95 f 15 2c
FIXUPS: 3f292 2c 25 46 18 1c 7 fffff491 30 23 7e 73 18 17 30 23 84 36 e
FIXUPS: 3eab4 18 17 30 26 7 17 7 1c 7 35 8c 36 e 31 18 17 30 26 7 1124
FIXUPS: 3fe84 19 14 1d 17 36 b8 55 ffffe23b 59 18 99 6e f 8 10 11 3c 10
FIXUPS: 3e47a 2d 12 2a 134 66 18 17 2b 80 6f 18 1987 42 23 2d e 44 2c b
FIXUPS: 402b0 13 5f b 3a 27 2d e 44 2c b fffff8da 1c 1c 1c 1e a 25 14 1d
FIXUPS: 3fe09 14 1d 19 a3b 9 10 29 33 1b fffffb6b 1b 11 33 4c b 28 35 f
FIXUPS: 405df 7c c c 41 66 c c 8d b 26 13 fffff8a4 1a 15 23 1e c322 3ee
FIXUPS: 4c89b 5b 103 d7 62 62 119 62 62 135 77 74 9c d5 13 89 23 17 6f
FIXUPS: 4d25c 73 116 24 40 38 37 37 b6 b ffff32c5 86c7 50 2ad 1e 50 28d
FIXUPS: 4954e 5d 243 35a 50 299 2ef 2bb 1f3 2f5 50 2f3 34e 313 251 2cc
FIXUPS: 4b85e 13 e3 27c 8f 55 1d1 3cd 67 9c ffffa55e 28e 50 279 50 2fc
FIXUPS: 47415 252 27d 31e 1e 50 18e 1a 50 1f8 1a 50 1de 1e 50 233 1e 50
FIXUPS: 487c5 1a 5d 1b0 26e 1a 50 25a ffffb532 1c 50 505 4d 29 2f 17 2a0
FIXUPS: 44d39 50 25c 29 2f 17 2a0 1c 50 2c8 11d 19f 125 1c3 1fb 50 24b
FIXUPS: 460b2 227 50 265 50 285 ffffb7f5 1d4 18d 1c8 197 10a 17c 1c 50
FIXUPS: 42c12 20c 20e 183 202 3e 305 b 62 b 80 b 40 e8 1c 50 240 1c4 213
FIXUPS: 44147 141 1c 50 ffffcb52 18 32 25 24 18 25 32 18 4b 18 25 25 25
FIXUPS: 41057 25 25 18 3e 18 3e 18 31 32 18 25 25 18 2d 18 d65 1c bc6f
FIXUPS: 4dc9a 1e ffff2ce3 20 51 25 31 18 4b 18 4b 18 3e 18 32 18 25 18
FIXUPS: 40c5b 18 3e 18 32 18 25 18 31 25 25 18 3f d91c 1df 76 16 137 220
FIXUPS: 4ed6d 11 2c6 6d 53 402 76 16 1c 5d 54 213 3e 53 5b ffffdf4a 2d
FIXUPS: 4d969 26 22 48 62 34 61 f 118 30a3 2d e 42 27 2d e ffffed77 39
FIXUPS: 4fbe9 13 29 48 e 1b e e 75 19 24 27 b b 12 5b 5f 26 2d ffffde60
FIXUPS: 4e037 5ba 16 1fd3 27 55 45 c 10 25 f 8 d c7 30 12 3b 17 11 20 f
FIXUPS: 508ba 9 15 8 a7 19 14 11 7b 13 ff 60 a3 42 fffff355 18 1c b 38
FIXUPS: 5007b 18 1c b 3e 18 28 b 3e 18 1e 35 b 60 b a3 21 61 11 2e 10 13
FIXUPS: 503fc 28 45 8e d4 18d8 19 55 2f 19 29 20 19 25 19 25 22 12 f b
FIXUPS: 52077 14 14 b 2d 17 a 15 60 15 2e 13 ffffebfd fffff187 1a 15 23
FIXUPS: 5ce36 ffff4754 39 90 27 49 58 166 f 35 27 1f 29 5c 23 5a 53 14
FIXUPS: 51a82 25 94 4c 20 32 70 87 38 3e 73 68 19 2b a564 77 13 53 8 13b
FIXUPS: 5c636 71 10c 2c b 36 64 30 67 b 4d 2c b 61 b 4d 2c b 61 b 78 1a
FIXUPS: 5cc00 3e 32 41 ffffefca f c 65 d 29 e 1c 1a e 26 85 15 17 17 11
FIXUPS: 5bf76 4e 11 32 33 4d 7e a2 33 39 52 18 d3 1d 2b 28 fffff2b4 30
FIXUPS: 5b6af 61 8 23 59 3c 10 43 e 12 8 16 f 70 a 4b e8 b 4e 51 13 26
FIXUPS: 5bb12 af 22 14 11 20 22 6 fffff636 1f 11 1f 11 1f 11 1f 11 1f 11
FIXUPS: 5b395 11 2f 69 4e 1e 26 8 10 9 c 9 22 9 13 f 3a 27 68 1e f fffff8f9
FIXUPS: 5af51 40 d 1a b 1c 1c 1c 1c 1c 1c 1c 1c 1c 35 a 1a 1e 1f 11 1f
FIXUPS: 5b196 1f 11 1f 11 1f 11 1f 11 1f fffff9c0 b 15 17 8 13 2b 1f 1e
FIXUPS: 5ad0e 21 51 69 19 9 10 15 2a a f b 10 f a c b e 23 12 7 21 12 fffffa0a
FIXUPS: 5a94a 19 1f 1a 1f 1a 1d b 15 10 13 19 1f 2b b 15 10 13 19 13 19
FIXUPS: 5ab3f 2b b 15 17 8 13 13 21 28 fffffb42 12 1b 17 10 d b c c f 8
FIXUPS: 5a800 b 11 17 16 15 9 8 c c c 13 8 9 8 c 12 f 1a 1d 10 fffffb1e
FIXUPS: 5a46a 13 19 13 19 25 28 a 1d b 27 a 1d b 1a 14 11 17 16 1a 1f 22
FIXUPS: 5a67d 12 22 22 22 1f b 14 1d fffff9b1 b c 2a 11 19 10 b 4f c 15
FIXUPS: 5a207 b c 64 44 1f 1f 1d b 17 f 8 13 2b 15 1a 1d b 19 11 25 fffff532
FIXUPS: 5999d 20 7 a 7 a 7 9e e 4d 5e e 52 26 4d b1 3b 202 1e 5f 1c 71
FIXUPS: 5a018 c 8 11 b 6e 1d 9 15 fffff5cb c 7 c 7 c 7 24 1f 31 e 23 2f
FIXUPS: 597f6 8 2c 1f 9 15 2e 1c d c 14 9 6 a 9 10 2a d e fffffaa7 33 45
FIXUPS: 59488 16 14 16 14 16 14 19 14 19 d 13 19 d 13 19 d 13 19 d 13 19
FIXUPS: 5963d 11 19 d 11 19 d fffff910 18 d 5a d 5a d 5a d d 16 d 56 d
FIXUPS: 591fe d 56 d 3f d 1f 1a 1a 1a 1b a b 19 e 1a 1a a fffff9bc 8 1a
FIXUPS: 58da5 12 12 8 1f 23 d 8 21 d 8 21 d 1a 12 d 10 d d 10 d 8 13 d
FIXUPS: 58f47 12 8 12 12 fffffb3d 2a 22 10 9 d 8 1b 9 8 1a b 8 11 30 b
FIXUPS: 58c1c 4a 2b d 1c b 18 12 d a d f a 1d b 12 fffff9de 11 11 13 1e
FIXUPS: 587a4 b 19 1d 15 1b 27 18 b 2b 1d 1c 1b 1b 2d 18 b 2b 1d 1c 1b
FIXUPS: 589e3 2d 37 1d 1c 1b fffff9e4 14 10 10 d 12 11 b 8 16 10 12 21
FIXUPS: 58565 10 1a 28 16 10 8 1a 21 16 10 12 21 29 b 15 15 1b 27 fffffb15
FIXUPS: 5823e d b 17 e 1c d b 38 d 10 d 27 10 1f b 8 16 10 10 17 b 8 f
FIXUPS: 583fa 12 21 16 10 8 12 fffffad4 12 d 1c 12 d 1c 12 d 2d 1e d 1b
FIXUPS: 58056 25 20 40 2d a 3e 26 20 6 9 18 d 6 1a 9 15 9 10 fffffa8a 2c
FIXUPS: 57ce9 1e 12 1d 15 1f d 2f d 10 6 9 18 8 13 9 15 a 13 9 10 d 15
FIXUPS: 57e8e 12 b 26 a 25 20 fffffa16 a 11 e 1c 20 c e 1d 1a 23 3a 15
FIXUPS: 57a7c d 24 18 1f d 2f 12 22 24 12 21 19 f 14 d 2d 2c 19 fffffa19
FIXUPS: 5768b 3b b 17 b 1d b 48 c 14 9 9 10 d 12 b 1a 6 17 12 d b 10 1b
FIXUPS: 57866 1e a 17 55 d 1d fffff981 f 2a 78 d 12 23 c 1d 15 f 30 a 4f
FIXUPS: 5749b 12 4b 19 24 d 1b 17 d 1f a 11 e 1c 40 17 1a 1d fffff7f6 36
FIXUPS: 56ec6 11 59 23 2e 28 12 20 1b 1c 6f 1c f 31 15 12 3e 25 21 11 f
FIXUPS: 571b2 2a 1d d a 28 21 14 1c fffff854 12 1b 1d 1b 21 c 10 d 1e 5a
FIXUPS: 56c1e 9 2e 10 d 2e 13 e 1f 14 1f 20 12 2e 18 23 23 1a 17 17 29
FIXUPS: 5677e 1a 16 2a 17 3d d 15 d 17 5a 32 1d 43 d 17 d 12 9 17 9 15
FIXUPS: 569e8 10 d 13 10 b 4e 8 23 20 fffffa3f d d c 18 a 8 1b 10 14 1a
FIXUPS: 565cd f 12 23 17 2a 7 19 7 8 2d 27 7 10 d 6 9 18 f 22 27 fffffb1d
FIXUPS: 562a7 23 1b 23 12 27 b 14 b 17 18 12 b 21 12 1c 12 b 19 19 11 b
FIXUPS: 56480 10 d d c 18 a 8 1b fffff98b 38 13 22 7 26 1d e 15 39 12 88
FIXUPS: 56046 9 55 13 22 26 1d e 15 3d 12 12 1e 12 12 1e 10 e 38 27 fffff736
FIXUPS: 559d1 e 1c b3 1a 12 10 22 a9 c 16 12 b 11 a 18 12 15 24 28 15 b
FIXUPS: 55cc9 c 70 2e 2a 20 3c 7 d fffff481 28 19 28 22 10b 28 60 28 4a
FIXUPS: 5553a 1a 10 56 36 ba 1c 3b 42 5f 20 f 37 12 a 20 51 43 1e 3d 2f
FIXUPS: 5596c fffff419 1c 13 25 34 27 27 37 d 1a 10 21 b 5b b 6a 2e 28
FIXUPS: 5503d 1c 25 1c 25 1c b5 22 22 22 22 b 4b b fffff577 14 d 15 10d
FIXUPS: 54950 46 a 5c 40 27 6 27 6 5e d0 11 31 b 1a d 1a 10 1f b 2c 1f
FIXUPS: 54cf9 31 19 13 1c fffff1a9 10 39 9b f 61 1d 2d 37 19 34 97 35 e4
FIXUPS: 543d0 24 102 2b 45 2a 10 21 1d 4b 2a 4e 4e 24 2c 14 2f 2f ffffef25
FIXUPS: 536e8 b 13 13 7 26 7 ac 2a 36 b 30 b 56 2b b 339 b 74 3c 33 27
FIXUPS: 53d86 11 e 78 56 2f 36 21 19 fffff35a 34 14 69 1f a 22 14 24 b
FIXUPS: 533e1 14 34 2f 16 12 25 20 21 3c 14 12 25 20 21 3c 14 d 50 38 2f
FIXUPS: 536ca fffff65e 17 1b 21 18 13 f 1c 5c 23 75 1a 31 120 4c 1a 15
FIXUPS: 530c5 15 1a 15 1a 27 1a 27 1a 27 1a 27 1a 13 25 fffff5e6 f a f
FIXUPS: 52877 f a f 17 17 a a a a a 14 15 f e b7 2a 3e 18 1e 21 22 75 2a
FIXUPS: 52ba0 32 2a 33 fffffa47 1c 11 16 a a a a a a a 11 a 11 a 11 a 11
FIXUPS: 5276b 11 a a 11 a 19 f f 14 1d f a f b6de ffffefa1 1c 7f 31 5f
FIXUPS: 5cffe 31 1d ffff533b 5 1a 1a 1d 15 5 1a 1a 1d 15 5 1a 1a 1d 15
FIXUPS: 524e2 15 1a 15 1a fd 2c b259 8 10 15 7 b 7 1a 22 26 44 f 8 10 15
FIXUPS: 5d9f1 b 7 b c 7 28 22 2e 22 98 205 84 2a 25 29 8d fffff604 f 8
FIXUPS: 5d511 8 12 d b 9 9 7 28 29 11 9 6 16 28 c 14 1a 146 18 2b 27 12
FIXUPS: 5d845 f 8 10 11 36 fffff901 8 10 51 23 26 14 24 c 9 19 19 f 1f
FIXUPS: 5d32d c 27 1d 11 d 1d 18 14 f 19 2b 48 e 14 21 f b 18e6 7 15 7
FIXUPS: 5ee41 7 1d 7 1d 7 1f 7 1a 7 1e 7 1f 7 34 4f 35 29 e 2ff 9 ffffddda
FIXUPS: 5d119 a 1a 33 23 12 1a15 17 7 12 7 8 7 36 f 8 10 18 7 10 7 10 7
FIXUPS: 5ecba 7 10 7 8 7 f 7 8 4f 7 1d 7 1d 7 fffffc52 8 10 10 7 34 f 8
FIXUPS: 5ea7f 14 7 10 7 10 17 7 10 7 10 7 8 7 f 7 1e f 8 10 14 7 10 7 10b4
FIXUPS: 5fc86 e4 18 19 16 ffffe644 1e0 4d 44 c b 67 42 14d 23 44 8 10 12
FIXUPS: 5e911 12 1a 2a f 8 10 10 7 10 7 2a d97 21 11 9 14 18 15 2d 12 12
FIXUPS: 5f856 13 2b 12 e c 78 51 1c 12 4a 13 12 1f 40 a9 58 45 19 1d d
FIXUPS: 5fc2a 1655 e1 fe 72 13 5d 13 82 ffffe82f 1b 6 1d 1c e fffff590
FIXUPS: 5f443 38 24 80 15 10 22 11 27 14 13 1c 56 2f 81 50 22 138a c 11
FIXUPS: 60b0b d 7a 13 15 11 1e 13 1c 127 48 64 32 13 1f 60 25 a 1f 14 cf
FIXUPS: 61058 17 4d 16 15 a1 c9 16 fffff339 1f 2e 19 17 18 9 11 18 9 15
FIXUPS: 6068b 50 17 1b 1b 1b 48 42 2f 12 33 13 1e 29 7f 1e 44 89 18 17
FIXUPS: 60a9d 483f 20 d d d b 17 346 ffffc1d8 248 326 23 ffffe0a3 1a 30
FIXUPS: 5ff6c 2f 37c 3a 2c 2f 17 1b 9 28 15 11 13 29 56 ae 17 4ae7 b 12
FIXUPS: 6509d 14 10 8 8 11 1b 6 11 15 b d b 8 11 12 b 20 11 d 14 b 13 34
FIXUPS: 6525c e 25 17 12 fffffb2c f d 12 16 10 53 1d 24 11 31 b 8 15 12
FIXUPS: 64f4e 9 18 b 12 8 8 10 15 b 11 14 10 8 8 11 3a fffffb81 c 12 b
FIXUPS: 64c1b b 15 16 11 16 14 f 8 10 10 1d 9 13 9 12 12 10 c 12 12 f 8
FIXUPS: 64d90 10 11 f b fffff8d6 1bd 23 57 2d 28 2c f b 11 14 e 14 14 12
FIXUPS: 649f4 23 15 1f 3b 58 27 33 e 16 12 f 8 10 10 16 11 fffff639 72
FIXUPS: 642e9 41 f 8 10 20 d 13 16 9 13 36 f 8 10 1a 9 13 38 f 8 10 16
FIXUPS: 644ea 6b 12 b 13 19 e0 fffff883 7 7 7 7 7 7 7 55 7 7 7 7 7 7 7
FIXUPS: 63fbf 23 e 31 e 5b c 18 22 9 79 27 19 9 1f 27 fffffb30 7 7 7 7
FIXUPS: 63d34 7 7 7 7 7 7 7 54 7 7 7 7 7 7 7 7 24 12 30 79 7 7 7 7 7 7
FIXUPS: 637ba f 8 d c7 30 12 3b 17 11 20 f 1f 9 15 8 a7 19 14 11 73 f 8
FIXUPS: 63b3a 2e 3a 3d 2c 48 2f 81 7 fffff4cd b c a 10 12 14 e 2d 63 77
FIXUPS: 6335b 5d 12 10 13 13 6a 45 ee f 27 55 39 3b 10 21 3d 34 3b c 10
FIXUPS: 62d94 1f 9 15 a 130 10 d9 13 2e a 33 15 a 10 1e 6 13 15 10 a 12
FIXUPS: 63123 12 a 19 b 15 f 8 f 2c 28a1 8a 5b c ffffcbe2 84 180 24 b e
FIXUPS: 62990 32 b e 11 1e 75 15 4c 21 19 1ae 12 2e 19 f 8 c c 19 e f 2e11
FIXUPS: 65bb1 15 23 2c 42 23 2d e 44 2c b 30 13 5f b 3a 27 2d e 44 2c b
FIXUPS: 6583d 49 5c 4d 3a 2f 18 22 18
